
capp32:     file format elf32-littleriscv


Disassembly of section .text:

80000000 <_start>:
80000000:	00012197          	auipc	x3,0x12
80000004:	cd018193          	addi	x3,x3,-816 # 80011cd0 <__malloc_av_>

80000008 <start_clear_bss>:
80000008:	6b018513          	addi	x10,x3,1712 # 80012380 <__malloc_current_mallinfo>
8000000c:	800125b7          	lui	x11,0x80012
80000010:	4f858593          	addi	x11,x11,1272 # 800124f8 <__BSS_END__>

80000014 <clear_bss>:
80000014:	00b57863          	bgeu	x10,x11,80000024 <done_bss>
80000018:	00050023          	sb	x0,0(x10)
8000001c:	00150513          	addi	x10,x10,1
80000020:	fe000ae3          	beq	x0,x0,80000014 <clear_bss>

80000024 <done_bss>:
80000024:	08000117          	auipc	x2,0x8000
80000028:	fdc10113          	addi	x2,x2,-36 # 88000000 <_stack_top>
8000002c:	13c000ef          	jal	x1,80000168 <main>
80000030:	54d010ef          	jal	x1,80001d7c <__libc_fini_array>
80000034:	00050513          	addi	x10,x10,0
80000038:	05d00893          	addi	x17,x0,93
8000003c:	00000073          	ecall

80000040 <shutdown>:
80000040:	00100073          	ebreak

80000044 <dosum>:
80000044:	fe010113          	addi	x2,x2,-32
80000048:	00112e23          	sw	x1,28(x2)
8000004c:	00812c23          	sw	x8,24(x2)
80000050:	02010413          	addi	x8,x2,32
80000054:	fe042623          	sw	x0,-20(x8)
80000058:	fe042423          	sw	x0,-24(x8)
8000005c:	01c0006f          	jal	x0,80000078 <dosum+0x34>
80000060:	fec42783          	lw	x15,-20(x8)
80000064:	00178793          	addi	x15,x15,1
80000068:	fef42623          	sw	x15,-20(x8)
8000006c:	fe842783          	lw	x15,-24(x8)
80000070:	00178793          	addi	x15,x15,1
80000074:	fef42423          	sw	x15,-24(x8)
80000078:	fe842703          	lw	x14,-24(x8)
8000007c:	000027b7          	lui	x15,0x2
80000080:	71078793          	addi	x15,x15,1808 # 2710 <_start-0x7fffd8f0>
80000084:	fce7dee3          	bge	x15,x14,80000060 <dosum+0x1c>
80000088:	fec42783          	lw	x15,-20(x8)
8000008c:	00078513          	addi	x10,x15,0
80000090:	01c12083          	lw	x1,28(x2)
80000094:	01812403          	lw	x8,24(x2)
80000098:	02010113          	addi	x2,x2,32
8000009c:	00008067          	jalr	x0,0(x1)

800000a0 <dodiff>:
800000a0:	fe010113          	addi	x2,x2,-32
800000a4:	00112e23          	sw	x1,28(x2)
800000a8:	00812c23          	sw	x8,24(x2)
800000ac:	02010413          	addi	x8,x2,32
800000b0:	fe042623          	sw	x0,-20(x8)
800000b4:	fe042423          	sw	x0,-24(x8)
800000b8:	01c0006f          	jal	x0,800000d4 <dodiff+0x34>
800000bc:	fec42783          	lw	x15,-20(x8)
800000c0:	fff78793          	addi	x15,x15,-1
800000c4:	fef42623          	sw	x15,-20(x8)
800000c8:	fe842783          	lw	x15,-24(x8)
800000cc:	00178793          	addi	x15,x15,1
800000d0:	fef42423          	sw	x15,-24(x8)
800000d4:	fe842703          	lw	x14,-24(x8)
800000d8:	000027b7          	lui	x15,0x2
800000dc:	71078793          	addi	x15,x15,1808 # 2710 <_start-0x7fffd8f0>
800000e0:	fce7dee3          	bge	x15,x14,800000bc <dodiff+0x1c>
800000e4:	fec42783          	lw	x15,-20(x8)
800000e8:	00078513          	addi	x10,x15,0
800000ec:	01c12083          	lw	x1,28(x2)
800000f0:	01812403          	lw	x8,24(x2)
800000f4:	02010113          	addi	x2,x2,32
800000f8:	00008067          	jalr	x0,0(x1)

800000fc <domul>:
800000fc:	fe010113          	addi	x2,x2,-32
80000100:	00112e23          	sw	x1,28(x2)
80000104:	00812c23          	sw	x8,24(x2)
80000108:	02010413          	addi	x8,x2,32
8000010c:	800117b7          	lui	x15,0x80011
80000110:	4287a783          	lw	x15,1064(x15) # 80011428 <_exit+0x8c>
80000114:	fef42623          	sw	x15,-20(x8)
80000118:	fe042423          	sw	x0,-24(x8)
8000011c:	0280006f          	jal	x0,80000144 <domul+0x48>
80000120:	fec42783          	lw	x15,-20(x8)
80000124:	00078593          	addi	x11,x15,0
80000128:	00078513          	addi	x10,x15,0
8000012c:	299000ef          	jal	x1,80000bc4 <__addsf3>
80000130:	00050793          	addi	x15,x10,0
80000134:	fef42623          	sw	x15,-20(x8)
80000138:	fe842783          	lw	x15,-24(x8)
8000013c:	00178793          	addi	x15,x15,1
80000140:	fef42423          	sw	x15,-24(x8)
80000144:	fe842703          	lw	x14,-24(x8)
80000148:	00a00793          	addi	x15,x0,10
8000014c:	fce7dae3          	bge	x15,x14,80000120 <domul+0x24>
80000150:	fec42783          	lw	x15,-20(x8)
80000154:	00078513          	addi	x10,x15,0
80000158:	01c12083          	lw	x1,28(x2)
8000015c:	01812403          	lw	x8,24(x2)
80000160:	02010113          	addi	x2,x2,32
80000164:	00008067          	jalr	x0,0(x1)

80000168 <main>:
80000168:	fd010113          	addi	x2,x2,-48
8000016c:	02112623          	sw	x1,44(x2)
80000170:	02812423          	sw	x8,40(x2)
80000174:	03010413          	addi	x8,x2,48
80000178:	800117b7          	lui	x15,0x80011
8000017c:	3a078513          	addi	x10,x15,928 # 800113a0 <_exit+0x4>
80000180:	26d010ef          	jal	x1,80001bec <printf>
80000184:	fe042623          	sw	x0,-20(x8)
80000188:	fe042423          	sw	x0,-24(x8)
8000018c:	00000793          	addi	x15,x0,0
80000190:	fef42223          	sw	x15,-28(x8)
80000194:	fe442503          	lw	x10,-28(x8)
80000198:	659000ef          	jal	x1,80000ff0 <__extendsfdf2>
8000019c:	00050713          	addi	x14,x10,0
800001a0:	00058793          	addi	x15,x11,0
800001a4:	fe842603          	lw	x12,-24(x8)
800001a8:	fec42583          	lw	x11,-20(x8)
800001ac:	800116b7          	lui	x13,0x80011
800001b0:	3b468513          	addi	x10,x13,948 # 800113b4 <_exit+0x18>
800001b4:	239010ef          	jal	x1,80001bec <printf>
800001b8:	e8dff0ef          	jal	x1,80000044 <dosum>
800001bc:	fea42623          	sw	x10,-20(x8)
800001c0:	ee1ff0ef          	jal	x1,800000a0 <dodiff>
800001c4:	fea42423          	sw	x10,-24(x8)
800001c8:	f35ff0ef          	jal	x1,800000fc <domul>
800001cc:	fea42223          	sw	x10,-28(x8)
800001d0:	fe442503          	lw	x10,-28(x8)
800001d4:	61d000ef          	jal	x1,80000ff0 <__extendsfdf2>
800001d8:	00050713          	addi	x14,x10,0
800001dc:	00058793          	addi	x15,x11,0
800001e0:	fe842603          	lw	x12,-24(x8)
800001e4:	fec42583          	lw	x11,-20(x8)
800001e8:	800116b7          	lui	x13,0x80011
800001ec:	3b468513          	addi	x10,x13,948 # 800113b4 <_exit+0x18>
800001f0:	1fd010ef          	jal	x1,80001bec <printf>
800001f4:	06800513          	addi	x10,x0,104
800001f8:	131000ef          	jal	x1,80000b28 <uart_putc>
800001fc:	06500513          	addi	x10,x0,101
80000200:	129000ef          	jal	x1,80000b28 <uart_putc>
80000204:	06c00513          	addi	x10,x0,108
80000208:	121000ef          	jal	x1,80000b28 <uart_putc>
8000020c:	06c00513          	addi	x10,x0,108
80000210:	119000ef          	jal	x1,80000b28 <uart_putc>
80000214:	06f00513          	addi	x10,x0,111
80000218:	111000ef          	jal	x1,80000b28 <uart_putc>
8000021c:	00a00513          	addi	x10,x0,10
80000220:	109000ef          	jal	x1,80000b28 <uart_putc>
80000224:	800117b7          	lui	x15,0x80011
80000228:	3d478513          	addi	x10,x15,980 # 800113d4 <_exit+0x38>
8000022c:	2dd010ef          	jal	x1,80001d08 <puts>
80000230:	6ac1a783          	lw	x15,1708(x3) # 8001237c <_impure_ptr>
80000234:	0087a783          	lw	x15,8(x15)
80000238:	00078693          	addi	x13,x15,0
8000023c:	00100613          	addi	x12,x0,1
80000240:	01700593          	addi	x11,x0,23
80000244:	800117b7          	lui	x15,0x80011
80000248:	3ec78513          	addi	x10,x15,1004 # 800113ec <_exit+0x50>
8000024c:	059010ef          	jal	x1,80001aa4 <fwrite>
80000250:	6ac1a783          	lw	x15,1708(x3) # 8001237c <_impure_ptr>
80000254:	00c7a783          	lw	x15,12(x15)
80000258:	00078693          	addi	x13,x15,0
8000025c:	00100613          	addi	x12,x0,1
80000260:	02300593          	addi	x11,x0,35
80000264:	800117b7          	lui	x15,0x80011
80000268:	40478513          	addi	x10,x15,1028 # 80011404 <_exit+0x68>
8000026c:	039010ef          	jal	x1,80001aa4 <fwrite>
80000270:	00400513          	addi	x10,x0,4
80000274:	6a1000ef          	jal	x1,80001114 <malloc>
80000278:	00050793          	addi	x15,x10,0
8000027c:	fef42023          	sw	x15,-32(x8)
80000280:	fe042783          	lw	x15,-32(x8)
80000284:	00b00713          	addi	x14,x0,11
80000288:	00e7a023          	sw	x14,0(x15)
8000028c:	00400513          	addi	x10,x0,4
80000290:	685000ef          	jal	x1,80001114 <malloc>
80000294:	00050793          	addi	x15,x10,0
80000298:	fcf42e23          	sw	x15,-36(x8)
8000029c:	fdc42783          	lw	x15,-36(x8)
800002a0:	01600713          	addi	x14,x0,22
800002a4:	00e7a023          	sw	x14,0(x15)
800002a8:	fe042783          	lw	x15,-32(x8)
800002ac:	0007a703          	lw	x14,0(x15)
800002b0:	fdc42783          	lw	x15,-36(x8)
800002b4:	0007a783          	lw	x15,0(x15)
800002b8:	00f707b3          	add	x15,x14,x15
800002bc:	fcf42c23          	sw	x15,-40(x8)
800002c0:	fd842783          	lw	x15,-40(x8)
800002c4:	00078513          	addi	x10,x15,0
800002c8:	02c12083          	lw	x1,44(x2)
800002cc:	02812403          	lw	x8,40(x2)
800002d0:	03010113          	addi	x2,x2,48
800002d4:	00008067          	jalr	x0,0(x1)

800002d8 <riscv_syscall1>:
800002d8:	fd010113          	addi	x2,x2,-48
800002dc:	02112623          	sw	x1,44(x2)
800002e0:	02812423          	sw	x8,40(x2)
800002e4:	03010413          	addi	x8,x2,48
800002e8:	fca42e23          	sw	x10,-36(x8)
800002ec:	fcb42c23          	sw	x11,-40(x8)
800002f0:	fdc42783          	lw	x15,-36(x8)
800002f4:	fd842703          	lw	x14,-40(x8)
800002f8:	00078893          	addi	x17,x15,0
800002fc:	00070513          	addi	x10,x14,0
80000300:	00000073          	ecall
80000304:	00050793          	addi	x15,x10,0
80000308:	fef42623          	sw	x15,-20(x8)
8000030c:	fec42783          	lw	x15,-20(x8)
80000310:	00078513          	addi	x10,x15,0
80000314:	02c12083          	lw	x1,44(x2)
80000318:	02812403          	lw	x8,40(x2)
8000031c:	03010113          	addi	x2,x2,48
80000320:	00008067          	jalr	x0,0(x1)

80000324 <riscv_syscall2>:
80000324:	fd010113          	addi	x2,x2,-48
80000328:	02112623          	sw	x1,44(x2)
8000032c:	02812423          	sw	x8,40(x2)
80000330:	03010413          	addi	x8,x2,48
80000334:	fca42e23          	sw	x10,-36(x8)
80000338:	fcb42c23          	sw	x11,-40(x8)
8000033c:	fcc42a23          	sw	x12,-44(x8)
80000340:	fdc42783          	lw	x15,-36(x8)
80000344:	fd842703          	lw	x14,-40(x8)
80000348:	fd442683          	lw	x13,-44(x8)
8000034c:	00078893          	addi	x17,x15,0
80000350:	00070513          	addi	x10,x14,0
80000354:	00068593          	addi	x11,x13,0
80000358:	00000073          	ecall
8000035c:	00050793          	addi	x15,x10,0
80000360:	fef42623          	sw	x15,-20(x8)
80000364:	fec42783          	lw	x15,-20(x8)
80000368:	00078513          	addi	x10,x15,0
8000036c:	02c12083          	lw	x1,44(x2)
80000370:	02812403          	lw	x8,40(x2)
80000374:	03010113          	addi	x2,x2,48
80000378:	00008067          	jalr	x0,0(x1)

8000037c <riscv_syscall3>:
8000037c:	fd010113          	addi	x2,x2,-48
80000380:	02112623          	sw	x1,44(x2)
80000384:	02812423          	sw	x8,40(x2)
80000388:	03010413          	addi	x8,x2,48
8000038c:	fca42e23          	sw	x10,-36(x8)
80000390:	fcb42c23          	sw	x11,-40(x8)
80000394:	fcc42a23          	sw	x12,-44(x8)
80000398:	fcd42823          	sw	x13,-48(x8)
8000039c:	fdc42783          	lw	x15,-36(x8)
800003a0:	fd842703          	lw	x14,-40(x8)
800003a4:	fd442683          	lw	x13,-44(x8)
800003a8:	fd042803          	lw	x16,-48(x8)
800003ac:	00078893          	addi	x17,x15,0
800003b0:	00070513          	addi	x10,x14,0
800003b4:	00068593          	addi	x11,x13,0
800003b8:	00080613          	addi	x12,x16,0
800003bc:	00000073          	ecall
800003c0:	00050793          	addi	x15,x10,0
800003c4:	fef42623          	sw	x15,-20(x8)
800003c8:	fec42783          	lw	x15,-20(x8)
800003cc:	00078513          	addi	x10,x15,0
800003d0:	02c12083          	lw	x1,44(x2)
800003d4:	02812403          	lw	x8,40(x2)
800003d8:	03010113          	addi	x2,x2,48
800003dc:	00008067          	jalr	x0,0(x1)

800003e0 <__dso_handle>:
800003e0:	ff010113          	addi	x2,x2,-16
800003e4:	00112623          	sw	x1,12(x2)
800003e8:	00812423          	sw	x8,8(x2)
800003ec:	01010413          	addi	x8,x2,16
800003f0:	00000013          	addi	x0,x0,0
800003f4:	00c12083          	lw	x1,12(x2)
800003f8:	00812403          	lw	x8,8(x2)
800003fc:	01010113          	addi	x2,x2,16
80000400:	00008067          	jalr	x0,0(x1)

80000404 <_close>:
80000404:	fd010113          	addi	x2,x2,-48
80000408:	02112623          	sw	x1,44(x2)
8000040c:	02812423          	sw	x8,40(x2)
80000410:	02912223          	sw	x9,36(x2)
80000414:	03010413          	addi	x8,x2,48
80000418:	fca42e23          	sw	x10,-36(x8)
8000041c:	fdc42783          	lw	x15,-36(x8)
80000420:	0007de63          	bge	x15,x0,8000043c <_close+0x38>
80000424:	151010ef          	jal	x1,80001d74 <__errno>
80000428:	00050713          	addi	x14,x10,0
8000042c:	00900793          	addi	x15,x0,9
80000430:	00f72023          	sw	x15,0(x14)
80000434:	fff00793          	addi	x15,x0,-1
80000438:	0340006f          	jal	x0,8000046c <_close+0x68>
8000043c:	fdc42503          	lw	x10,-36(x8)
80000440:	191010ef          	jal	x1,80001dd0 <close>
80000444:	fea42623          	sw	x10,-20(x8)
80000448:	fec42783          	lw	x15,-20(x8)
8000044c:	0007de63          	bge	x15,x0,80000468 <_close+0x64>
80000450:	125010ef          	jal	x1,80001d74 <__errno>
80000454:	00050493          	addi	x9,x10,0
80000458:	11d010ef          	jal	x1,80001d74 <__errno>
8000045c:	00050713          	addi	x14,x10,0
80000460:	0004a783          	lw	x15,0(x9)
80000464:	00f72023          	sw	x15,0(x14)
80000468:	fec42783          	lw	x15,-20(x8)
8000046c:	00078513          	addi	x10,x15,0
80000470:	02c12083          	lw	x1,44(x2)
80000474:	02812403          	lw	x8,40(x2)
80000478:	02412483          	lw	x9,36(x2)
8000047c:	03010113          	addi	x2,x2,48
80000480:	00008067          	jalr	x0,0(x1)

80000484 <_execve>:
80000484:	fe010113          	addi	x2,x2,-32
80000488:	00112e23          	sw	x1,28(x2)
8000048c:	00812c23          	sw	x8,24(x2)
80000490:	02010413          	addi	x8,x2,32
80000494:	fea42623          	sw	x10,-20(x8)
80000498:	feb42423          	sw	x11,-24(x8)
8000049c:	fec42223          	sw	x12,-28(x8)
800004a0:	0d5010ef          	jal	x1,80001d74 <__errno>
800004a4:	00050713          	addi	x14,x10,0
800004a8:	05800793          	addi	x15,x0,88
800004ac:	00f72023          	sw	x15,0(x14)
800004b0:	fff00793          	addi	x15,x0,-1
800004b4:	00078513          	addi	x10,x15,0
800004b8:	01c12083          	lw	x1,28(x2)
800004bc:	01812403          	lw	x8,24(x2)
800004c0:	02010113          	addi	x2,x2,32
800004c4:	00008067          	jalr	x0,0(x1)

800004c8 <_fcntl>:
800004c8:	fe010113          	addi	x2,x2,-32
800004cc:	00112e23          	sw	x1,28(x2)
800004d0:	00812c23          	sw	x8,24(x2)
800004d4:	02010413          	addi	x8,x2,32
800004d8:	fea42623          	sw	x10,-20(x8)
800004dc:	feb42423          	sw	x11,-24(x8)
800004e0:	fec42223          	sw	x12,-28(x8)
800004e4:	091010ef          	jal	x1,80001d74 <__errno>
800004e8:	00050713          	addi	x14,x10,0
800004ec:	05800793          	addi	x15,x0,88
800004f0:	00f72023          	sw	x15,0(x14)
800004f4:	fff00793          	addi	x15,x0,-1
800004f8:	00078513          	addi	x10,x15,0
800004fc:	01c12083          	lw	x1,28(x2)
80000500:	01812403          	lw	x8,24(x2)
80000504:	02010113          	addi	x2,x2,32
80000508:	00008067          	jalr	x0,0(x1)

8000050c <_fork>:
8000050c:	ff010113          	addi	x2,x2,-16
80000510:	00112623          	sw	x1,12(x2)
80000514:	00812423          	sw	x8,8(x2)
80000518:	01010413          	addi	x8,x2,16
8000051c:	059010ef          	jal	x1,80001d74 <__errno>
80000520:	00050713          	addi	x14,x10,0
80000524:	05800793          	addi	x15,x0,88
80000528:	00f72023          	sw	x15,0(x14)
8000052c:	fff00793          	addi	x15,x0,-1
80000530:	00078513          	addi	x10,x15,0
80000534:	00c12083          	lw	x1,12(x2)
80000538:	00812403          	lw	x8,8(x2)
8000053c:	01010113          	addi	x2,x2,16
80000540:	00008067          	jalr	x0,0(x1)

80000544 <_fstat>:
80000544:	fe010113          	addi	x2,x2,-32
80000548:	00112e23          	sw	x1,28(x2)
8000054c:	00812c23          	sw	x8,24(x2)
80000550:	02010413          	addi	x8,x2,32
80000554:	fea42623          	sw	x10,-20(x8)
80000558:	feb42423          	sw	x11,-24(x8)
8000055c:	fec42703          	lw	x14,-20(x8)
80000560:	00100793          	addi	x15,x0,1
80000564:	00f70863          	beq	x14,x15,80000574 <_fstat+0x30>
80000568:	fec42703          	lw	x14,-20(x8)
8000056c:	00200793          	addi	x15,x0,2
80000570:	00f71c63          	bne	x14,x15,80000588 <_fstat+0x44>
80000574:	fe842783          	lw	x15,-24(x8)
80000578:	00002737          	lui	x14,0x2
8000057c:	00e7a223          	sw	x14,4(x15)
80000580:	00000793          	addi	x15,x0,0
80000584:	0180006f          	jal	x0,8000059c <_fstat+0x58>
80000588:	7ec010ef          	jal	x1,80001d74 <__errno>
8000058c:	00050713          	addi	x14,x10,0
80000590:	00900793          	addi	x15,x0,9
80000594:	00f72023          	sw	x15,0(x14) # 2000 <_start-0x7fffe000>
80000598:	fff00793          	addi	x15,x0,-1
8000059c:	00078513          	addi	x10,x15,0
800005a0:	01c12083          	lw	x1,28(x2)
800005a4:	01812403          	lw	x8,24(x2)
800005a8:	02010113          	addi	x2,x2,32
800005ac:	00008067          	jalr	x0,0(x1)

800005b0 <_getpid>:
800005b0:	ff010113          	addi	x2,x2,-16
800005b4:	00112623          	sw	x1,12(x2)
800005b8:	00812423          	sw	x8,8(x2)
800005bc:	01010413          	addi	x8,x2,16
800005c0:	00100793          	addi	x15,x0,1
800005c4:	00078513          	addi	x10,x15,0
800005c8:	00c12083          	lw	x1,12(x2)
800005cc:	00812403          	lw	x8,8(x2)
800005d0:	01010113          	addi	x2,x2,16
800005d4:	00008067          	jalr	x0,0(x1)

800005d8 <_isatty>:
800005d8:	fe010113          	addi	x2,x2,-32
800005dc:	00112e23          	sw	x1,28(x2)
800005e0:	00812c23          	sw	x8,24(x2)
800005e4:	02010413          	addi	x8,x2,32
800005e8:	fea42623          	sw	x10,-20(x8)
800005ec:	00100793          	addi	x15,x0,1
800005f0:	00078513          	addi	x10,x15,0
800005f4:	01c12083          	lw	x1,28(x2)
800005f8:	01812403          	lw	x8,24(x2)
800005fc:	02010113          	addi	x2,x2,32
80000600:	00008067          	jalr	x0,0(x1)

80000604 <_kill>:
80000604:	fe010113          	addi	x2,x2,-32
80000608:	00112e23          	sw	x1,28(x2)
8000060c:	00812c23          	sw	x8,24(x2)
80000610:	02010413          	addi	x8,x2,32
80000614:	fea42623          	sw	x10,-20(x8)
80000618:	feb42423          	sw	x11,-24(x8)
8000061c:	758010ef          	jal	x1,80001d74 <__errno>
80000620:	00050713          	addi	x14,x10,0
80000624:	05800793          	addi	x15,x0,88
80000628:	00f72023          	sw	x15,0(x14)
8000062c:	fff00793          	addi	x15,x0,-1
80000630:	00078513          	addi	x10,x15,0
80000634:	01c12083          	lw	x1,28(x2)
80000638:	01812403          	lw	x8,24(x2)
8000063c:	02010113          	addi	x2,x2,32
80000640:	00008067          	jalr	x0,0(x1)

80000644 <_link>:
80000644:	fe010113          	addi	x2,x2,-32
80000648:	00112e23          	sw	x1,28(x2)
8000064c:	00812c23          	sw	x8,24(x2)
80000650:	02010413          	addi	x8,x2,32
80000654:	fea42623          	sw	x10,-20(x8)
80000658:	feb42423          	sw	x11,-24(x8)
8000065c:	718010ef          	jal	x1,80001d74 <__errno>
80000660:	00050713          	addi	x14,x10,0
80000664:	05800793          	addi	x15,x0,88
80000668:	00f72023          	sw	x15,0(x14)
8000066c:	fff00793          	addi	x15,x0,-1
80000670:	00078513          	addi	x10,x15,0
80000674:	01c12083          	lw	x1,28(x2)
80000678:	01812403          	lw	x8,24(x2)
8000067c:	02010113          	addi	x2,x2,32
80000680:	00008067          	jalr	x0,0(x1)

80000684 <_lseek>:
80000684:	fe010113          	addi	x2,x2,-32
80000688:	00112e23          	sw	x1,28(x2)
8000068c:	00812c23          	sw	x8,24(x2)
80000690:	02010413          	addi	x8,x2,32
80000694:	fea42623          	sw	x10,-20(x8)
80000698:	feb42423          	sw	x11,-24(x8)
8000069c:	fec42223          	sw	x12,-28(x8)
800006a0:	03e00893          	addi	x17,x0,62
800006a4:	fec42783          	lw	x15,-20(x8)
800006a8:	fe842703          	lw	x14,-24(x8)
800006ac:	fe442683          	lw	x13,-28(x8)
800006b0:	00000073          	ecall
800006b4:	00050793          	addi	x15,x10,0
800006b8:	00078513          	addi	x10,x15,0
800006bc:	01c12083          	lw	x1,28(x2)
800006c0:	01812403          	lw	x8,24(x2)
800006c4:	02010113          	addi	x2,x2,32
800006c8:	00008067          	jalr	x0,0(x1)

800006cc <_mkdir>:
800006cc:	fe010113          	addi	x2,x2,-32
800006d0:	00112e23          	sw	x1,28(x2)
800006d4:	00812c23          	sw	x8,24(x2)
800006d8:	02010413          	addi	x8,x2,32
800006dc:	fea42623          	sw	x10,-20(x8)
800006e0:	feb42423          	sw	x11,-24(x8)
800006e4:	690010ef          	jal	x1,80001d74 <__errno>
800006e8:	00050713          	addi	x14,x10,0
800006ec:	05800793          	addi	x15,x0,88
800006f0:	00f72023          	sw	x15,0(x14)
800006f4:	fff00793          	addi	x15,x0,-1
800006f8:	00078513          	addi	x10,x15,0
800006fc:	01c12083          	lw	x1,28(x2)
80000700:	01812403          	lw	x8,24(x2)
80000704:	02010113          	addi	x2,x2,32
80000708:	00008067          	jalr	x0,0(x1)

8000070c <_open>:
8000070c:	fe010113          	addi	x2,x2,-32
80000710:	00112e23          	sw	x1,28(x2)
80000714:	00812c23          	sw	x8,24(x2)
80000718:	02010413          	addi	x8,x2,32
8000071c:	fea42623          	sw	x10,-20(x8)
80000720:	feb42423          	sw	x11,-24(x8)
80000724:	fec42223          	sw	x12,-28(x8)
80000728:	64c010ef          	jal	x1,80001d74 <__errno>
8000072c:	00050713          	addi	x14,x10,0
80000730:	05800793          	addi	x15,x0,88
80000734:	00f72023          	sw	x15,0(x14)
80000738:	fff00793          	addi	x15,x0,-1
8000073c:	00078513          	addi	x10,x15,0
80000740:	01c12083          	lw	x1,28(x2)
80000744:	01812403          	lw	x8,24(x2)
80000748:	02010113          	addi	x2,x2,32
8000074c:	00008067          	jalr	x0,0(x1)

80000750 <_read>:
80000750:	fd010113          	addi	x2,x2,-48
80000754:	02112623          	sw	x1,44(x2)
80000758:	02812423          	sw	x8,40(x2)
8000075c:	02912223          	sw	x9,36(x2)
80000760:	03010413          	addi	x8,x2,48
80000764:	fca42e23          	sw	x10,-36(x8)
80000768:	fcb42c23          	sw	x11,-40(x8)
8000076c:	fcc42a23          	sw	x12,-44(x8)
80000770:	fdc42783          	lw	x15,-36(x8)
80000774:	00078e63          	beq	x15,x0,80000790 <_read+0x40>
80000778:	5fc010ef          	jal	x1,80001d74 <__errno>
8000077c:	00050713          	addi	x14,x10,0
80000780:	00900793          	addi	x15,x0,9
80000784:	00f72023          	sw	x15,0(x14)
80000788:	fff00793          	addi	x15,x0,-1
8000078c:	0940006f          	jal	x0,80000820 <_read+0xd0>
80000790:	fe042623          	sw	x0,-20(x8)
80000794:	07c0006f          	jal	x0,80000810 <_read+0xc0>
80000798:	fec42783          	lw	x15,-20(x8)
8000079c:	fd842703          	lw	x14,-40(x8)
800007a0:	00f704b3          	add	x9,x14,x15
800007a4:	3f0000ef          	jal	x1,80000b94 <uart_getc>
800007a8:	00050793          	addi	x15,x10,0
800007ac:	00f48023          	sb	x15,0(x9)
800007b0:	fec42783          	lw	x15,-20(x8)
800007b4:	fd842703          	lw	x14,-40(x8)
800007b8:	00f707b3          	add	x15,x14,x15
800007bc:	0007c703          	lbu	x14,0(x15)
800007c0:	00d00793          	addi	x15,x0,13
800007c4:	02f70863          	beq	x14,x15,800007f4 <_read+0xa4>
800007c8:	fec42783          	lw	x15,-20(x8)
800007cc:	fd842703          	lw	x14,-40(x8)
800007d0:	00f707b3          	add	x15,x14,x15
800007d4:	0007c703          	lbu	x14,0(x15)
800007d8:	00a00793          	addi	x15,x0,10
800007dc:	00f70c63          	beq	x14,x15,800007f4 <_read+0xa4>
800007e0:	fec42783          	lw	x15,-20(x8)
800007e4:	fd842703          	lw	x14,-40(x8)
800007e8:	00f707b3          	add	x15,x14,x15
800007ec:	0007c783          	lbu	x15,0(x15)
800007f0:	00079a63          	bne	x15,x0,80000804 <_read+0xb4>
800007f4:	fec42783          	lw	x15,-20(x8)
800007f8:	00178793          	addi	x15,x15,1
800007fc:	fef42623          	sw	x15,-20(x8)
80000800:	01c0006f          	jal	x0,8000081c <_read+0xcc>
80000804:	fec42783          	lw	x15,-20(x8)
80000808:	00178793          	addi	x15,x15,1
8000080c:	fef42623          	sw	x15,-20(x8)
80000810:	fec42783          	lw	x15,-20(x8)
80000814:	fd442703          	lw	x14,-44(x8)
80000818:	f8e7e0e3          	bltu	x15,x14,80000798 <_read+0x48>
8000081c:	fec42783          	lw	x15,-20(x8)
80000820:	00078513          	addi	x10,x15,0
80000824:	02c12083          	lw	x1,44(x2)
80000828:	02812403          	lw	x8,40(x2)
8000082c:	02412483          	lw	x9,36(x2)
80000830:	03010113          	addi	x2,x2,48
80000834:	00008067          	jalr	x0,0(x1)

80000838 <_rename>:
80000838:	fe010113          	addi	x2,x2,-32
8000083c:	00112e23          	sw	x1,28(x2)
80000840:	00812c23          	sw	x8,24(x2)
80000844:	02010413          	addi	x8,x2,32
80000848:	fea42623          	sw	x10,-20(x8)
8000084c:	feb42423          	sw	x11,-24(x8)
80000850:	524010ef          	jal	x1,80001d74 <__errno>
80000854:	00050713          	addi	x14,x10,0
80000858:	05800793          	addi	x15,x0,88
8000085c:	00f72023          	sw	x15,0(x14)
80000860:	fff00793          	addi	x15,x0,-1
80000864:	00078513          	addi	x10,x15,0
80000868:	01c12083          	lw	x1,28(x2)
8000086c:	01812403          	lw	x8,24(x2)
80000870:	02010113          	addi	x2,x2,32
80000874:	00008067          	jalr	x0,0(x1)

80000878 <_sbrk>:
80000878:	fd010113          	addi	x2,x2,-48
8000087c:	02112623          	sw	x1,44(x2)
80000880:	02812423          	sw	x8,40(x2)
80000884:	03010413          	addi	x8,x2,48
80000888:	fca42e23          	sw	x10,-36(x8)
8000088c:	6a01a703          	lw	x14,1696(x3) # 80012370 <heap_ptr>
80000890:	fdc42783          	lw	x15,-36(x8)
80000894:	00f70733          	add	x14,x14,x15
80000898:	860127b7          	lui	x15,0x86012
8000089c:	50078793          	addi	x15,x15,1280 # 86012500 <_end>
800008a0:	00e7fe63          	bgeu	x15,x14,800008bc <_sbrk+0x44>
800008a4:	4d0010ef          	jal	x1,80001d74 <__errno>
800008a8:	00050713          	addi	x14,x10,0
800008ac:	00c00793          	addi	x15,x0,12
800008b0:	00f72023          	sw	x15,0(x14)
800008b4:	fff00793          	addi	x15,x0,-1
800008b8:	0200006f          	jal	x0,800008d8 <_sbrk+0x60>
800008bc:	6a01a783          	lw	x15,1696(x3) # 80012370 <heap_ptr>
800008c0:	fef42623          	sw	x15,-20(x8)
800008c4:	6a01a703          	lw	x14,1696(x3) # 80012370 <heap_ptr>
800008c8:	fdc42783          	lw	x15,-36(x8)
800008cc:	00f70733          	add	x14,x14,x15
800008d0:	6ae1a023          	sw	x14,1696(x3) # 80012370 <heap_ptr>
800008d4:	fec42783          	lw	x15,-20(x8)
800008d8:	00078513          	addi	x10,x15,0
800008dc:	02c12083          	lw	x1,44(x2)
800008e0:	02812403          	lw	x8,40(x2)
800008e4:	03010113          	addi	x2,x2,48
800008e8:	00008067          	jalr	x0,0(x1)

800008ec <_stat>:
800008ec:	fe010113          	addi	x2,x2,-32
800008f0:	00112e23          	sw	x1,28(x2)
800008f4:	00812c23          	sw	x8,24(x2)
800008f8:	02010413          	addi	x8,x2,32
800008fc:	fea42623          	sw	x10,-20(x8)
80000900:	feb42423          	sw	x11,-24(x8)
80000904:	470010ef          	jal	x1,80001d74 <__errno>
80000908:	00050713          	addi	x14,x10,0
8000090c:	05800793          	addi	x15,x0,88
80000910:	00f72023          	sw	x15,0(x14)
80000914:	fff00793          	addi	x15,x0,-1
80000918:	00078513          	addi	x10,x15,0
8000091c:	01c12083          	lw	x1,28(x2)
80000920:	01812403          	lw	x8,24(x2)
80000924:	02010113          	addi	x2,x2,32
80000928:	00008067          	jalr	x0,0(x1)

8000092c <_times>:
8000092c:	fe010113          	addi	x2,x2,-32
80000930:	00112e23          	sw	x1,28(x2)
80000934:	00812c23          	sw	x8,24(x2)
80000938:	02010413          	addi	x8,x2,32
8000093c:	fea42623          	sw	x10,-20(x8)
80000940:	434010ef          	jal	x1,80001d74 <__errno>
80000944:	00050713          	addi	x14,x10,0
80000948:	05800793          	addi	x15,x0,88
8000094c:	00f72023          	sw	x15,0(x14)
80000950:	fff00793          	addi	x15,x0,-1
80000954:	00078513          	addi	x10,x15,0
80000958:	01c12083          	lw	x1,28(x2)
8000095c:	01812403          	lw	x8,24(x2)
80000960:	02010113          	addi	x2,x2,32
80000964:	00008067          	jalr	x0,0(x1)

80000968 <_unlink>:
80000968:	fe010113          	addi	x2,x2,-32
8000096c:	00112e23          	sw	x1,28(x2)
80000970:	00812c23          	sw	x8,24(x2)
80000974:	02010413          	addi	x8,x2,32
80000978:	fea42623          	sw	x10,-20(x8)
8000097c:	3f8010ef          	jal	x1,80001d74 <__errno>
80000980:	00050713          	addi	x14,x10,0
80000984:	05800793          	addi	x15,x0,88
80000988:	00f72023          	sw	x15,0(x14)
8000098c:	fff00793          	addi	x15,x0,-1
80000990:	00078513          	addi	x10,x15,0
80000994:	01c12083          	lw	x1,28(x2)
80000998:	01812403          	lw	x8,24(x2)
8000099c:	02010113          	addi	x2,x2,32
800009a0:	00008067          	jalr	x0,0(x1)

800009a4 <_wait>:
800009a4:	fe010113          	addi	x2,x2,-32
800009a8:	00112e23          	sw	x1,28(x2)
800009ac:	00812c23          	sw	x8,24(x2)
800009b0:	02010413          	addi	x8,x2,32
800009b4:	fea42623          	sw	x10,-20(x8)
800009b8:	3bc010ef          	jal	x1,80001d74 <__errno>
800009bc:	00050713          	addi	x14,x10,0
800009c0:	05800793          	addi	x15,x0,88
800009c4:	00f72023          	sw	x15,0(x14)
800009c8:	fff00793          	addi	x15,x0,-1
800009cc:	00078513          	addi	x10,x15,0
800009d0:	01c12083          	lw	x1,28(x2)
800009d4:	01812403          	lw	x8,24(x2)
800009d8:	02010113          	addi	x2,x2,32
800009dc:	00008067          	jalr	x0,0(x1)

800009e0 <_write>:
800009e0:	fd010113          	addi	x2,x2,-48
800009e4:	02112623          	sw	x1,44(x2)
800009e8:	02812423          	sw	x8,40(x2)
800009ec:	03010413          	addi	x8,x2,48
800009f0:	fca42e23          	sw	x10,-36(x8)
800009f4:	fcb42c23          	sw	x11,-40(x8)
800009f8:	fcc42a23          	sw	x12,-44(x8)
800009fc:	fdc42703          	lw	x14,-36(x8)
80000a00:	00100793          	addi	x15,x0,1
80000a04:	02f70463          	beq	x14,x15,80000a2c <_write+0x4c>
80000a08:	fdc42703          	lw	x14,-36(x8)
80000a0c:	00200793          	addi	x15,x0,2
80000a10:	00f70e63          	beq	x14,x15,80000a2c <_write+0x4c>
80000a14:	360010ef          	jal	x1,80001d74 <__errno>
80000a18:	00050713          	addi	x14,x10,0
80000a1c:	00900793          	addi	x15,x0,9
80000a20:	00f72023          	sw	x15,0(x14)
80000a24:	fff00793          	addi	x15,x0,-1
80000a28:	0400006f          	jal	x0,80000a68 <_write+0x88>
80000a2c:	fe042623          	sw	x0,-20(x8)
80000a30:	0280006f          	jal	x0,80000a58 <_write+0x78>
80000a34:	fec42783          	lw	x15,-20(x8)
80000a38:	fd842703          	lw	x14,-40(x8)
80000a3c:	00f707b3          	add	x15,x14,x15
80000a40:	0007c783          	lbu	x15,0(x15)
80000a44:	00078513          	addi	x10,x15,0
80000a48:	0e0000ef          	jal	x1,80000b28 <uart_putc>
80000a4c:	fec42783          	lw	x15,-20(x8)
80000a50:	00178793          	addi	x15,x15,1
80000a54:	fef42623          	sw	x15,-20(x8)
80000a58:	fec42783          	lw	x15,-20(x8)
80000a5c:	fd442703          	lw	x14,-44(x8)
80000a60:	fce7eae3          	bltu	x15,x14,80000a34 <_write+0x54>
80000a64:	fd442783          	lw	x15,-44(x8)
80000a68:	00078513          	addi	x10,x15,0
80000a6c:	02c12083          	lw	x1,44(x2)
80000a70:	02812403          	lw	x8,40(x2)
80000a74:	03010113          	addi	x2,x2,48
80000a78:	00008067          	jalr	x0,0(x1)

80000a7c <_getentropy>:
80000a7c:	fe010113          	addi	x2,x2,-32
80000a80:	00112e23          	sw	x1,28(x2)
80000a84:	00812c23          	sw	x8,24(x2)
80000a88:	02010413          	addi	x8,x2,32
80000a8c:	fea42623          	sw	x10,-20(x8)
80000a90:	feb42423          	sw	x11,-24(x8)
80000a94:	2e0010ef          	jal	x1,80001d74 <__errno>
80000a98:	00050713          	addi	x14,x10,0
80000a9c:	05800793          	addi	x15,x0,88
80000aa0:	00f72023          	sw	x15,0(x14)
80000aa4:	fff00793          	addi	x15,x0,-1
80000aa8:	00078513          	addi	x10,x15,0
80000aac:	01c12083          	lw	x1,28(x2)
80000ab0:	01812403          	lw	x8,24(x2)
80000ab4:	02010113          	addi	x2,x2,32
80000ab8:	00008067          	jalr	x0,0(x1)

80000abc <uart_puts>:
80000abc:	fd010113          	addi	x2,x2,-48
80000ac0:	02112623          	sw	x1,44(x2)
80000ac4:	02812423          	sw	x8,40(x2)
80000ac8:	03010413          	addi	x8,x2,48
80000acc:	fca42e23          	sw	x10,-36(x8)
80000ad0:	fcb42c23          	sw	x11,-40(x8)
80000ad4:	fe042623          	sw	x0,-20(x8)
80000ad8:	0280006f          	jal	x0,80000b00 <uart_puts+0x44>
80000adc:	fec42783          	lw	x15,-20(x8)
80000ae0:	fdc42703          	lw	x14,-36(x8)
80000ae4:	00f707b3          	add	x15,x14,x15
80000ae8:	0007c783          	lbu	x15,0(x15)
80000aec:	00078513          	addi	x10,x15,0
80000af0:	038000ef          	jal	x1,80000b28 <uart_putc>
80000af4:	fec42783          	lw	x15,-20(x8)
80000af8:	00178793          	addi	x15,x15,1
80000afc:	fef42623          	sw	x15,-20(x8)
80000b00:	fec42703          	lw	x14,-20(x8)
80000b04:	fd842783          	lw	x15,-40(x8)
80000b08:	fcf74ae3          	blt	x14,x15,80000adc <uart_puts+0x20>
80000b0c:	00a00513          	addi	x10,x0,10
80000b10:	018000ef          	jal	x1,80000b28 <uart_putc>
80000b14:	00000013          	addi	x0,x0,0
80000b18:	02c12083          	lw	x1,44(x2)
80000b1c:	02812403          	lw	x8,40(x2)
80000b20:	03010113          	addi	x2,x2,48
80000b24:	00008067          	jalr	x0,0(x1)

80000b28 <uart_putc>:
80000b28:	fe010113          	addi	x2,x2,-32
80000b2c:	00112e23          	sw	x1,28(x2)
80000b30:	00812c23          	sw	x8,24(x2)
80000b34:	02010413          	addi	x8,x2,32
80000b38:	00050793          	addi	x15,x10,0
80000b3c:	fef407a3          	sb	x15,-17(x8)
80000b40:	fef44703          	lbu	x14,-17(x8)
80000b44:	00d00793          	addi	x15,x0,13
80000b48:	00f70c63          	beq	x14,x15,80000b60 <uart_putc+0x38>
80000b4c:	fef44783          	lbu	x15,-17(x8)
80000b50:	00078863          	beq	x15,x0,80000b60 <uart_putc+0x38>
80000b54:	fef44703          	lbu	x14,-17(x8)
80000b58:	00a00793          	addi	x15,x0,10
80000b5c:	00f71a63          	bne	x14,x15,80000b70 <uart_putc+0x48>
80000b60:	100007b7          	lui	x15,0x10000
80000b64:	00a00713          	addi	x14,x0,10
80000b68:	00e78023          	sb	x14,0(x15) # 10000000 <_start-0x70000000>
80000b6c:	0140006f          	jal	x0,80000b80 <uart_putc+0x58>
80000b70:	100007b7          	lui	x15,0x10000
80000b74:	fef44703          	lbu	x14,-17(x8)
80000b78:	00e78023          	sb	x14,0(x15) # 10000000 <_start-0x70000000>
80000b7c:	00000013          	addi	x0,x0,0
80000b80:	00000013          	addi	x0,x0,0
80000b84:	01c12083          	lw	x1,28(x2)
80000b88:	01812403          	lw	x8,24(x2)
80000b8c:	02010113          	addi	x2,x2,32
80000b90:	00008067          	jalr	x0,0(x1)

80000b94 <uart_getc>:
80000b94:	ff010113          	addi	x2,x2,-16
80000b98:	00112623          	sw	x1,12(x2)
80000b9c:	00812423          	sw	x8,8(x2)
80000ba0:	01010413          	addi	x8,x2,16
80000ba4:	100007b7          	lui	x15,0x10000
80000ba8:	0007c783          	lbu	x15,0(x15) # 10000000 <_start-0x70000000>
80000bac:	0ff7f793          	andi	x15,x15,255
80000bb0:	00078513          	addi	x10,x15,0
80000bb4:	00c12083          	lw	x1,12(x2)
80000bb8:	00812403          	lw	x8,8(x2)
80000bbc:	01010113          	addi	x2,x2,16
80000bc0:	00008067          	jalr	x0,0(x1)

80000bc4 <__addsf3>:
80000bc4:	ff010113          	addi	x2,x2,-16
80000bc8:	00800737          	lui	x14,0x800
80000bcc:	fff70713          	addi	x14,x14,-1 # 7fffff <_start-0x7f800001>
80000bd0:	0175d613          	srli	x12,x11,0x17
80000bd4:	00812423          	sw	x8,8(x2)
80000bd8:	01755413          	srli	x8,x10,0x17
80000bdc:	00a777b3          	and	x15,x14,x10
80000be0:	00912223          	sw	x9,4(x2)
80000be4:	00b77733          	and	x14,x14,x11
80000be8:	0ff47413          	andi	x8,x8,255
80000bec:	0ff67613          	andi	x12,x12,255
80000bf0:	00112623          	sw	x1,12(x2)
80000bf4:	01212023          	sw	x18,0(x2)
80000bf8:	01f55493          	srli	x9,x10,0x1f
80000bfc:	01f5d593          	srli	x11,x11,0x1f
80000c00:	00379793          	slli	x15,x15,0x3
80000c04:	00371713          	slli	x14,x14,0x3
80000c08:	40c406b3          	sub	x13,x8,x12
80000c0c:	1cb49c63          	bne	x9,x11,80000de4 <__addsf3+0x220>
80000c10:	08d05e63          	bge	x0,x13,80000cac <__addsf3+0xe8>
80000c14:	0ff00593          	addi	x11,x0,255
80000c18:	02061663          	bne	x12,x0,80000c44 <__addsf3+0x80>
80000c1c:	00070e63          	beq	x14,x0,80000c38 <__addsf3+0x74>
80000c20:	fff68613          	addi	x12,x13,-1
80000c24:	00061863          	bne	x12,x0,80000c34 <__addsf3+0x70>
80000c28:	00e787b3          	add	x15,x15,x14
80000c2c:	00100413          	addi	x8,x0,1
80000c30:	04c0006f          	jal	x0,80000c7c <__addsf3+0xb8>
80000c34:	02b69063          	bne	x13,x11,80000c54 <__addsf3+0x90>
80000c38:	00068413          	addi	x8,x13,0
80000c3c:	00078713          	addi	x14,x15,0
80000c40:	2c00006f          	jal	x0,80000f00 <__addsf3+0x33c>
80000c44:	feb40ce3          	beq	x8,x11,80000c3c <__addsf3+0x78>
80000c48:	04000637          	lui	x12,0x4000
80000c4c:	00c76733          	or	x14,x14,x12
80000c50:	00068613          	addi	x12,x13,0
80000c54:	01b00593          	addi	x11,x0,27
80000c58:	00100693          	addi	x13,x0,1
80000c5c:	00c5ce63          	blt	x11,x12,80000c78 <__addsf3+0xb4>
80000c60:	02000693          	addi	x13,x0,32
80000c64:	40c686b3          	sub	x13,x13,x12
80000c68:	00c755b3          	srl	x11,x14,x12
80000c6c:	00d71733          	sll	x14,x14,x13
80000c70:	00e03733          	sltu	x14,x0,x14
80000c74:	00e5e6b3          	or	x13,x11,x14
80000c78:	00d787b3          	add	x15,x15,x13
80000c7c:	00579713          	slli	x14,x15,0x5
80000c80:	12075263          	bge	x14,x0,80000da4 <__addsf3+0x1e0>
80000c84:	00140413          	addi	x8,x8,1
80000c88:	0ff00713          	addi	x14,x0,255
80000c8c:	34e40e63          	beq	x8,x14,80000fe8 <__addsf3+0x424>
80000c90:	7e0006b7          	lui	x13,0x7e000
80000c94:	0017d713          	srli	x14,x15,0x1
80000c98:	fff68693          	addi	x13,x13,-1 # 7dffffff <_start-0x2000001>
80000c9c:	00d77733          	and	x14,x14,x13
80000ca0:	0017f793          	andi	x15,x15,1
80000ca4:	00f767b3          	or	x15,x14,x15
80000ca8:	0fc0006f          	jal	x0,80000da4 <__addsf3+0x1e0>
80000cac:	06068463          	beq	x13,x0,80000d14 <__addsf3+0x150>
80000cb0:	408606b3          	sub	x13,x12,x8
80000cb4:	0ff00513          	addi	x10,x0,255
80000cb8:	00041e63          	bne	x8,x0,80000cd4 <__addsf3+0x110>
80000cbc:	32078063          	beq	x15,x0,80000fdc <__addsf3+0x418>
80000cc0:	fff68593          	addi	x11,x13,-1
80000cc4:	f60582e3          	beq	x11,x0,80000c28 <__addsf3+0x64>
80000cc8:	00a69e63          	bne	x13,x10,80000ce4 <__addsf3+0x120>
80000ccc:	0ff00413          	addi	x8,x0,255
80000cd0:	2300006f          	jal	x0,80000f00 <__addsf3+0x33c>
80000cd4:	fea60ce3          	beq	x12,x10,80000ccc <__addsf3+0x108>
80000cd8:	040005b7          	lui	x11,0x4000
80000cdc:	00b7e7b3          	or	x15,x15,x11
80000ce0:	00068593          	addi	x11,x13,0
80000ce4:	01b00513          	addi	x10,x0,27
80000ce8:	00100693          	addi	x13,x0,1
80000cec:	00b54e63          	blt	x10,x11,80000d08 <__addsf3+0x144>
80000cf0:	02000693          	addi	x13,x0,32
80000cf4:	40b686b3          	sub	x13,x13,x11
80000cf8:	00b7d533          	srl	x10,x15,x11
80000cfc:	00d797b3          	sll	x15,x15,x13
80000d00:	00f037b3          	sltu	x15,x0,x15
80000d04:	00f566b3          	or	x13,x10,x15
80000d08:	00e687b3          	add	x15,x13,x14
80000d0c:	00060413          	addi	x8,x12,0 # 4000000 <_start-0x7c000000>
80000d10:	f6dff06f          	jal	x0,80000c7c <__addsf3+0xb8>
80000d14:	00140693          	addi	x13,x8,1
80000d18:	0fe6f613          	andi	x12,x13,254
80000d1c:	06061a63          	bne	x12,x0,80000d90 <__addsf3+0x1cc>
80000d20:	06041063          	bne	x8,x0,80000d80 <__addsf3+0x1bc>
80000d24:	2a078663          	beq	x15,x0,80000fd0 <__addsf3+0x40c>
80000d28:	08070a63          	beq	x14,x0,80000dbc <__addsf3+0x1f8>
80000d2c:	00f70733          	add	x14,x14,x15
80000d30:	00571793          	slli	x15,x14,0x5
80000d34:	1c07d663          	bge	x15,x0,80000f00 <__addsf3+0x33c>
80000d38:	1f8007b7          	lui	x15,0x1f800
80000d3c:	00375713          	srli	x14,x14,0x3
80000d40:	fff78793          	addi	x15,x15,-1 # 1f7fffff <_start-0x60800001>
80000d44:	00f777b3          	and	x15,x14,x15
80000d48:	00100413          	addi	x8,x0,1
80000d4c:	0ff47413          	andi	x8,x8,255
80000d50:	00979793          	slli	x15,x15,0x9
80000d54:	01741413          	slli	x8,x8,0x17
80000d58:	0097d793          	srli	x15,x15,0x9
80000d5c:	00f46433          	or	x8,x8,x15
80000d60:	01f49513          	slli	x10,x9,0x1f
80000d64:	00c12083          	lw	x1,12(x2)
80000d68:	00a46533          	or	x10,x8,x10
80000d6c:	00812403          	lw	x8,8(x2)
80000d70:	00412483          	lw	x9,4(x2)
80000d74:	00012903          	lw	x18,0(x2)
80000d78:	01010113          	addi	x2,x2,16
80000d7c:	00008067          	jalr	x0,0(x1)
80000d80:	f40786e3          	beq	x15,x0,80000ccc <__addsf3+0x108>
80000d84:	1c071863          	bne	x14,x0,80000f54 <__addsf3+0x390>
80000d88:	00078713          	addi	x14,x15,0
80000d8c:	f41ff06f          	jal	x0,80000ccc <__addsf3+0x108>
80000d90:	0ff00613          	addi	x12,x0,255
80000d94:	24c68863          	beq	x13,x12,80000fe4 <__addsf3+0x420>
80000d98:	00e78733          	add	x14,x15,x14
80000d9c:	00175793          	srli	x15,x14,0x1
80000da0:	00068413          	addi	x8,x13,0
80000da4:	0077f713          	andi	x14,x15,7
80000da8:	00070a63          	beq	x14,x0,80000dbc <__addsf3+0x1f8>
80000dac:	00f7f713          	andi	x14,x15,15
80000db0:	00400693          	addi	x13,x0,4
80000db4:	00d70463          	beq	x14,x13,80000dbc <__addsf3+0x1f8>
80000db8:	00d787b3          	add	x15,x15,x13
80000dbc:	00579713          	slli	x14,x15,0x5
80000dc0:	e6075ee3          	bge	x14,x0,80000c3c <__addsf3+0x78>
80000dc4:	00140413          	addi	x8,x8,1
80000dc8:	0ff00713          	addi	x14,x0,255
80000dcc:	20e40e63          	beq	x8,x14,80000fe8 <__addsf3+0x424>
80000dd0:	1f800737          	lui	x14,0x1f800
80000dd4:	0037d793          	srli	x15,x15,0x3
80000dd8:	fff70713          	addi	x14,x14,-1 # 1f7fffff <_start-0x60800001>
80000ddc:	00e7f7b3          	and	x15,x15,x14
80000de0:	f6dff06f          	jal	x0,80000d4c <__addsf3+0x188>
80000de4:	08d05063          	bge	x0,x13,80000e64 <__addsf3+0x2a0>
80000de8:	06061263          	bne	x12,x0,80000e4c <__addsf3+0x288>
80000dec:	e40706e3          	beq	x14,x0,80000c38 <__addsf3+0x74>
80000df0:	fff68613          	addi	x12,x13,-1
80000df4:	00061863          	bne	x12,x0,80000e04 <__addsf3+0x240>
80000df8:	40e787b3          	sub	x15,x15,x14
80000dfc:	00100413          	addi	x8,x0,1
80000e00:	0340006f          	jal	x0,80000e34 <__addsf3+0x270>
80000e04:	0ff00593          	addi	x11,x0,255
80000e08:	e2b688e3          	beq	x13,x11,80000c38 <__addsf3+0x74>
80000e0c:	01b00593          	addi	x11,x0,27
80000e10:	00100693          	addi	x13,x0,1
80000e14:	00c5ce63          	blt	x11,x12,80000e30 <__addsf3+0x26c>
80000e18:	02000693          	addi	x13,x0,32
80000e1c:	40c686b3          	sub	x13,x13,x12
80000e20:	00c755b3          	srl	x11,x14,x12
80000e24:	00d71733          	sll	x14,x14,x13
80000e28:	00e03733          	sltu	x14,x0,x14
80000e2c:	00e5e6b3          	or	x13,x11,x14
80000e30:	40d787b3          	sub	x15,x15,x13
80000e34:	00579713          	slli	x14,x15,0x5
80000e38:	f60756e3          	bge	x14,x0,80000da4 <__addsf3+0x1e0>
80000e3c:	04000937          	lui	x18,0x4000
80000e40:	fff90913          	addi	x18,x18,-1 # 3ffffff <_start-0x7c000001>
80000e44:	0127f933          	and	x18,x15,x18
80000e48:	1300006f          	jal	x0,80000f78 <__addsf3+0x3b4>
80000e4c:	0ff00613          	addi	x12,x0,255
80000e50:	dec406e3          	beq	x8,x12,80000c3c <__addsf3+0x78>
80000e54:	04000637          	lui	x12,0x4000
80000e58:	00c76733          	or	x14,x14,x12
80000e5c:	00068613          	addi	x12,x13,0
80000e60:	fadff06f          	jal	x0,80000e0c <__addsf3+0x248>
80000e64:	06068e63          	beq	x13,x0,80000ee0 <__addsf3+0x31c>
80000e68:	408606b3          	sub	x13,x12,x8
80000e6c:	02041663          	bne	x8,x0,80000e98 <__addsf3+0x2d4>
80000e70:	16078463          	beq	x15,x0,80000fd8 <__addsf3+0x414>
80000e74:	fff68513          	addi	x10,x13,-1
80000e78:	00051863          	bne	x10,x0,80000e88 <__addsf3+0x2c4>
80000e7c:	40f707b3          	sub	x15,x14,x15
80000e80:	00058493          	addi	x9,x11,0 # 4000000 <_start-0x7c000000>
80000e84:	f79ff06f          	jal	x0,80000dfc <__addsf3+0x238>
80000e88:	0ff00813          	addi	x16,x0,255
80000e8c:	03069063          	bne	x13,x16,80000eac <__addsf3+0x2e8>
80000e90:	00058493          	addi	x9,x11,0
80000e94:	e39ff06f          	jal	x0,80000ccc <__addsf3+0x108>
80000e98:	0ff00513          	addi	x10,x0,255
80000e9c:	fea60ae3          	beq	x12,x10,80000e90 <__addsf3+0x2cc>
80000ea0:	04000537          	lui	x10,0x4000
80000ea4:	00a7e7b3          	or	x15,x15,x10
80000ea8:	00068513          	addi	x10,x13,0
80000eac:	01b00813          	addi	x16,x0,27
80000eb0:	00100693          	addi	x13,x0,1
80000eb4:	00a84e63          	blt	x16,x10,80000ed0 <__addsf3+0x30c>
80000eb8:	02000693          	addi	x13,x0,32
80000ebc:	40a686b3          	sub	x13,x13,x10
80000ec0:	00a7d833          	srl	x16,x15,x10
80000ec4:	00d797b3          	sll	x15,x15,x13
80000ec8:	00f037b3          	sltu	x15,x0,x15
80000ecc:	00f866b3          	or	x13,x16,x15
80000ed0:	40d707b3          	sub	x15,x14,x13
80000ed4:	00060413          	addi	x8,x12,0 # 4000000 <_start-0x7c000000>
80000ed8:	00058493          	addi	x9,x11,0
80000edc:	f59ff06f          	jal	x0,80000e34 <__addsf3+0x270>
80000ee0:	00140693          	addi	x13,x8,1
80000ee4:	0fe6f693          	andi	x13,x13,254
80000ee8:	06069e63          	bne	x13,x0,80000f64 <__addsf3+0x3a0>
80000eec:	06041263          	bne	x8,x0,80000f50 <__addsf3+0x38c>
80000ef0:	02079463          	bne	x15,x0,80000f18 <__addsf3+0x354>
80000ef4:	00000493          	addi	x9,x0,0
80000ef8:	e4070ae3          	beq	x14,x0,80000d4c <__addsf3+0x188>
80000efc:	00058493          	addi	x9,x11,0
80000f00:	00375793          	srli	x15,x14,0x3
80000f04:	0ff00713          	addi	x14,x0,255
80000f08:	e4e412e3          	bne	x8,x14,80000d4c <__addsf3+0x188>
80000f0c:	e40780e3          	beq	x15,x0,80000d4c <__addsf3+0x188>
80000f10:	004007b7          	lui	x15,0x400
80000f14:	0340006f          	jal	x0,80000f48 <__addsf3+0x384>
80000f18:	ea0702e3          	beq	x14,x0,80000dbc <__addsf3+0x1f8>
80000f1c:	40e786b3          	sub	x13,x15,x14
80000f20:	00569613          	slli	x12,x13,0x5
80000f24:	00065c63          	bge	x12,x0,80000f3c <__addsf3+0x378>
80000f28:	40f707b3          	sub	x15,x14,x15
80000f2c:	00058493          	addi	x9,x11,0
80000f30:	00000413          	addi	x8,x0,0
80000f34:	e0078ce3          	beq	x15,x0,80000d4c <__addsf3+0x188>
80000f38:	e6dff06f          	jal	x0,80000da4 <__addsf3+0x1e0>
80000f3c:	00068713          	addi	x14,x13,0
80000f40:	fc0690e3          	bne	x13,x0,80000f00 <__addsf3+0x33c>
80000f44:	00000793          	addi	x15,x0,0
80000f48:	00000493          	addi	x9,x0,0
80000f4c:	e01ff06f          	jal	x0,80000d4c <__addsf3+0x188>
80000f50:	e2079ae3          	bne	x15,x0,80000d84 <__addsf3+0x1c0>
80000f54:	00000493          	addi	x9,x0,0
80000f58:	0ff00413          	addi	x8,x0,255
80000f5c:	004007b7          	lui	x15,0x400
80000f60:	dedff06f          	jal	x0,80000d4c <__addsf3+0x188>
80000f64:	40e78933          	sub	x18,x15,x14
80000f68:	00591693          	slli	x13,x18,0x5
80000f6c:	0406d263          	bge	x13,x0,80000fb0 <__addsf3+0x3ec>
80000f70:	40f70933          	sub	x18,x14,x15
80000f74:	00058493          	addi	x9,x11,0
80000f78:	00090513          	addi	x10,x18,0
80000f7c:	14c000ef          	jal	x1,800010c8 <__clzsi2>
80000f80:	ffb50513          	addi	x10,x10,-5 # 3fffffb <_start-0x7c000005>
80000f84:	00a91933          	sll	x18,x18,x10
80000f88:	02854a63          	blt	x10,x8,80000fbc <__addsf3+0x3f8>
80000f8c:	40850533          	sub	x10,x10,x8
80000f90:	00150513          	addi	x10,x10,1
80000f94:	02000713          	addi	x14,x0,32
80000f98:	40a70733          	sub	x14,x14,x10
80000f9c:	00a957b3          	srl	x15,x18,x10
80000fa0:	00e91933          	sll	x18,x18,x14
80000fa4:	01203933          	sltu	x18,x0,x18
80000fa8:	0127e7b3          	or	x15,x15,x18
80000fac:	f85ff06f          	jal	x0,80000f30 <__addsf3+0x36c>
80000fb0:	fc0914e3          	bne	x18,x0,80000f78 <__addsf3+0x3b4>
80000fb4:	00000413          	addi	x8,x0,0
80000fb8:	f8dff06f          	jal	x0,80000f44 <__addsf3+0x380>
80000fbc:	fc0007b7          	lui	x15,0xfc000
80000fc0:	fff78793          	addi	x15,x15,-1 # fbffffff <_stack_top+0x73ffffff>
80000fc4:	40a40433          	sub	x8,x8,x10
80000fc8:	00f977b3          	and	x15,x18,x15
80000fcc:	dd9ff06f          	jal	x0,80000da4 <__addsf3+0x1e0>
80000fd0:	00070793          	addi	x15,x14,0
80000fd4:	f5dff06f          	jal	x0,80000f30 <__addsf3+0x36c>
80000fd8:	00058493          	addi	x9,x11,0
80000fdc:	00068413          	addi	x8,x13,0
80000fe0:	f21ff06f          	jal	x0,80000f00 <__addsf3+0x33c>
80000fe4:	00068413          	addi	x8,x13,0
80000fe8:	00000793          	addi	x15,x0,0
80000fec:	d61ff06f          	jal	x0,80000d4c <__addsf3+0x188>

80000ff0 <__extendsfdf2>:
80000ff0:	01755713          	srli	x14,x10,0x17
80000ff4:	0ff77713          	andi	x14,x14,255
80000ff8:	ff010113          	addi	x2,x2,-16
80000ffc:	00170793          	addi	x15,x14,1
80001000:	00812423          	sw	x8,8(x2)
80001004:	00912223          	sw	x9,4(x2)
80001008:	00951413          	slli	x8,x10,0x9
8000100c:	00112623          	sw	x1,12(x2)
80001010:	0fe7f793          	andi	x15,x15,254
80001014:	00945413          	srli	x8,x8,0x9
80001018:	01f55493          	srli	x9,x10,0x1f
8000101c:	04078263          	beq	x15,x0,80001060 <__extendsfdf2+0x70>
80001020:	00345793          	srli	x15,x8,0x3
80001024:	38070713          	addi	x14,x14,896
80001028:	01d41413          	slli	x8,x8,0x1d
8000102c:	00c79793          	slli	x15,x15,0xc
80001030:	00c7d793          	srli	x15,x15,0xc
80001034:	01471713          	slli	x14,x14,0x14
80001038:	01f49513          	slli	x10,x9,0x1f
8000103c:	00f76733          	or	x14,x14,x15
80001040:	00c12083          	lw	x1,12(x2)
80001044:	00a767b3          	or	x15,x14,x10
80001048:	00040513          	addi	x10,x8,0
8000104c:	00812403          	lw	x8,8(x2)
80001050:	00412483          	lw	x9,4(x2)
80001054:	00078593          	addi	x11,x15,0
80001058:	01010113          	addi	x2,x2,16
8000105c:	00008067          	jalr	x0,0(x1)
80001060:	04071463          	bne	x14,x0,800010a8 <__extendsfdf2+0xb8>
80001064:	fc0404e3          	beq	x8,x0,8000102c <__extendsfdf2+0x3c>
80001068:	00040513          	addi	x10,x8,0
8000106c:	05c000ef          	jal	x1,800010c8 <__clzsi2>
80001070:	00a00793          	addi	x15,x0,10
80001074:	02a7c263          	blt	x15,x10,80001098 <__extendsfdf2+0xa8>
80001078:	00b00793          	addi	x15,x0,11
8000107c:	40a787b3          	sub	x15,x15,x10
80001080:	01550713          	addi	x14,x10,21
80001084:	00f457b3          	srl	x15,x8,x15
80001088:	00e41433          	sll	x8,x8,x14
8000108c:	38900713          	addi	x14,x0,905
80001090:	40a70733          	sub	x14,x14,x10
80001094:	f99ff06f          	jal	x0,8000102c <__extendsfdf2+0x3c>
80001098:	ff550793          	addi	x15,x10,-11
8000109c:	00f417b3          	sll	x15,x8,x15
800010a0:	00000413          	addi	x8,x0,0
800010a4:	fe9ff06f          	jal	x0,8000108c <__extendsfdf2+0x9c>
800010a8:	00000793          	addi	x15,x0,0
800010ac:	00040a63          	beq	x8,x0,800010c0 <__extendsfdf2+0xd0>
800010b0:	00345793          	srli	x15,x8,0x3
800010b4:	00080737          	lui	x14,0x80
800010b8:	01d41413          	slli	x8,x8,0x1d
800010bc:	00e7e7b3          	or	x15,x15,x14
800010c0:	7ff00713          	addi	x14,x0,2047
800010c4:	f69ff06f          	jal	x0,8000102c <__extendsfdf2+0x3c>

800010c8 <__clzsi2>:
800010c8:	000107b7          	lui	x15,0x10
800010cc:	02f57a63          	bgeu	x10,x15,80001100 <__clzsi2+0x38>
800010d0:	10053793          	sltiu	x15,x10,256
800010d4:	0017b793          	sltiu	x15,x15,1
800010d8:	00379793          	slli	x15,x15,0x3
800010dc:	80011737          	lui	x14,0x80011
800010e0:	00f55533          	srl	x10,x10,x15
800010e4:	42c70713          	addi	x14,x14,1068 # 8001142c <__clz_tab>
800010e8:	00a70733          	add	x14,x14,x10
800010ec:	00074503          	lbu	x10,0(x14)
800010f0:	02000693          	addi	x13,x0,32
800010f4:	40f686b3          	sub	x13,x13,x15
800010f8:	40a68533          	sub	x10,x13,x10
800010fc:	00008067          	jalr	x0,0(x1)
80001100:	01000737          	lui	x14,0x1000
80001104:	01800793          	addi	x15,x0,24
80001108:	fce57ae3          	bgeu	x10,x14,800010dc <__clzsi2+0x14>
8000110c:	01000793          	addi	x15,x0,16
80001110:	fcdff06f          	jal	x0,800010dc <__clzsi2+0x14>

80001114 <malloc>:
80001114:	00050593          	addi	x11,x10,0
80001118:	6ac1a503          	lw	x10,1708(x3) # 8001237c <_impure_ptr>
8000111c:	0100006f          	jal	x0,8000112c <_malloc_r>

80001120 <free>:
80001120:	00050593          	addi	x11,x10,0
80001124:	6ac1a503          	lw	x10,1708(x3) # 8001237c <_impure_ptr>
80001128:	6610006f          	jal	x0,80001f88 <_free_r>

8000112c <_malloc_r>:
8000112c:	fc010113          	addi	x2,x2,-64
80001130:	02812c23          	sw	x8,56(x2)
80001134:	02112e23          	sw	x1,60(x2)
80001138:	00b58793          	addi	x15,x11,11
8000113c:	01600713          	addi	x14,x0,22
80001140:	00050413          	addi	x8,x10,0
80001144:	08f76c63          	bltu	x14,x15,800011dc <_malloc_r+0xb0>
80001148:	01000693          	addi	x13,x0,16
8000114c:	06b6ea63          	bltu	x13,x11,800011c0 <_malloc_r+0x94>
80001150:	055000ef          	jal	x1,800019a4 <__malloc_lock>
80001154:	01000693          	addi	x13,x0,16
80001158:	01800713          	addi	x14,x0,24
8000115c:	00200893          	addi	x17,x0,2
80001160:	00018813          	addi	x16,x3,0 # 80011cd0 <__malloc_av_>
80001164:	00e80733          	add	x14,x16,x14
80001168:	00472783          	lw	x15,4(x14) # 1000004 <_start-0x7efffffc>
8000116c:	ff870613          	addi	x12,x14,-8
80001170:	44c78e63          	beq	x15,x12,800015cc <_malloc_r+0x4a0>
80001174:	0047a703          	lw	x14,4(x15) # 10004 <_start-0x7ffefffc>
80001178:	00c7a603          	lw	x12,12(x15)
8000117c:	0087a583          	lw	x11,8(x15)
80001180:	ffc77713          	andi	x14,x14,-4
80001184:	00e78733          	add	x14,x15,x14
80001188:	00472683          	lw	x13,4(x14)
8000118c:	00c5a623          	sw	x12,12(x11)
80001190:	00f12623          	sw	x15,12(x2)
80001194:	00b62423          	sw	x11,8(x12)
80001198:	0016e693          	ori	x13,x13,1
8000119c:	00040513          	addi	x10,x8,0
800011a0:	00d72223          	sw	x13,4(x14)
800011a4:	005000ef          	jal	x1,800019a8 <__malloc_unlock>
800011a8:	00c12783          	lw	x15,12(x2)
800011ac:	03c12083          	lw	x1,60(x2)
800011b0:	03812403          	lw	x8,56(x2)
800011b4:	00878513          	addi	x10,x15,8
800011b8:	04010113          	addi	x2,x2,64
800011bc:	00008067          	jalr	x0,0(x1)
800011c0:	00c00793          	addi	x15,x0,12
800011c4:	00f42023          	sw	x15,0(x8)
800011c8:	00000513          	addi	x10,x0,0
800011cc:	03c12083          	lw	x1,60(x2)
800011d0:	03812403          	lw	x8,56(x2)
800011d4:	04010113          	addi	x2,x2,64
800011d8:	00008067          	jalr	x0,0(x1)
800011dc:	ff87f693          	andi	x13,x15,-8
800011e0:	fe07c0e3          	blt	x15,x0,800011c0 <_malloc_r+0x94>
800011e4:	fcb6eee3          	bltu	x13,x11,800011c0 <_malloc_r+0x94>
800011e8:	00d12623          	sw	x13,12(x2)
800011ec:	7b8000ef          	jal	x1,800019a4 <__malloc_lock>
800011f0:	00c12683          	lw	x13,12(x2)
800011f4:	1f700793          	addi	x15,x0,503
800011f8:	4cd7f863          	bgeu	x15,x13,800016c8 <_malloc_r+0x59c>
800011fc:	0096d793          	srli	x15,x13,0x9
80001200:	16078a63          	beq	x15,x0,80001374 <_malloc_r+0x248>
80001204:	00400713          	addi	x14,x0,4
80001208:	42f76a63          	bltu	x14,x15,8000163c <_malloc_r+0x510>
8000120c:	0066d793          	srli	x15,x13,0x6
80001210:	03978893          	addi	x17,x15,57
80001214:	03878e13          	addi	x28,x15,56
80001218:	00389513          	slli	x10,x17,0x3
8000121c:	00018813          	addi	x16,x3,0 # 80011cd0 <__malloc_av_>
80001220:	00a80533          	add	x10,x16,x10
80001224:	00452783          	lw	x15,4(x10)
80001228:	ff850513          	addi	x10,x10,-8
8000122c:	02f50863          	beq	x10,x15,8000125c <_malloc_r+0x130>
80001230:	00f00313          	addi	x6,x0,15
80001234:	0140006f          	jal	x0,80001248 <_malloc_r+0x11c>
80001238:	00c7a583          	lw	x11,12(x15)
8000123c:	34065863          	bge	x12,x0,8000158c <_malloc_r+0x460>
80001240:	00b50e63          	beq	x10,x11,8000125c <_malloc_r+0x130>
80001244:	00058793          	addi	x15,x11,0
80001248:	0047a703          	lw	x14,4(x15)
8000124c:	ffc77713          	andi	x14,x14,-4
80001250:	40d70633          	sub	x12,x14,x13
80001254:	fec352e3          	bge	x6,x12,80001238 <_malloc_r+0x10c>
80001258:	000e0893          	addi	x17,x28,0
8000125c:	01082783          	lw	x15,16(x16)
80001260:	00818e13          	addi	x28,x3,8 # 80011cd8 <__malloc_av_+0x8>
80001264:	2fc78263          	beq	x15,x28,80001548 <_malloc_r+0x41c>
80001268:	0047a703          	lw	x14,4(x15)
8000126c:	00f00593          	addi	x11,x0,15
80001270:	ffc77713          	andi	x14,x14,-4
80001274:	40d70633          	sub	x12,x14,x13
80001278:	48c5c263          	blt	x11,x12,800016fc <_malloc_r+0x5d0>
8000127c:	01c82a23          	sw	x28,20(x16)
80001280:	01c82823          	sw	x28,16(x16)
80001284:	44065863          	bge	x12,x0,800016d4 <_malloc_r+0x5a8>
80001288:	1ff00613          	addi	x12,x0,511
8000128c:	00482303          	lw	x6,4(x16)
80001290:	34e66663          	bltu	x12,x14,800015dc <_malloc_r+0x4b0>
80001294:	ff877613          	andi	x12,x14,-8
80001298:	00860613          	addi	x12,x12,8
8000129c:	00c80633          	add	x12,x16,x12
800012a0:	00062583          	lw	x11,0(x12)
800012a4:	00575513          	srli	x10,x14,0x5
800012a8:	00100713          	addi	x14,x0,1
800012ac:	00a71733          	sll	x14,x14,x10
800012b0:	00e36333          	or	x6,x6,x14
800012b4:	ff860713          	addi	x14,x12,-8
800012b8:	00b7a423          	sw	x11,8(x15)
800012bc:	00e7a623          	sw	x14,12(x15)
800012c0:	00682223          	sw	x6,4(x16)
800012c4:	00f62023          	sw	x15,0(x12)
800012c8:	00f5a623          	sw	x15,12(x11)
800012cc:	4028d793          	srai	x15,x17,0x2
800012d0:	00100513          	addi	x10,x0,1
800012d4:	00f51533          	sll	x10,x10,x15
800012d8:	0aa36663          	bltu	x6,x10,80001384 <_malloc_r+0x258>
800012dc:	006577b3          	and	x15,x10,x6
800012e0:	02079463          	bne	x15,x0,80001308 <_malloc_r+0x1dc>
800012e4:	00151513          	slli	x10,x10,0x1
800012e8:	ffc8f893          	andi	x17,x17,-4
800012ec:	006577b3          	and	x15,x10,x6
800012f0:	00488893          	addi	x17,x17,4
800012f4:	00079a63          	bne	x15,x0,80001308 <_malloc_r+0x1dc>
800012f8:	00151513          	slli	x10,x10,0x1
800012fc:	006577b3          	and	x15,x10,x6
80001300:	00488893          	addi	x17,x17,4
80001304:	fe078ae3          	beq	x15,x0,800012f8 <_malloc_r+0x1cc>
80001308:	00f00e93          	addi	x29,x0,15
8000130c:	00389f13          	slli	x30,x17,0x3
80001310:	01e80f33          	add	x30,x16,x30
80001314:	000f0313          	addi	x6,x30,0
80001318:	00c32703          	lw	x14,12(x6)
8000131c:	00088f93          	addi	x31,x17,0
80001320:	34e30063          	beq	x6,x14,80001660 <_malloc_r+0x534>
80001324:	00472603          	lw	x12,4(x14)
80001328:	00070793          	addi	x15,x14,0
8000132c:	00c72703          	lw	x14,12(x14)
80001330:	ffc67613          	andi	x12,x12,-4
80001334:	40d605b3          	sub	x11,x12,x13
80001338:	34bec063          	blt	x29,x11,80001678 <_malloc_r+0x54c>
8000133c:	fe05c2e3          	blt	x11,x0,80001320 <_malloc_r+0x1f4>
80001340:	00c78633          	add	x12,x15,x12
80001344:	00462683          	lw	x13,4(x12)
80001348:	0087a583          	lw	x11,8(x15)
8000134c:	00040513          	addi	x10,x8,0
80001350:	0016e693          	ori	x13,x13,1
80001354:	00d62223          	sw	x13,4(x12)
80001358:	00e5a623          	sw	x14,12(x11)
8000135c:	00b72423          	sw	x11,8(x14)
80001360:	00f12623          	sw	x15,12(x2)
80001364:	644000ef          	jal	x1,800019a8 <__malloc_unlock>
80001368:	00c12783          	lw	x15,12(x2)
8000136c:	00878513          	addi	x10,x15,8
80001370:	e5dff06f          	jal	x0,800011cc <_malloc_r+0xa0>
80001374:	20000513          	addi	x10,x0,512
80001378:	04000893          	addi	x17,x0,64
8000137c:	03f00e13          	addi	x28,x0,63
80001380:	e9dff06f          	jal	x0,8000121c <_malloc_r+0xf0>
80001384:	00882783          	lw	x15,8(x16)
80001388:	0047a703          	lw	x14,4(x15)
8000138c:	ffc77713          	andi	x14,x14,-4
80001390:	40d70633          	sub	x12,x14,x13
80001394:	00d76663          	bltu	x14,x13,800013a0 <_malloc_r+0x274>
80001398:	01062593          	slti	x11,x12,16
8000139c:	1a058a63          	beq	x11,x0,80001550 <_malloc_r+0x424>
800013a0:	80012637          	lui	x12,0x80012
800013a4:	4e862583          	lw	x11,1256(x12) # 800124e8 <__malloc_top_pad>
800013a8:	6a41a503          	lw	x10,1700(x3) # 80012374 <__malloc_sbrk_base>
800013ac:	fff00613          	addi	x12,x0,-1
800013b0:	00b685b3          	add	x11,x13,x11
800013b4:	42c50863          	beq	x10,x12,800017e4 <_malloc_r+0x6b8>
800013b8:	00001637          	lui	x12,0x1
800013bc:	00f60613          	addi	x12,x12,15 # 100f <_start-0x7fffeff1>
800013c0:	00c585b3          	add	x11,x11,x12
800013c4:	fffff637          	lui	x12,0xfffff
800013c8:	00c5f5b3          	and	x11,x11,x12
800013cc:	00040513          	addi	x10,x8,0
800013d0:	01012e23          	sw	x16,28(x2)
800013d4:	00f12c23          	sw	x15,24(x2)
800013d8:	00d12a23          	sw	x13,20(x2)
800013dc:	00e12823          	sw	x14,16(x2)
800013e0:	00b12623          	sw	x11,12(x2)
800013e4:	131000ef          	jal	x1,80001d14 <_sbrk_r>
800013e8:	fff00613          	addi	x12,x0,-1
800013ec:	00c12583          	lw	x11,12(x2)
800013f0:	01012703          	lw	x14,16(x2)
800013f4:	01412683          	lw	x13,20(x2)
800013f8:	01812783          	lw	x15,24(x2)
800013fc:	01c12803          	lw	x16,28(x2)
80001400:	00050893          	addi	x17,x10,0
80001404:	34c50a63          	beq	x10,x12,80001758 <_malloc_r+0x62c>
80001408:	00e78533          	add	x10,x15,x14
8000140c:	34a8e463          	bltu	x17,x10,80001754 <_malloc_r+0x628>
80001410:	6b018e13          	addi	x28,x3,1712 # 80012380 <__malloc_current_mallinfo>
80001414:	000e2603          	lw	x12,0(x28)
80001418:	00c58633          	add	x12,x11,x12
8000141c:	00ce2023          	sw	x12,0(x28)
80001420:	00060e93          	addi	x29,x12,0 # fffff000 <_stack_top+0x77fff000>
80001424:	49150a63          	beq	x10,x17,800018b8 <_malloc_r+0x78c>
80001428:	6a41af03          	lw	x30,1700(x3) # 80012374 <__malloc_sbrk_base>
8000142c:	fff00613          	addi	x12,x0,-1
80001430:	4acf0263          	beq	x30,x12,800018d4 <_malloc_r+0x7a8>
80001434:	40a88633          	sub	x12,x17,x10
80001438:	01d60633          	add	x12,x12,x29
8000143c:	00ce2023          	sw	x12,0(x28)
80001440:	0078fe93          	andi	x29,x17,7
80001444:	3c0e8063          	beq	x29,x0,80001804 <_malloc_r+0x6d8>
80001448:	ff88f893          	andi	x17,x17,-8
8000144c:	00001637          	lui	x12,0x1
80001450:	00888893          	addi	x17,x17,8
80001454:	00860613          	addi	x12,x12,8 # 1008 <_start-0x7fffeff8>
80001458:	00b88333          	add	x6,x17,x11
8000145c:	41d60633          	sub	x12,x12,x29
80001460:	40660633          	sub	x12,x12,x6
80001464:	01461613          	slli	x12,x12,0x14
80001468:	01465593          	srli	x11,x12,0x14
8000146c:	00040513          	addi	x10,x8,0
80001470:	03012623          	sw	x16,44(x2)
80001474:	03c12423          	sw	x28,40(x2)
80001478:	02f12223          	sw	x15,36(x2)
8000147c:	02d12023          	sw	x13,32(x2)
80001480:	00e12e23          	sw	x14,28(x2)
80001484:	01112c23          	sw	x17,24(x2)
80001488:	01d12a23          	sw	x29,20(x2)
8000148c:	00612823          	sw	x6,16(x2)
80001490:	00b12623          	sw	x11,12(x2)
80001494:	081000ef          	jal	x1,80001d14 <_sbrk_r>
80001498:	fff00613          	addi	x12,x0,-1
8000149c:	00c12583          	lw	x11,12(x2)
800014a0:	01012303          	lw	x6,16(x2)
800014a4:	01412e83          	lw	x29,20(x2)
800014a8:	01812883          	lw	x17,24(x2)
800014ac:	01c12703          	lw	x14,28(x2)
800014b0:	02012683          	lw	x13,32(x2)
800014b4:	02412783          	lw	x15,36(x2)
800014b8:	02812e03          	lw	x28,40(x2)
800014bc:	02c12803          	lw	x16,44(x2)
800014c0:	46c50063          	beq	x10,x12,80001920 <_malloc_r+0x7f4>
800014c4:	000e2603          	lw	x12,0(x28)
800014c8:	41150533          	sub	x10,x10,x17
800014cc:	00b50533          	add	x10,x10,x11
800014d0:	00156513          	ori	x10,x10,1
800014d4:	01182423          	sw	x17,8(x16)
800014d8:	00c58633          	add	x12,x11,x12
800014dc:	00a8a223          	sw	x10,4(x17)
800014e0:	00ce2023          	sw	x12,0(x28)
800014e4:	03078e63          	beq	x15,x16,80001520 <_malloc_r+0x3f4>
800014e8:	00f00513          	addi	x10,x0,15
800014ec:	3ee57863          	bgeu	x10,x14,800018dc <_malloc_r+0x7b0>
800014f0:	0047a583          	lw	x11,4(x15)
800014f4:	ff470713          	addi	x14,x14,-12
800014f8:	ff877713          	andi	x14,x14,-8
800014fc:	0015f593          	andi	x11,x11,1
80001500:	00e5e5b3          	or	x11,x11,x14
80001504:	00b7a223          	sw	x11,4(x15)
80001508:	00500313          	addi	x6,x0,5
8000150c:	00e785b3          	add	x11,x15,x14
80001510:	0065a223          	sw	x6,4(x11)
80001514:	0065a423          	sw	x6,8(x11)
80001518:	40e56c63          	bltu	x10,x14,80001930 <_malloc_r+0x804>
8000151c:	0048a503          	lw	x10,4(x17)
80001520:	800127b7          	lui	x15,0x80012
80001524:	4e47a703          	lw	x14,1252(x15) # 800124e4 <__malloc_max_sbrked_mem>
80001528:	00c77463          	bgeu	x14,x12,80001530 <_malloc_r+0x404>
8000152c:	4ec7a223          	sw	x12,1252(x15)
80001530:	800127b7          	lui	x15,0x80012
80001534:	4e07a703          	lw	x14,1248(x15) # 800124e0 <__malloc_max_total_mem>
80001538:	00c77463          	bgeu	x14,x12,80001540 <_malloc_r+0x414>
8000153c:	4ec7a023          	sw	x12,1248(x15)
80001540:	00088793          	addi	x15,x17,0
80001544:	21c0006f          	jal	x0,80001760 <_malloc_r+0x634>
80001548:	00482303          	lw	x6,4(x16)
8000154c:	d81ff06f          	jal	x0,800012cc <_malloc_r+0x1a0>
80001550:	0016e713          	ori	x14,x13,1
80001554:	00e7a223          	sw	x14,4(x15)
80001558:	00d786b3          	add	x13,x15,x13
8000155c:	00166613          	ori	x12,x12,1
80001560:	00d82423          	sw	x13,8(x16)
80001564:	00040513          	addi	x10,x8,0
80001568:	00c6a223          	sw	x12,4(x13)
8000156c:	00f12623          	sw	x15,12(x2)
80001570:	438000ef          	jal	x1,800019a8 <__malloc_unlock>
80001574:	00c12783          	lw	x15,12(x2)
80001578:	03c12083          	lw	x1,60(x2)
8000157c:	03812403          	lw	x8,56(x2)
80001580:	00878513          	addi	x10,x15,8
80001584:	04010113          	addi	x2,x2,64
80001588:	00008067          	jalr	x0,0(x1)
8000158c:	0087a603          	lw	x12,8(x15)
80001590:	00e78733          	add	x14,x15,x14
80001594:	00472683          	lw	x13,4(x14)
80001598:	00b62623          	sw	x11,12(x12)
8000159c:	00f12623          	sw	x15,12(x2)
800015a0:	0016e693          	ori	x13,x13,1
800015a4:	00c5a423          	sw	x12,8(x11)
800015a8:	00040513          	addi	x10,x8,0
800015ac:	00d72223          	sw	x13,4(x14)
800015b0:	3f8000ef          	jal	x1,800019a8 <__malloc_unlock>
800015b4:	00c12783          	lw	x15,12(x2)
800015b8:	03c12083          	lw	x1,60(x2)
800015bc:	03812403          	lw	x8,56(x2)
800015c0:	00878513          	addi	x10,x15,8
800015c4:	04010113          	addi	x2,x2,64
800015c8:	00008067          	jalr	x0,0(x1)
800015cc:	00c72783          	lw	x15,12(x14)
800015d0:	00288893          	addi	x17,x17,2
800015d4:	c8f704e3          	beq	x14,x15,8000125c <_malloc_r+0x130>
800015d8:	b9dff06f          	jal	x0,80001174 <_malloc_r+0x48>
800015dc:	00975613          	srli	x12,x14,0x9
800015e0:	00400593          	addi	x11,x0,4
800015e4:	14c5fe63          	bgeu	x11,x12,80001740 <_malloc_r+0x614>
800015e8:	01400593          	addi	x11,x0,20
800015ec:	28c5e063          	bltu	x11,x12,8000186c <_malloc_r+0x740>
800015f0:	05c60513          	addi	x10,x12,92
800015f4:	00351513          	slli	x10,x10,0x3
800015f8:	05b60593          	addi	x11,x12,91
800015fc:	00a80533          	add	x10,x16,x10
80001600:	00052603          	lw	x12,0(x10)
80001604:	ff850513          	addi	x10,x10,-8
80001608:	00c51863          	bne	x10,x12,80001618 <_malloc_r+0x4ec>
8000160c:	1e00006f          	jal	x0,800017ec <_malloc_r+0x6c0>
80001610:	00862603          	lw	x12,8(x12)
80001614:	00c50863          	beq	x10,x12,80001624 <_malloc_r+0x4f8>
80001618:	00462583          	lw	x11,4(x12)
8000161c:	ffc5f593          	andi	x11,x11,-4
80001620:	feb768e3          	bltu	x14,x11,80001610 <_malloc_r+0x4e4>
80001624:	00c62503          	lw	x10,12(x12)
80001628:	00a7a623          	sw	x10,12(x15)
8000162c:	00c7a423          	sw	x12,8(x15)
80001630:	00f52423          	sw	x15,8(x10)
80001634:	00f62623          	sw	x15,12(x12)
80001638:	c95ff06f          	jal	x0,800012cc <_malloc_r+0x1a0>
8000163c:	01400713          	addi	x14,x0,20
80001640:	14f77063          	bgeu	x14,x15,80001780 <_malloc_r+0x654>
80001644:	05400713          	addi	x14,x0,84
80001648:	24f76063          	bltu	x14,x15,80001888 <_malloc_r+0x75c>
8000164c:	00c6d793          	srli	x15,x13,0xc
80001650:	06f78893          	addi	x17,x15,111
80001654:	06e78e13          	addi	x28,x15,110
80001658:	00389513          	slli	x10,x17,0x3
8000165c:	bc1ff06f          	jal	x0,8000121c <_malloc_r+0xf0>
80001660:	001f8f93          	addi	x31,x31,1
80001664:	003ff793          	andi	x15,x31,3
80001668:	00830313          	addi	x6,x6,8
8000166c:	12078863          	beq	x15,x0,8000179c <_malloc_r+0x670>
80001670:	00c32703          	lw	x14,12(x6)
80001674:	cadff06f          	jal	x0,80001320 <_malloc_r+0x1f4>
80001678:	0087a503          	lw	x10,8(x15)
8000167c:	0016e893          	ori	x17,x13,1
80001680:	0117a223          	sw	x17,4(x15)
80001684:	00e52623          	sw	x14,12(x10)
80001688:	00a72423          	sw	x10,8(x14)
8000168c:	00d786b3          	add	x13,x15,x13
80001690:	00d82a23          	sw	x13,20(x16)
80001694:	00d82823          	sw	x13,16(x16)
80001698:	0015e713          	ori	x14,x11,1
8000169c:	00c78633          	add	x12,x15,x12
800016a0:	01c6a623          	sw	x28,12(x13)
800016a4:	01c6a423          	sw	x28,8(x13)
800016a8:	00e6a223          	sw	x14,4(x13)
800016ac:	00040513          	addi	x10,x8,0
800016b0:	00b62023          	sw	x11,0(x12)
800016b4:	00f12623          	sw	x15,12(x2)
800016b8:	2f0000ef          	jal	x1,800019a8 <__malloc_unlock>
800016bc:	00c12783          	lw	x15,12(x2)
800016c0:	00878513          	addi	x10,x15,8
800016c4:	b09ff06f          	jal	x0,800011cc <_malloc_r+0xa0>
800016c8:	0036d893          	srli	x17,x13,0x3
800016cc:	00868713          	addi	x14,x13,8
800016d0:	a91ff06f          	jal	x0,80001160 <_malloc_r+0x34>
800016d4:	00e78733          	add	x14,x15,x14
800016d8:	00472683          	lw	x13,4(x14)
800016dc:	00f12623          	sw	x15,12(x2)
800016e0:	00040513          	addi	x10,x8,0
800016e4:	0016e693          	ori	x13,x13,1
800016e8:	00d72223          	sw	x13,4(x14)
800016ec:	2bc000ef          	jal	x1,800019a8 <__malloc_unlock>
800016f0:	00c12783          	lw	x15,12(x2)
800016f4:	00878513          	addi	x10,x15,8
800016f8:	ad5ff06f          	jal	x0,800011cc <_malloc_r+0xa0>
800016fc:	0016e593          	ori	x11,x13,1
80001700:	00b7a223          	sw	x11,4(x15)
80001704:	00d786b3          	add	x13,x15,x13
80001708:	00d82a23          	sw	x13,20(x16)
8000170c:	00d82823          	sw	x13,16(x16)
80001710:	00166593          	ori	x11,x12,1
80001714:	00e78733          	add	x14,x15,x14
80001718:	01c6a623          	sw	x28,12(x13)
8000171c:	01c6a423          	sw	x28,8(x13)
80001720:	00b6a223          	sw	x11,4(x13)
80001724:	00040513          	addi	x10,x8,0
80001728:	00c72023          	sw	x12,0(x14)
8000172c:	00f12623          	sw	x15,12(x2)
80001730:	278000ef          	jal	x1,800019a8 <__malloc_unlock>
80001734:	00c12783          	lw	x15,12(x2)
80001738:	00878513          	addi	x10,x15,8
8000173c:	a91ff06f          	jal	x0,800011cc <_malloc_r+0xa0>
80001740:	00675613          	srli	x12,x14,0x6
80001744:	03960513          	addi	x10,x12,57
80001748:	00351513          	slli	x10,x10,0x3
8000174c:	03860593          	addi	x11,x12,56
80001750:	eadff06f          	jal	x0,800015fc <_malloc_r+0x4d0>
80001754:	15078863          	beq	x15,x16,800018a4 <_malloc_r+0x778>
80001758:	00882783          	lw	x15,8(x16)
8000175c:	0047a503          	lw	x10,4(x15)
80001760:	ffc57513          	andi	x10,x10,-4
80001764:	40d50633          	sub	x12,x10,x13
80001768:	00d56663          	bltu	x10,x13,80001774 <_malloc_r+0x648>
8000176c:	01062713          	slti	x14,x12,16
80001770:	de0700e3          	beq	x14,x0,80001550 <_malloc_r+0x424>
80001774:	00040513          	addi	x10,x8,0
80001778:	230000ef          	jal	x1,800019a8 <__malloc_unlock>
8000177c:	a4dff06f          	jal	x0,800011c8 <_malloc_r+0x9c>
80001780:	05c78893          	addi	x17,x15,92
80001784:	05b78e13          	addi	x28,x15,91
80001788:	00389513          	slli	x10,x17,0x3
8000178c:	a91ff06f          	jal	x0,8000121c <_malloc_r+0xf0>
80001790:	008f2783          	lw	x15,8(x30)
80001794:	fff88893          	addi	x17,x17,-1
80001798:	21e79263          	bne	x15,x30,8000199c <_malloc_r+0x870>
8000179c:	0038f793          	andi	x15,x17,3
800017a0:	ff8f0f13          	addi	x30,x30,-8
800017a4:	fe0796e3          	bne	x15,x0,80001790 <_malloc_r+0x664>
800017a8:	00482703          	lw	x14,4(x16)
800017ac:	fff54793          	xori	x15,x10,-1
800017b0:	00e7f7b3          	and	x15,x15,x14
800017b4:	00f82223          	sw	x15,4(x16)
800017b8:	00151513          	slli	x10,x10,0x1
800017bc:	fff50713          	addi	x14,x10,-1
800017c0:	bcf772e3          	bgeu	x14,x15,80001384 <_malloc_r+0x258>
800017c4:	00f57733          	and	x14,x10,x15
800017c8:	00071a63          	bne	x14,x0,800017dc <_malloc_r+0x6b0>
800017cc:	00151513          	slli	x10,x10,0x1
800017d0:	00f57733          	and	x14,x10,x15
800017d4:	004f8f93          	addi	x31,x31,4
800017d8:	fe070ae3          	beq	x14,x0,800017cc <_malloc_r+0x6a0>
800017dc:	000f8893          	addi	x17,x31,0
800017e0:	b2dff06f          	jal	x0,8000130c <_malloc_r+0x1e0>
800017e4:	01058593          	addi	x11,x11,16
800017e8:	be5ff06f          	jal	x0,800013cc <_malloc_r+0x2a0>
800017ec:	4025d593          	srai	x11,x11,0x2
800017f0:	00100713          	addi	x14,x0,1
800017f4:	00b71733          	sll	x14,x14,x11
800017f8:	00e36333          	or	x6,x6,x14
800017fc:	00682223          	sw	x6,4(x16)
80001800:	e29ff06f          	jal	x0,80001628 <_malloc_r+0x4fc>
80001804:	00b88333          	add	x6,x17,x11
80001808:	40600633          	sub	x12,x0,x6
8000180c:	01461613          	slli	x12,x12,0x14
80001810:	01465593          	srli	x11,x12,0x14
80001814:	00040513          	addi	x10,x8,0
80001818:	03012423          	sw	x16,40(x2)
8000181c:	03c12223          	sw	x28,36(x2)
80001820:	02f12023          	sw	x15,32(x2)
80001824:	00d12e23          	sw	x13,28(x2)
80001828:	00e12c23          	sw	x14,24(x2)
8000182c:	01112a23          	sw	x17,20(x2)
80001830:	00b12623          	sw	x11,12(x2)
80001834:	00612823          	sw	x6,16(x2)
80001838:	4dc000ef          	jal	x1,80001d14 <_sbrk_r>
8000183c:	fff00613          	addi	x12,x0,-1
80001840:	00c12583          	lw	x11,12(x2)
80001844:	01412883          	lw	x17,20(x2)
80001848:	01812703          	lw	x14,24(x2)
8000184c:	01c12683          	lw	x13,28(x2)
80001850:	02012783          	lw	x15,32(x2)
80001854:	02412e03          	lw	x28,36(x2)
80001858:	02812803          	lw	x16,40(x2)
8000185c:	c6c514e3          	bne	x10,x12,800014c4 <_malloc_r+0x398>
80001860:	01012503          	lw	x10,16(x2)
80001864:	00000593          	addi	x11,x0,0
80001868:	c5dff06f          	jal	x0,800014c4 <_malloc_r+0x398>
8000186c:	05400593          	addi	x11,x0,84
80001870:	06c5ec63          	bltu	x11,x12,800018e8 <_malloc_r+0x7bc>
80001874:	00c75613          	srli	x12,x14,0xc
80001878:	06f60513          	addi	x10,x12,111
8000187c:	00351513          	slli	x10,x10,0x3
80001880:	06e60593          	addi	x11,x12,110
80001884:	d79ff06f          	jal	x0,800015fc <_malloc_r+0x4d0>
80001888:	15400713          	addi	x14,x0,340
8000188c:	06f76c63          	bltu	x14,x15,80001904 <_malloc_r+0x7d8>
80001890:	00f6d793          	srli	x15,x13,0xf
80001894:	07878893          	addi	x17,x15,120
80001898:	07778e13          	addi	x28,x15,119
8000189c:	00389513          	slli	x10,x17,0x3
800018a0:	97dff06f          	jal	x0,8000121c <_malloc_r+0xf0>
800018a4:	6b018e13          	addi	x28,x3,1712 # 80012380 <__malloc_current_mallinfo>
800018a8:	000e2e83          	lw	x29,0(x28)
800018ac:	01d58eb3          	add	x29,x11,x29
800018b0:	01de2023          	sw	x29,0(x28)
800018b4:	b75ff06f          	jal	x0,80001428 <_malloc_r+0x2fc>
800018b8:	01489f13          	slli	x30,x17,0x14
800018bc:	b60f16e3          	bne	x30,x0,80001428 <_malloc_r+0x2fc>
800018c0:	00882883          	lw	x17,8(x16)
800018c4:	00b705b3          	add	x11,x14,x11
800018c8:	0015e513          	ori	x10,x11,1
800018cc:	00a8a223          	sw	x10,4(x17)
800018d0:	c51ff06f          	jal	x0,80001520 <_malloc_r+0x3f4>
800018d4:	6b11a223          	sw	x17,1700(x3) # 80012374 <__malloc_sbrk_base>
800018d8:	b69ff06f          	jal	x0,80001440 <_malloc_r+0x314>
800018dc:	00100793          	addi	x15,x0,1
800018e0:	00f8a223          	sw	x15,4(x17)
800018e4:	e91ff06f          	jal	x0,80001774 <_malloc_r+0x648>
800018e8:	15400593          	addi	x11,x0,340
800018ec:	06c5ec63          	bltu	x11,x12,80001964 <_malloc_r+0x838>
800018f0:	00f75613          	srli	x12,x14,0xf
800018f4:	07860513          	addi	x10,x12,120
800018f8:	00351513          	slli	x10,x10,0x3
800018fc:	07760593          	addi	x11,x12,119
80001900:	cfdff06f          	jal	x0,800015fc <_malloc_r+0x4d0>
80001904:	55400713          	addi	x14,x0,1364
80001908:	06f76c63          	bltu	x14,x15,80001980 <_malloc_r+0x854>
8000190c:	0126d793          	srli	x15,x13,0x12
80001910:	07d78893          	addi	x17,x15,125
80001914:	07c78e13          	addi	x28,x15,124
80001918:	00389513          	slli	x10,x17,0x3
8000191c:	901ff06f          	jal	x0,8000121c <_malloc_r+0xf0>
80001920:	ff8e8e93          	addi	x29,x29,-8
80001924:	01d30533          	add	x10,x6,x29
80001928:	00000593          	addi	x11,x0,0
8000192c:	b99ff06f          	jal	x0,800014c4 <_malloc_r+0x398>
80001930:	00040513          	addi	x10,x8,0
80001934:	00878593          	addi	x11,x15,8
80001938:	01012a23          	sw	x16,20(x2)
8000193c:	01c12823          	sw	x28,16(x2)
80001940:	00d12623          	sw	x13,12(x2)
80001944:	644000ef          	jal	x1,80001f88 <_free_r>
80001948:	01412803          	lw	x16,20(x2)
8000194c:	01012e03          	lw	x28,16(x2)
80001950:	00c12683          	lw	x13,12(x2)
80001954:	00882883          	lw	x17,8(x16)
80001958:	000e2603          	lw	x12,0(x28)
8000195c:	0048a503          	lw	x10,4(x17)
80001960:	bc1ff06f          	jal	x0,80001520 <_malloc_r+0x3f4>
80001964:	55400593          	addi	x11,x0,1364
80001968:	02c5e463          	bltu	x11,x12,80001990 <_malloc_r+0x864>
8000196c:	01275613          	srli	x12,x14,0x12
80001970:	07d60513          	addi	x10,x12,125
80001974:	00351513          	slli	x10,x10,0x3
80001978:	07c60593          	addi	x11,x12,124
8000197c:	c81ff06f          	jal	x0,800015fc <_malloc_r+0x4d0>
80001980:	3f800513          	addi	x10,x0,1016
80001984:	07f00893          	addi	x17,x0,127
80001988:	07e00e13          	addi	x28,x0,126
8000198c:	891ff06f          	jal	x0,8000121c <_malloc_r+0xf0>
80001990:	3f800513          	addi	x10,x0,1016
80001994:	07e00593          	addi	x11,x0,126
80001998:	c65ff06f          	jal	x0,800015fc <_malloc_r+0x4d0>
8000199c:	00482783          	lw	x15,4(x16)
800019a0:	e19ff06f          	jal	x0,800017b8 <_malloc_r+0x68c>

800019a4 <__malloc_lock>:
800019a4:	00008067          	jalr	x0,0(x1)

800019a8 <__malloc_unlock>:
800019a8:	00008067          	jalr	x0,0(x1)

800019ac <_fwrite_r>:
800019ac:	02c687b3          	mul	x15,x13,x12
800019b0:	fb010113          	addi	x2,x2,-80
800019b4:	02c10813          	addi	x16,x2,44
800019b8:	00060893          	addi	x17,x12,0
800019bc:	00100613          	addi	x12,x0,1
800019c0:	03012a23          	sw	x16,52(x2)
800019c4:	04112623          	sw	x1,76(x2)
800019c8:	02b12623          	sw	x11,44(x2)
800019cc:	02c12c23          	sw	x12,56(x2)
800019d0:	00050813          	addi	x16,x10,0
800019d4:	02f12823          	sw	x15,48(x2)
800019d8:	02f12e23          	sw	x15,60(x2)
800019dc:	00050663          	beq	x10,x0,800019e8 <_fwrite_r+0x3c>
800019e0:	03452603          	lw	x12,52(x10)
800019e4:	08060863          	beq	x12,x0,80001a74 <_fwrite_r+0xc8>
800019e8:	00c71603          	lh	x12,12(x14)
800019ec:	06472583          	lw	x11,100(x14)
800019f0:	00002337          	lui	x6,0x2
800019f4:	01261513          	slli	x10,x12,0x12
800019f8:	06054263          	blt	x10,x0,80001a5c <_fwrite_r+0xb0>
800019fc:	ffffe537          	lui	x10,0xffffe
80001a00:	fff50513          	addi	x10,x10,-1 # ffffdfff <_stack_top+0x77ffdfff>
80001a04:	00666633          	or	x12,x12,x6
80001a08:	00a5f5b3          	and	x11,x11,x10
80001a0c:	00c71623          	sh	x12,12(x14)
80001a10:	06b72223          	sw	x11,100(x14)
80001a14:	00070593          	addi	x11,x14,0
80001a18:	00080513          	addi	x10,x16,0
80001a1c:	03410613          	addi	x12,x2,52
80001a20:	00d12623          	sw	x13,12(x2)
80001a24:	01112a23          	sw	x17,20(x2)
80001a28:	00f12823          	sw	x15,16(x2)
80001a2c:	01c040ef          	jal	x1,80005a48 <__sfvwrite_r>
80001a30:	00050713          	addi	x14,x10,0
80001a34:	00c12503          	lw	x10,12(x2)
80001a38:	00070c63          	beq	x14,x0,80001a50 <_fwrite_r+0xa4>
80001a3c:	03c12703          	lw	x14,60(x2)
80001a40:	01012783          	lw	x15,16(x2)
80001a44:	01412883          	lw	x17,20(x2)
80001a48:	40e787b3          	sub	x15,x15,x14
80001a4c:	0317d533          	divu	x10,x15,x17
80001a50:	04c12083          	lw	x1,76(x2)
80001a54:	05010113          	addi	x2,x2,80
80001a58:	00008067          	jalr	x0,0(x1)
80001a5c:	01259613          	slli	x12,x11,0x12
80001a60:	00000513          	addi	x10,x0,0
80001a64:	fa0658e3          	bge	x12,x0,80001a14 <_fwrite_r+0x68>
80001a68:	04c12083          	lw	x1,76(x2)
80001a6c:	05010113          	addi	x2,x2,80
80001a70:	00008067          	jalr	x0,0(x1)
80001a74:	00e12e23          	sw	x14,28(x2)
80001a78:	00d12c23          	sw	x13,24(x2)
80001a7c:	01112a23          	sw	x17,20(x2)
80001a80:	00f12623          	sw	x15,12(x2)
80001a84:	00a12823          	sw	x10,16(x2)
80001a88:	769030ef          	jal	x1,800059f0 <__sinit>
80001a8c:	01c12703          	lw	x14,28(x2)
80001a90:	01812683          	lw	x13,24(x2)
80001a94:	01412883          	lw	x17,20(x2)
80001a98:	01012803          	lw	x16,16(x2)
80001a9c:	00c12783          	lw	x15,12(x2)
80001aa0:	f49ff06f          	jal	x0,800019e8 <_fwrite_r+0x3c>

80001aa4 <fwrite>:
80001aa4:	02c587b3          	mul	x15,x11,x12
80001aa8:	fb010113          	addi	x2,x2,-80
80001aac:	00060813          	addi	x16,x12,0
80001ab0:	6ac1a603          	lw	x12,1708(x3) # 8001237c <_impure_ptr>
80001ab4:	00058893          	addi	x17,x11,0
80001ab8:	00100713          	addi	x14,x0,1
80001abc:	02c10593          	addi	x11,x2,44
80001ac0:	04112623          	sw	x1,76(x2)
80001ac4:	02a12623          	sw	x10,44(x2)
80001ac8:	02b12a23          	sw	x11,52(x2)
80001acc:	02e12c23          	sw	x14,56(x2)
80001ad0:	02f12823          	sw	x15,48(x2)
80001ad4:	02f12e23          	sw	x15,60(x2)
80001ad8:	00060663          	beq	x12,x0,80001ae4 <fwrite+0x40>
80001adc:	03462703          	lw	x14,52(x12)
80001ae0:	08070863          	beq	x14,x0,80001b70 <fwrite+0xcc>
80001ae4:	00c69703          	lh	x14,12(x13)
80001ae8:	0646a583          	lw	x11,100(x13)
80001aec:	00002337          	lui	x6,0x2
80001af0:	01271513          	slli	x10,x14,0x12
80001af4:	06054263          	blt	x10,x0,80001b58 <fwrite+0xb4>
80001af8:	ffffe537          	lui	x10,0xffffe
80001afc:	fff50513          	addi	x10,x10,-1 # ffffdfff <_stack_top+0x77ffdfff>
80001b00:	00676733          	or	x14,x14,x6
80001b04:	00a5f5b3          	and	x11,x11,x10
80001b08:	00e69623          	sh	x14,12(x13)
80001b0c:	06b6a223          	sw	x11,100(x13)
80001b10:	00060513          	addi	x10,x12,0
80001b14:	00068593          	addi	x11,x13,0
80001b18:	03410613          	addi	x12,x2,52
80001b1c:	01012623          	sw	x16,12(x2)
80001b20:	01112a23          	sw	x17,20(x2)
80001b24:	00f12823          	sw	x15,16(x2)
80001b28:	721030ef          	jal	x1,80005a48 <__sfvwrite_r>
80001b2c:	00050713          	addi	x14,x10,0
80001b30:	00c12503          	lw	x10,12(x2)
80001b34:	00070c63          	beq	x14,x0,80001b4c <fwrite+0xa8>
80001b38:	03c12703          	lw	x14,60(x2)
80001b3c:	01012783          	lw	x15,16(x2)
80001b40:	01412883          	lw	x17,20(x2)
80001b44:	40e787b3          	sub	x15,x15,x14
80001b48:	0317d533          	divu	x10,x15,x17
80001b4c:	04c12083          	lw	x1,76(x2)
80001b50:	05010113          	addi	x2,x2,80
80001b54:	00008067          	jalr	x0,0(x1)
80001b58:	01259713          	slli	x14,x11,0x12
80001b5c:	00000513          	addi	x10,x0,0
80001b60:	fa0758e3          	bge	x14,x0,80001b10 <fwrite+0x6c>
80001b64:	04c12083          	lw	x1,76(x2)
80001b68:	05010113          	addi	x2,x2,80
80001b6c:	00008067          	jalr	x0,0(x1)
80001b70:	00060513          	addi	x10,x12,0
80001b74:	00d12e23          	sw	x13,28(x2)
80001b78:	01012c23          	sw	x16,24(x2)
80001b7c:	01112a23          	sw	x17,20(x2)
80001b80:	00f12823          	sw	x15,16(x2)
80001b84:	00c12623          	sw	x12,12(x2)
80001b88:	669030ef          	jal	x1,800059f0 <__sinit>
80001b8c:	01c12683          	lw	x13,28(x2)
80001b90:	01812803          	lw	x16,24(x2)
80001b94:	01412883          	lw	x17,20(x2)
80001b98:	01012783          	lw	x15,16(x2)
80001b9c:	00c12603          	lw	x12,12(x2)
80001ba0:	f45ff06f          	jal	x0,80001ae4 <fwrite+0x40>

80001ba4 <_printf_r>:
80001ba4:	fc010113          	addi	x2,x2,-64
80001ba8:	00058e13          	addi	x28,x11,0
80001bac:	00852583          	lw	x11,8(x10)
80001bb0:	02810313          	addi	x6,x2,40
80001bb4:	02c12423          	sw	x12,40(x2)
80001bb8:	02d12623          	sw	x13,44(x2)
80001bbc:	000e0613          	addi	x12,x28,0
80001bc0:	00030693          	addi	x13,x6,0 # 2000 <_start-0x7fffe000>
80001bc4:	00112e23          	sw	x1,28(x2)
80001bc8:	02e12823          	sw	x14,48(x2)
80001bcc:	02f12a23          	sw	x15,52(x2)
80001bd0:	03012c23          	sw	x16,56(x2)
80001bd4:	03112e23          	sw	x17,60(x2)
80001bd8:	00612623          	sw	x6,12(x2)
80001bdc:	68c000ef          	jal	x1,80002268 <_vfprintf_r>
80001be0:	01c12083          	lw	x1,28(x2)
80001be4:	04010113          	addi	x2,x2,64
80001be8:	00008067          	jalr	x0,0(x1)

80001bec <printf>:
80001bec:	6ac1a303          	lw	x6,1708(x3) # 8001237c <_impure_ptr>
80001bf0:	fc010113          	addi	x2,x2,-64
80001bf4:	02c12423          	sw	x12,40(x2)
80001bf8:	02d12623          	sw	x13,44(x2)
80001bfc:	02b12223          	sw	x11,36(x2)
80001c00:	02e12823          	sw	x14,48(x2)
80001c04:	02f12a23          	sw	x15,52(x2)
80001c08:	03012c23          	sw	x16,56(x2)
80001c0c:	03112e23          	sw	x17,60(x2)
80001c10:	00832583          	lw	x11,8(x6)
80001c14:	02410693          	addi	x13,x2,36
80001c18:	00050613          	addi	x12,x10,0
80001c1c:	00030513          	addi	x10,x6,0
80001c20:	00112e23          	sw	x1,28(x2)
80001c24:	00d12623          	sw	x13,12(x2)
80001c28:	640000ef          	jal	x1,80002268 <_vfprintf_r>
80001c2c:	01c12083          	lw	x1,28(x2)
80001c30:	04010113          	addi	x2,x2,64
80001c34:	00008067          	jalr	x0,0(x1)

80001c38 <_puts_r>:
80001c38:	fc010113          	addi	x2,x2,-64
80001c3c:	02812c23          	sw	x8,56(x2)
80001c40:	00050413          	addi	x8,x10,0
80001c44:	00058513          	addi	x10,x11,0
80001c48:	00b12623          	sw	x11,12(x2)
80001c4c:	02112e23          	sw	x1,60(x2)
80001c50:	18c000ef          	jal	x1,80001ddc <strlen>
80001c54:	00c12583          	lw	x11,12(x2)
80001c58:	03442703          	lw	x14,52(x8)
80001c5c:	00150893          	addi	x17,x10,1
80001c60:	85c18793          	addi	x15,x3,-1956 # 8001152c <__clz_tab+0x100>
80001c64:	00100813          	addi	x16,x0,1
80001c68:	02010613          	addi	x12,x2,32
80001c6c:	00200693          	addi	x13,x0,2
80001c70:	02b12023          	sw	x11,32(x2)
80001c74:	02a12223          	sw	x10,36(x2)
80001c78:	01112e23          	sw	x17,28(x2)
80001c7c:	02f12423          	sw	x15,40(x2)
80001c80:	03012623          	sw	x16,44(x2)
80001c84:	00c12a23          	sw	x12,20(x2)
80001c88:	00d12c23          	sw	x13,24(x2)
80001c8c:	00842583          	lw	x11,8(x8)
80001c90:	06070263          	beq	x14,x0,80001cf4 <_puts_r+0xbc>
80001c94:	00c59783          	lh	x15,12(x11)
80001c98:	0645a703          	lw	x14,100(x11)
80001c9c:	00002637          	lui	x12,0x2
80001ca0:	01279693          	slli	x13,x15,0x12
80001ca4:	0406c063          	blt	x13,x0,80001ce4 <_puts_r+0xac>
80001ca8:	ffffe6b7          	lui	x13,0xffffe
80001cac:	fff68693          	addi	x13,x13,-1 # ffffdfff <_stack_top+0x77ffdfff>
80001cb0:	00c7e7b3          	or	x15,x15,x12
80001cb4:	00d77733          	and	x14,x14,x13
80001cb8:	00f59623          	sh	x15,12(x11)
80001cbc:	06e5a223          	sw	x14,100(x11)
80001cc0:	00040513          	addi	x10,x8,0
80001cc4:	01410613          	addi	x12,x2,20
80001cc8:	581030ef          	jal	x1,80005a48 <__sfvwrite_r>
80001ccc:	02051063          	bne	x10,x0,80001cec <_puts_r+0xb4>
80001cd0:	00a00513          	addi	x10,x0,10
80001cd4:	03c12083          	lw	x1,60(x2)
80001cd8:	03812403          	lw	x8,56(x2)
80001cdc:	04010113          	addi	x2,x2,64
80001ce0:	00008067          	jalr	x0,0(x1)
80001ce4:	01271793          	slli	x15,x14,0x12
80001ce8:	fc07dce3          	bge	x15,x0,80001cc0 <_puts_r+0x88>
80001cec:	fff00513          	addi	x10,x0,-1
80001cf0:	fe5ff06f          	jal	x0,80001cd4 <_puts_r+0x9c>
80001cf4:	00040513          	addi	x10,x8,0
80001cf8:	00b12623          	sw	x11,12(x2)
80001cfc:	4f5030ef          	jal	x1,800059f0 <__sinit>
80001d00:	00c12583          	lw	x11,12(x2)
80001d04:	f91ff06f          	jal	x0,80001c94 <_puts_r+0x5c>

80001d08 <puts>:
80001d08:	00050593          	addi	x11,x10,0
80001d0c:	6ac1a503          	lw	x10,1708(x3) # 8001237c <_impure_ptr>
80001d10:	f29ff06f          	jal	x0,80001c38 <_puts_r>

80001d14 <_sbrk_r>:
80001d14:	ff010113          	addi	x2,x2,-16
80001d18:	00812423          	sw	x8,8(x2)
80001d1c:	00912223          	sw	x9,4(x2)
80001d20:	80012437          	lui	x8,0x80012
80001d24:	00050493          	addi	x9,x10,0
80001d28:	00058513          	addi	x10,x11,0
80001d2c:	00112623          	sw	x1,12(x2)
80001d30:	4e042823          	sw	x0,1264(x8) # 800124f0 <errno>
80001d34:	b45fe0ef          	jal	x1,80000878 <_sbrk>
80001d38:	fff00793          	addi	x15,x0,-1
80001d3c:	00f50c63          	beq	x10,x15,80001d54 <_sbrk_r+0x40>
80001d40:	00c12083          	lw	x1,12(x2)
80001d44:	00812403          	lw	x8,8(x2)
80001d48:	00412483          	lw	x9,4(x2)
80001d4c:	01010113          	addi	x2,x2,16
80001d50:	00008067          	jalr	x0,0(x1)
80001d54:	4f042783          	lw	x15,1264(x8)
80001d58:	fe0784e3          	beq	x15,x0,80001d40 <_sbrk_r+0x2c>
80001d5c:	00c12083          	lw	x1,12(x2)
80001d60:	00812403          	lw	x8,8(x2)
80001d64:	00f4a023          	sw	x15,0(x9)
80001d68:	00412483          	lw	x9,4(x2)
80001d6c:	01010113          	addi	x2,x2,16
80001d70:	00008067          	jalr	x0,0(x1)

80001d74 <__errno>:
80001d74:	6ac1a503          	lw	x10,1708(x3) # 8001237c <_impure_ptr>
80001d78:	00008067          	jalr	x0,0(x1)

80001d7c <__libc_fini_array>:
80001d7c:	ff010113          	addi	x2,x2,-16
80001d80:	00812423          	sw	x8,8(x2)
80001d84:	00018793          	addi	x15,x3,0 # 80011cd0 <__malloc_av_>
80001d88:	00018413          	addi	x8,x3,0 # 80011cd0 <__malloc_av_>
80001d8c:	408787b3          	sub	x15,x15,x8
80001d90:	00912223          	sw	x9,4(x2)
80001d94:	00112623          	sw	x1,12(x2)
80001d98:	4027d493          	srai	x9,x15,0x2
80001d9c:	02048063          	beq	x9,x0,80001dbc <__libc_fini_array+0x40>
80001da0:	ffc40413          	addi	x8,x8,-4
80001da4:	00f40433          	add	x8,x8,x15
80001da8:	00042783          	lw	x15,0(x8)
80001dac:	fff48493          	addi	x9,x9,-1
80001db0:	ffc40413          	addi	x8,x8,-4
80001db4:	000780e7          	jalr	x1,0(x15)
80001db8:	fe0498e3          	bne	x9,x0,80001da8 <__libc_fini_array+0x2c>
80001dbc:	00c12083          	lw	x1,12(x2)
80001dc0:	00812403          	lw	x8,8(x2)
80001dc4:	00412483          	lw	x9,4(x2)
80001dc8:	01010113          	addi	x2,x2,16
80001dcc:	00008067          	jalr	x0,0(x1)

80001dd0 <close>:
80001dd0:	00050593          	addi	x11,x10,0
80001dd4:	6ac1a503          	lw	x10,1708(x3) # 8001237c <_impure_ptr>
80001dd8:	6040406f          	jal	x0,800063dc <_close_r>

80001ddc <strlen>:
80001ddc:	00357793          	andi	x15,x10,3
80001de0:	00050713          	addi	x14,x10,0
80001de4:	04079c63          	bne	x15,x0,80001e3c <strlen+0x60>
80001de8:	7f7f86b7          	lui	x13,0x7f7f8
80001dec:	f7f68693          	addi	x13,x13,-129 # 7f7f7f7f <_start-0x808081>
80001df0:	fff00593          	addi	x11,x0,-1
80001df4:	00072603          	lw	x12,0(x14)
80001df8:	00470713          	addi	x14,x14,4
80001dfc:	00d677b3          	and	x15,x12,x13
80001e00:	00d787b3          	add	x15,x15,x13
80001e04:	00c7e7b3          	or	x15,x15,x12
80001e08:	00d7e7b3          	or	x15,x15,x13
80001e0c:	feb784e3          	beq	x15,x11,80001df4 <strlen+0x18>
80001e10:	ffc74683          	lbu	x13,-4(x14)
80001e14:	40a707b3          	sub	x15,x14,x10
80001e18:	04068463          	beq	x13,x0,80001e60 <strlen+0x84>
80001e1c:	ffd74683          	lbu	x13,-3(x14)
80001e20:	02068c63          	beq	x13,x0,80001e58 <strlen+0x7c>
80001e24:	ffe74503          	lbu	x10,-2(x14)
80001e28:	00a03533          	sltu	x10,x0,x10
80001e2c:	00f50533          	add	x10,x10,x15
80001e30:	ffe50513          	addi	x10,x10,-2
80001e34:	00008067          	jalr	x0,0(x1)
80001e38:	fa0688e3          	beq	x13,x0,80001de8 <strlen+0xc>
80001e3c:	00074783          	lbu	x15,0(x14)
80001e40:	00170713          	addi	x14,x14,1
80001e44:	00377693          	andi	x13,x14,3
80001e48:	fe0798e3          	bne	x15,x0,80001e38 <strlen+0x5c>
80001e4c:	40a70733          	sub	x14,x14,x10
80001e50:	fff70513          	addi	x10,x14,-1
80001e54:	00008067          	jalr	x0,0(x1)
80001e58:	ffd78513          	addi	x10,x15,-3
80001e5c:	00008067          	jalr	x0,0(x1)
80001e60:	ffc78513          	addi	x10,x15,-4
80001e64:	00008067          	jalr	x0,0(x1)

80001e68 <_malloc_trim_r>:
80001e68:	fe010113          	addi	x2,x2,-32
80001e6c:	01212823          	sw	x18,16(x2)
80001e70:	00812c23          	sw	x8,24(x2)
80001e74:	00912a23          	sw	x9,20(x2)
80001e78:	01312623          	sw	x19,12(x2)
80001e7c:	00058413          	addi	x8,x11,0
80001e80:	00112e23          	sw	x1,28(x2)
80001e84:	00050993          	addi	x19,x10,0
80001e88:	00018913          	addi	x18,x3,0 # 80011cd0 <__malloc_av_>
80001e8c:	b19ff0ef          	jal	x1,800019a4 <__malloc_lock>
80001e90:	00892783          	lw	x15,8(x18)
80001e94:	00001737          	lui	x14,0x1
80001e98:	0047a483          	lw	x9,4(x15)
80001e9c:	ffc4f493          	andi	x9,x9,-4
80001ea0:	7ff48793          	addi	x15,x9,2047
80001ea4:	7f078793          	addi	x15,x15,2032
80001ea8:	40878433          	sub	x8,x15,x8
80001eac:	00c45413          	srli	x8,x8,0xc
80001eb0:	fff40413          	addi	x8,x8,-1
80001eb4:	00c41413          	slli	x8,x8,0xc
80001eb8:	00e44e63          	blt	x8,x14,80001ed4 <_malloc_trim_r+0x6c>
80001ebc:	00000593          	addi	x11,x0,0
80001ec0:	00098513          	addi	x10,x19,0
80001ec4:	e51ff0ef          	jal	x1,80001d14 <_sbrk_r>
80001ec8:	00892783          	lw	x15,8(x18)
80001ecc:	009787b3          	add	x15,x15,x9
80001ed0:	02f50663          	beq	x10,x15,80001efc <_malloc_trim_r+0x94>
80001ed4:	00098513          	addi	x10,x19,0
80001ed8:	ad1ff0ef          	jal	x1,800019a8 <__malloc_unlock>
80001edc:	01c12083          	lw	x1,28(x2)
80001ee0:	01812403          	lw	x8,24(x2)
80001ee4:	01412483          	lw	x9,20(x2)
80001ee8:	01012903          	lw	x18,16(x2)
80001eec:	00c12983          	lw	x19,12(x2)
80001ef0:	00000513          	addi	x10,x0,0
80001ef4:	02010113          	addi	x2,x2,32
80001ef8:	00008067          	jalr	x0,0(x1)
80001efc:	408005b3          	sub	x11,x0,x8
80001f00:	00098513          	addi	x10,x19,0
80001f04:	e11ff0ef          	jal	x1,80001d14 <_sbrk_r>
80001f08:	fff00793          	addi	x15,x0,-1
80001f0c:	04f50463          	beq	x10,x15,80001f54 <_malloc_trim_r+0xec>
80001f10:	00892683          	lw	x13,8(x18)
80001f14:	6b01a783          	lw	x15,1712(x3) # 80012380 <__malloc_current_mallinfo>
80001f18:	408484b3          	sub	x9,x9,x8
80001f1c:	0014e493          	ori	x9,x9,1
80001f20:	00098513          	addi	x10,x19,0
80001f24:	408787b3          	sub	x15,x15,x8
80001f28:	0096a223          	sw	x9,4(x13)
80001f2c:	6af1a823          	sw	x15,1712(x3) # 80012380 <__malloc_current_mallinfo>
80001f30:	a79ff0ef          	jal	x1,800019a8 <__malloc_unlock>
80001f34:	01c12083          	lw	x1,28(x2)
80001f38:	01812403          	lw	x8,24(x2)
80001f3c:	01412483          	lw	x9,20(x2)
80001f40:	01012903          	lw	x18,16(x2)
80001f44:	00c12983          	lw	x19,12(x2)
80001f48:	00100513          	addi	x10,x0,1
80001f4c:	02010113          	addi	x2,x2,32
80001f50:	00008067          	jalr	x0,0(x1)
80001f54:	00000593          	addi	x11,x0,0
80001f58:	00098513          	addi	x10,x19,0
80001f5c:	db9ff0ef          	jal	x1,80001d14 <_sbrk_r>
80001f60:	00892703          	lw	x14,8(x18)
80001f64:	00f00693          	addi	x13,x0,15
80001f68:	40e507b3          	sub	x15,x10,x14
80001f6c:	f6f6d4e3          	bge	x13,x15,80001ed4 <_malloc_trim_r+0x6c>
80001f70:	6a41a603          	lw	x12,1700(x3) # 80012374 <__malloc_sbrk_base>
80001f74:	0017e793          	ori	x15,x15,1
80001f78:	40c50533          	sub	x10,x10,x12
80001f7c:	00f72223          	sw	x15,4(x14) # 1004 <_start-0x7fffeffc>
80001f80:	6aa1a823          	sw	x10,1712(x3) # 80012380 <__malloc_current_mallinfo>
80001f84:	f51ff06f          	jal	x0,80001ed4 <_malloc_trim_r+0x6c>

80001f88 <_free_r>:
80001f88:	10058e63          	beq	x11,x0,800020a4 <_free_r+0x11c>
80001f8c:	fe010113          	addi	x2,x2,-32
80001f90:	00812c23          	sw	x8,24(x2)
80001f94:	00b12623          	sw	x11,12(x2)
80001f98:	00050413          	addi	x8,x10,0
80001f9c:	00112e23          	sw	x1,28(x2)
80001fa0:	a05ff0ef          	jal	x1,800019a4 <__malloc_lock>
80001fa4:	00c12583          	lw	x11,12(x2)
80001fa8:	00018813          	addi	x16,x3,0 # 80011cd0 <__malloc_av_>
80001fac:	ffc5a503          	lw	x10,-4(x11)
80001fb0:	ff858713          	addi	x14,x11,-8
80001fb4:	00882883          	lw	x17,8(x16)
80001fb8:	ffe57793          	andi	x15,x10,-2
80001fbc:	00f70633          	add	x12,x14,x15
80001fc0:	00462683          	lw	x13,4(x12) # 2004 <_start-0x7fffdffc>
80001fc4:	00157313          	andi	x6,x10,1
80001fc8:	ffc6f693          	andi	x13,x13,-4
80001fcc:	18c88463          	beq	x17,x12,80002154 <_free_r+0x1cc>
80001fd0:	00d62223          	sw	x13,4(x12)
80001fd4:	00d608b3          	add	x17,x12,x13
80001fd8:	0048a883          	lw	x17,4(x17)
80001fdc:	0018f893          	andi	x17,x17,1
80001fe0:	08031863          	bne	x6,x0,80002070 <_free_r+0xe8>
80001fe4:	ff85a303          	lw	x6,-8(x11)
80001fe8:	00818593          	addi	x11,x3,8 # 80011cd8 <__malloc_av_+0x8>
80001fec:	40670733          	sub	x14,x14,x6
80001ff0:	00872503          	lw	x10,8(x14)
80001ff4:	006787b3          	add	x15,x15,x6
80001ff8:	12b50863          	beq	x10,x11,80002128 <_free_r+0x1a0>
80001ffc:	00c72303          	lw	x6,12(x14)
80002000:	00652623          	sw	x6,12(x10)
80002004:	00a32423          	sw	x10,8(x6)
80002008:	18088c63          	beq	x17,x0,800021a0 <_free_r+0x218>
8000200c:	0017e693          	ori	x13,x15,1
80002010:	00d72223          	sw	x13,4(x14)
80002014:	00f62023          	sw	x15,0(x12)
80002018:	1ff00693          	addi	x13,x0,511
8000201c:	0af6e063          	bltu	x13,x15,800020bc <_free_r+0x134>
80002020:	ff87f693          	andi	x13,x15,-8
80002024:	00868693          	addi	x13,x13,8
80002028:	00482583          	lw	x11,4(x16)
8000202c:	00d806b3          	add	x13,x16,x13
80002030:	0006a603          	lw	x12,0(x13)
80002034:	0057d513          	srli	x10,x15,0x5
80002038:	00100793          	addi	x15,x0,1
8000203c:	00a797b3          	sll	x15,x15,x10
80002040:	00b7e7b3          	or	x15,x15,x11
80002044:	ff868593          	addi	x11,x13,-8
80002048:	00c72423          	sw	x12,8(x14)
8000204c:	00b72623          	sw	x11,12(x14)
80002050:	00f82223          	sw	x15,4(x16)
80002054:	00e6a023          	sw	x14,0(x13)
80002058:	00e62623          	sw	x14,12(x12)
8000205c:	00040513          	addi	x10,x8,0
80002060:	01812403          	lw	x8,24(x2)
80002064:	01c12083          	lw	x1,28(x2)
80002068:	02010113          	addi	x2,x2,32
8000206c:	93dff06f          	jal	x0,800019a8 <__malloc_unlock>
80002070:	02089c63          	bne	x17,x0,800020a8 <_free_r+0x120>
80002074:	00d787b3          	add	x15,x15,x13
80002078:	00818593          	addi	x11,x3,8 # 80011cd8 <__malloc_av_+0x8>
8000207c:	00862683          	lw	x13,8(x12)
80002080:	0017e893          	ori	x17,x15,1
80002084:	00f70533          	add	x10,x14,x15
80002088:	16b68263          	beq	x13,x11,800021ec <_free_r+0x264>
8000208c:	00c62603          	lw	x12,12(x12)
80002090:	00c6a623          	sw	x12,12(x13)
80002094:	00d62423          	sw	x13,8(x12)
80002098:	01172223          	sw	x17,4(x14)
8000209c:	00f52023          	sw	x15,0(x10)
800020a0:	f79ff06f          	jal	x0,80002018 <_free_r+0x90>
800020a4:	00008067          	jalr	x0,0(x1)
800020a8:	00156513          	ori	x10,x10,1
800020ac:	fea5ae23          	sw	x10,-4(x11)
800020b0:	00f62023          	sw	x15,0(x12)
800020b4:	1ff00693          	addi	x13,x0,511
800020b8:	f6f6f4e3          	bgeu	x13,x15,80002020 <_free_r+0x98>
800020bc:	0097d693          	srli	x13,x15,0x9
800020c0:	00400613          	addi	x12,x0,4
800020c4:	0ed66263          	bltu	x12,x13,800021a8 <_free_r+0x220>
800020c8:	0067d693          	srli	x13,x15,0x6
800020cc:	03968593          	addi	x11,x13,57
800020d0:	00359593          	slli	x11,x11,0x3
800020d4:	03868613          	addi	x12,x13,56
800020d8:	00b805b3          	add	x11,x16,x11
800020dc:	0005a683          	lw	x13,0(x11)
800020e0:	ff858593          	addi	x11,x11,-8
800020e4:	00d59863          	bne	x11,x13,800020f4 <_free_r+0x16c>
800020e8:	1200006f          	jal	x0,80002208 <_free_r+0x280>
800020ec:	0086a683          	lw	x13,8(x13)
800020f0:	00d58863          	beq	x11,x13,80002100 <_free_r+0x178>
800020f4:	0046a603          	lw	x12,4(x13)
800020f8:	ffc67613          	andi	x12,x12,-4
800020fc:	fec7e8e3          	bltu	x15,x12,800020ec <_free_r+0x164>
80002100:	00c6a583          	lw	x11,12(x13)
80002104:	00b72623          	sw	x11,12(x14)
80002108:	00d72423          	sw	x13,8(x14)
8000210c:	00040513          	addi	x10,x8,0
80002110:	01812403          	lw	x8,24(x2)
80002114:	01c12083          	lw	x1,28(x2)
80002118:	00e5a423          	sw	x14,8(x11)
8000211c:	00e6a623          	sw	x14,12(x13)
80002120:	02010113          	addi	x2,x2,32
80002124:	885ff06f          	jal	x0,800019a8 <__malloc_unlock>
80002128:	0a089263          	bne	x17,x0,800021cc <_free_r+0x244>
8000212c:	00c62583          	lw	x11,12(x12)
80002130:	00862603          	lw	x12,8(x12)
80002134:	00f686b3          	add	x13,x13,x15
80002138:	0016e793          	ori	x15,x13,1
8000213c:	00b62623          	sw	x11,12(x12)
80002140:	00c5a423          	sw	x12,8(x11)
80002144:	00f72223          	sw	x15,4(x14)
80002148:	00d70733          	add	x14,x14,x13
8000214c:	00d72023          	sw	x13,0(x14)
80002150:	f0dff06f          	jal	x0,8000205c <_free_r+0xd4>
80002154:	00d786b3          	add	x13,x15,x13
80002158:	02031063          	bne	x6,x0,80002178 <_free_r+0x1f0>
8000215c:	ff85a783          	lw	x15,-8(x11)
80002160:	40f70733          	sub	x14,x14,x15
80002164:	00872603          	lw	x12,8(x14)
80002168:	00f686b3          	add	x13,x13,x15
8000216c:	00c72783          	lw	x15,12(x14)
80002170:	00f62623          	sw	x15,12(x12)
80002174:	00c7a423          	sw	x12,8(x15)
80002178:	0016e613          	ori	x12,x13,1
8000217c:	6a81a783          	lw	x15,1704(x3) # 80012378 <__malloc_trim_threshold>
80002180:	00c72223          	sw	x12,4(x14)
80002184:	00e82423          	sw	x14,8(x16)
80002188:	ecf6eae3          	bltu	x13,x15,8000205c <_free_r+0xd4>
8000218c:	800127b7          	lui	x15,0x80012
80002190:	4e87a583          	lw	x11,1256(x15) # 800124e8 <__malloc_top_pad>
80002194:	00040513          	addi	x10,x8,0
80002198:	cd1ff0ef          	jal	x1,80001e68 <_malloc_trim_r>
8000219c:	ec1ff06f          	jal	x0,8000205c <_free_r+0xd4>
800021a0:	00d787b3          	add	x15,x15,x13
800021a4:	ed9ff06f          	jal	x0,8000207c <_free_r+0xf4>
800021a8:	01400613          	addi	x12,x0,20
800021ac:	02d67863          	bgeu	x12,x13,800021dc <_free_r+0x254>
800021b0:	05400613          	addi	x12,x0,84
800021b4:	06d66863          	bltu	x12,x13,80002224 <_free_r+0x29c>
800021b8:	00c7d693          	srli	x13,x15,0xc
800021bc:	06f68593          	addi	x11,x13,111
800021c0:	00359593          	slli	x11,x11,0x3
800021c4:	06e68613          	addi	x12,x13,110
800021c8:	f11ff06f          	jal	x0,800020d8 <_free_r+0x150>
800021cc:	0017e693          	ori	x13,x15,1
800021d0:	00d72223          	sw	x13,4(x14)
800021d4:	00f62023          	sw	x15,0(x12)
800021d8:	e85ff06f          	jal	x0,8000205c <_free_r+0xd4>
800021dc:	05c68593          	addi	x11,x13,92
800021e0:	00359593          	slli	x11,x11,0x3
800021e4:	05b68613          	addi	x12,x13,91
800021e8:	ef1ff06f          	jal	x0,800020d8 <_free_r+0x150>
800021ec:	00e82a23          	sw	x14,20(x16)
800021f0:	00e82823          	sw	x14,16(x16)
800021f4:	00b72623          	sw	x11,12(x14)
800021f8:	00b72423          	sw	x11,8(x14)
800021fc:	01172223          	sw	x17,4(x14)
80002200:	00f52023          	sw	x15,0(x10)
80002204:	e59ff06f          	jal	x0,8000205c <_free_r+0xd4>
80002208:	00482503          	lw	x10,4(x16)
8000220c:	40265613          	srai	x12,x12,0x2
80002210:	00100793          	addi	x15,x0,1
80002214:	00c797b3          	sll	x15,x15,x12
80002218:	00a7e7b3          	or	x15,x15,x10
8000221c:	00f82223          	sw	x15,4(x16)
80002220:	ee5ff06f          	jal	x0,80002104 <_free_r+0x17c>
80002224:	15400613          	addi	x12,x0,340
80002228:	00d66c63          	bltu	x12,x13,80002240 <_free_r+0x2b8>
8000222c:	00f7d693          	srli	x13,x15,0xf
80002230:	07868593          	addi	x11,x13,120
80002234:	00359593          	slli	x11,x11,0x3
80002238:	07768613          	addi	x12,x13,119
8000223c:	e9dff06f          	jal	x0,800020d8 <_free_r+0x150>
80002240:	55400613          	addi	x12,x0,1364
80002244:	00d66c63          	bltu	x12,x13,8000225c <_free_r+0x2d4>
80002248:	0127d693          	srli	x13,x15,0x12
8000224c:	07d68593          	addi	x11,x13,125
80002250:	00359593          	slli	x11,x11,0x3
80002254:	07c68613          	addi	x12,x13,124
80002258:	e81ff06f          	jal	x0,800020d8 <_free_r+0x150>
8000225c:	3f800593          	addi	x11,x0,1016
80002260:	07e00613          	addi	x12,x0,126
80002264:	e75ff06f          	jal	x0,800020d8 <_free_r+0x150>

80002268 <_vfprintf_r>:
80002268:	e4010113          	addi	x2,x2,-448
8000226c:	1a112e23          	sw	x1,444(x2)
80002270:	1a912a23          	sw	x9,436(x2)
80002274:	1b212823          	sw	x18,432(x2)
80002278:	19a12823          	sw	x26,400(x2)
8000227c:	00d12623          	sw	x13,12(x2)
80002280:	00060d13          	addi	x26,x12,0
80002284:	00058493          	addi	x9,x11,0
80002288:	00050913          	addi	x18,x10,0
8000228c:	140040ef          	jal	x1,800063cc <_localeconv_r>
80002290:	00052783          	lw	x15,0(x10)
80002294:	00078513          	addi	x10,x15,0
80002298:	02f12423          	sw	x15,40(x2)
8000229c:	b41ff0ef          	jal	x1,80001ddc <strlen>
800022a0:	02a12223          	sw	x10,36(x2)
800022a4:	0c012023          	sw	x0,192(x2)
800022a8:	00090863          	beq	x18,x0,800022b8 <_vfprintf_r+0x50>
800022ac:	03492783          	lw	x15,52(x18)
800022b0:	00079463          	bne	x15,x0,800022b8 <_vfprintf_r+0x50>
800022b4:	5850106f          	jal	x0,80004038 <_vfprintf_r+0x1dd0>
800022b8:	00c49783          	lh	x15,12(x9)
800022bc:	0644a703          	lw	x14,100(x9)
800022c0:	00002637          	lui	x12,0x2
800022c4:	01279693          	slli	x13,x15,0x12
800022c8:	3606c063          	blt	x13,x0,80002628 <_vfprintf_r+0x3c0>
800022cc:	ffffe6b7          	lui	x13,0xffffe
800022d0:	00c7e7b3          	or	x15,x15,x12
800022d4:	fff68693          	addi	x13,x13,-1 # ffffdfff <_stack_top+0x77ffdfff>
800022d8:	00d77733          	and	x14,x14,x13
800022dc:	00f49623          	sh	x15,12(x9)
800022e0:	01079793          	slli	x15,x15,0x10
800022e4:	4107d793          	srai	x15,x15,0x10
800022e8:	06e4a223          	sw	x14,100(x9)
800022ec:	0087f713          	andi	x14,x15,8
800022f0:	2c070063          	beq	x14,x0,800025b0 <_vfprintf_r+0x348>
800022f4:	0104a703          	lw	x14,16(x9)
800022f8:	2a070c63          	beq	x14,x0,800025b0 <_vfprintf_r+0x348>
800022fc:	01a7f793          	andi	x15,x15,26
80002300:	00a00713          	addi	x14,x0,10
80002304:	2ce78663          	beq	x15,x14,800025d0 <_vfprintf_r+0x368>
80002308:	1b312623          	sw	x19,428(x2)
8000230c:	1b412423          	sw	x20,424(x2)
80002310:	0dc10993          	addi	x19,x2,220
80002314:	a0818793          	addi	x15,x3,-1528 # 800116d8 <__clz_tab+0x2ac>
80002318:	1a812c23          	sw	x8,440(x2)
8000231c:	1b612023          	sw	x22,416(x2)
80002320:	1b512223          	sw	x21,420(x2)
80002324:	19712e23          	sw	x23,412(x2)
80002328:	19812c23          	sw	x24,408(x2)
8000232c:	19912a23          	sw	x25,404(x2)
80002330:	19b12623          	sw	x27,396(x2)
80002334:	0a012e23          	sw	x0,188(x2)
80002338:	0a012c23          	sw	x0,184(x2)
8000233c:	0b312a23          	sw	x19,180(x2)
80002340:	00098b13          	addi	x22,x19,0
80002344:	00f12a23          	sw	x15,20(x2)
80002348:	b7418a13          	addi	x20,x3,-1164 # 80011844 <zeroes.0>
8000234c:	00012c23          	sw	x0,24(x2)
80002350:	02012623          	sw	x0,44(x2)
80002354:	02012823          	sw	x0,48(x2)
80002358:	04012223          	sw	x0,68(x2)
8000235c:	02012a23          	sw	x0,52(x2)
80002360:	00012423          	sw	x0,8(x2)
80002364:	01000413          	addi	x8,x0,16
80002368:	00912223          	sw	x9,4(x2)
8000236c:	000d4783          	lbu	x15,0(x26)
80002370:	000d0a93          	addi	x21,x26,0
80002374:	fdb78713          	addi	x14,x15,-37
80002378:	06070263          	beq	x14,x0,800023dc <_vfprintf_r+0x174>
8000237c:	06078063          	beq	x15,x0,800023dc <_vfprintf_r+0x174>
80002380:	000a8c13          	addi	x24,x21,0
80002384:	001ac783          	lbu	x15,1(x21)
80002388:	001a8a93          	addi	x21,x21,1
8000238c:	00078663          	beq	x15,x0,80002398 <_vfprintf_r+0x130>
80002390:	fdb78713          	addi	x14,x15,-37
80002394:	fe0716e3          	bne	x14,x0,80002380 <_vfprintf_r+0x118>
80002398:	41aa8cb3          	sub	x25,x21,x26
8000239c:	05aa8063          	beq	x21,x26,800023dc <_vfprintf_r+0x174>
800023a0:	0bc12783          	lw	x15,188(x2)
800023a4:	0b812503          	lw	x10,184(x2)
800023a8:	01ab2023          	sw	x26,0(x22)
800023ac:	019787b3          	add	x15,x15,x25
800023b0:	00150513          	addi	x10,x10,1
800023b4:	019b2223          	sw	x25,4(x22)
800023b8:	0af12e23          	sw	x15,188(x2)
800023bc:	0aa12c23          	sw	x10,184(x2)
800023c0:	00700793          	addi	x15,x0,7
800023c4:	008b0b13          	addi	x22,x22,8
800023c8:	24a7c063          	blt	x15,x10,80002608 <_vfprintf_r+0x3a0>
800023cc:	00812783          	lw	x15,8(x2)
800023d0:	019787b3          	add	x15,x15,x25
800023d4:	00f12423          	sw	x15,8(x2)
800023d8:	001c4783          	lbu	x15,1(x24)
800023dc:	00079463          	bne	x15,x0,800023e4 <_vfprintf_r+0x17c>
800023e0:	5890106f          	jal	x0,80004168 <_vfprintf_r+0x1f00>
800023e4:	001ac883          	lbu	x17,1(x21)
800023e8:	001a8d13          	addi	x26,x21,1
800023ec:	080109a3          	sb	x0,147(x2)
800023f0:	fff00a93          	addi	x21,x0,-1
800023f4:	00012023          	sw	x0,0(x2)
800023f8:	00000b93          	addi	x23,x0,0
800023fc:	05a00c13          	addi	x24,x0,90
80002400:	001d0d13          	addi	x26,x26,1
80002404:	fe088793          	addi	x15,x17,-32
80002408:	04fc6c63          	bltu	x24,x15,80002460 <_vfprintf_r+0x1f8>
8000240c:	01412703          	lw	x14,20(x2)
80002410:	00279793          	slli	x15,x15,0x2
80002414:	00e787b3          	add	x15,x15,x14
80002418:	0007a783          	lw	x15,0(x15)
8000241c:	00078067          	jalr	x0,0(x15)
80002420:	fd088793          	addi	x15,x17,-48
80002424:	00012023          	sw	x0,0(x2)
80002428:	00900693          	addi	x13,x0,9
8000242c:	00012703          	lw	x14,0(x2)
80002430:	00012603          	lw	x12,0(x2)
80002434:	000d4883          	lbu	x17,0(x26)
80002438:	00271713          	slli	x14,x14,0x2
8000243c:	00c70733          	add	x14,x14,x12
80002440:	00171713          	slli	x14,x14,0x1
80002444:	00e787b3          	add	x15,x15,x14
80002448:	00f12023          	sw	x15,0(x2)
8000244c:	fd088793          	addi	x15,x17,-48
80002450:	001d0d13          	addi	x26,x26,1
80002454:	fcf6fce3          	bgeu	x13,x15,8000242c <_vfprintf_r+0x1c4>
80002458:	fe088793          	addi	x15,x17,-32
8000245c:	fafc78e3          	bgeu	x24,x15,8000240c <_vfprintf_r+0x1a4>
80002460:	00089463          	bne	x17,x0,80002468 <_vfprintf_r+0x200>
80002464:	5050106f          	jal	x0,80004168 <_vfprintf_r+0x1f00>
80002468:	00100c93          	addi	x25,x0,1
8000246c:	11110e23          	sb	x17,284(x2)
80002470:	080109a3          	sb	x0,147(x2)
80002474:	000c8c13          	addi	x24,x25,0
80002478:	00012823          	sw	x0,16(x2)
8000247c:	00000a93          	addi	x21,x0,0
80002480:	02012023          	sw	x0,32(x2)
80002484:	00012e23          	sw	x0,28(x2)
80002488:	00000313          	addi	x6,x0,0
8000248c:	11c10793          	addi	x15,x2,284
80002490:	0bc12603          	lw	x12,188(x2)
80002494:	084bfd93          	andi	x27,x23,132
80002498:	00060813          	addi	x16,x12,0 # 2000 <_start-0x7fffe000>
8000249c:	7e0d8463          	beq	x27,x0,80002c84 <_vfprintf_r+0xa1c>
800024a0:	09314703          	lbu	x14,147(x2)
800024a4:	06070863          	beq	x14,x0,80002514 <_vfprintf_r+0x2ac>
800024a8:	0b812583          	lw	x11,184(x2)
800024ac:	00000713          	addi	x14,x0,0
800024b0:	09310513          	addi	x10,x2,147
800024b4:	00ab2023          	sw	x10,0(x22)
800024b8:	00160613          	addi	x12,x12,1
800024bc:	00100513          	addi	x10,x0,1
800024c0:	00158593          	addi	x11,x11,1
800024c4:	00ab2223          	sw	x10,4(x22)
800024c8:	0ac12e23          	sw	x12,188(x2)
800024cc:	0ab12c23          	sw	x11,184(x2)
800024d0:	00700513          	addi	x10,x0,7
800024d4:	008b0b13          	addi	x22,x22,8
800024d8:	58b54c63          	blt	x10,x11,80002a70 <_vfprintf_r+0x808>
800024dc:	02070c63          	beq	x14,x0,80002514 <_vfprintf_r+0x2ac>
800024e0:	0b812583          	lw	x11,184(x2)
800024e4:	09410713          	addi	x14,x2,148
800024e8:	00eb2023          	sw	x14,0(x22)
800024ec:	00260613          	addi	x12,x12,2
800024f0:	00200713          	addi	x14,x0,2
800024f4:	00158593          	addi	x11,x11,1
800024f8:	00eb2223          	sw	x14,4(x22)
800024fc:	0ac12e23          	sw	x12,188(x2)
80002500:	0ab12c23          	sw	x11,184(x2)
80002504:	00700713          	addi	x14,x0,7
80002508:	008b0b13          	addi	x22,x22,8
8000250c:	00b75463          	bge	x14,x11,80002514 <_vfprintf_r+0x2ac>
80002510:	1a00106f          	jal	x0,800036b0 <_vfprintf_r+0x1448>
80002514:	08000713          	addi	x14,x0,128
80002518:	00ed9463          	bne	x27,x14,80002520 <_vfprintf_r+0x2b8>
8000251c:	7c10006f          	jal	x0,800034dc <_vfprintf_r+0x1274>
80002520:	419a8ab3          	sub	x21,x21,x25
80002524:	77504e63          	blt	x0,x21,80002ca0 <_vfprintf_r+0xa38>
80002528:	100bf713          	andi	x14,x23,256
8000252c:	060714e3          	bne	x14,x0,80002d94 <_vfprintf_r+0xb2c>
80002530:	00fb2023          	sw	x15,0(x22)
80002534:	0b812783          	lw	x15,184(x2)
80002538:	01960633          	add	x12,x12,x25
8000253c:	0ac12e23          	sw	x12,188(x2)
80002540:	00178793          	addi	x15,x15,1
80002544:	019b2223          	sw	x25,4(x22)
80002548:	00700713          	addi	x14,x0,7
8000254c:	0af12c23          	sw	x15,184(x2)
80002550:	68f74063          	blt	x14,x15,80002bd0 <_vfprintf_r+0x968>
80002554:	008b0b13          	addi	x22,x22,8
80002558:	004bfe13          	andi	x28,x23,4
8000255c:	000e0a63          	beq	x28,x0,80002570 <_vfprintf_r+0x308>
80002560:	00012783          	lw	x15,0(x2)
80002564:	41878ab3          	sub	x21,x15,x24
80002568:	01505463          	bge	x0,x21,80002570 <_vfprintf_r+0x308>
8000256c:	17c0106f          	jal	x0,800036e8 <_vfprintf_r+0x1480>
80002570:	00012303          	lw	x6,0(x2)
80002574:	01835463          	bge	x6,x24,8000257c <_vfprintf_r+0x314>
80002578:	000c0313          	addi	x6,x24,0
8000257c:	00812783          	lw	x15,8(x2)
80002580:	006787b3          	add	x15,x15,x6
80002584:	00f12423          	sw	x15,8(x2)
80002588:	00060463          	beq	x12,x0,80002590 <_vfprintf_r+0x328>
8000258c:	0800106f          	jal	x0,8000360c <_vfprintf_r+0x13a4>
80002590:	01012783          	lw	x15,16(x2)
80002594:	0a012c23          	sw	x0,184(x2)
80002598:	00078863          	beq	x15,x0,800025a8 <_vfprintf_r+0x340>
8000259c:	01012583          	lw	x11,16(x2)
800025a0:	00090513          	addi	x10,x18,0
800025a4:	9e5ff0ef          	jal	x1,80001f88 <_free_r>
800025a8:	00098b13          	addi	x22,x19,0
800025ac:	dc1ff06f          	jal	x0,8000236c <_vfprintf_r+0x104>
800025b0:	00048593          	addi	x11,x9,0
800025b4:	00090513          	addi	x10,x18,0
800025b8:	35d030ef          	jal	x1,80006114 <__swsetup_r>
800025bc:	06051a63          	bne	x10,x0,80002630 <_vfprintf_r+0x3c8>
800025c0:	00c49783          	lh	x15,12(x9)
800025c4:	00a00713          	addi	x14,x0,10
800025c8:	01a7f793          	andi	x15,x15,26
800025cc:	d2e79ee3          	bne	x15,x14,80002308 <_vfprintf_r+0xa0>
800025d0:	00e49783          	lh	x15,14(x9)
800025d4:	d207cae3          	blt	x15,x0,80002308 <_vfprintf_r+0xa0>
800025d8:	00c12683          	lw	x13,12(x2)
800025dc:	000d0613          	addi	x12,x26,0
800025e0:	00048593          	addi	x11,x9,0
800025e4:	00090513          	addi	x10,x18,0
800025e8:	495020ef          	jal	x1,8000527c <__sbprintf>
800025ec:	00a12423          	sw	x10,8(x2)
800025f0:	07c0106f          	jal	x0,8000366c <_vfprintf_r+0x1404>
800025f4:	000d4883          	lbu	x17,0(x26)
800025f8:	e09ff06f          	jal	x0,80002400 <_vfprintf_r+0x198>
800025fc:	000d4883          	lbu	x17,0(x26)
80002600:	020beb93          	ori	x23,x23,32
80002604:	dfdff06f          	jal	x0,80002400 <_vfprintf_r+0x198>
80002608:	00412583          	lw	x11,4(x2)
8000260c:	0b410613          	addi	x12,x2,180
80002610:	00090513          	addi	x10,x18,0
80002614:	529020ef          	jal	x1,8000533c <__sprint_r>
80002618:	00050463          	beq	x10,x0,80002620 <_vfprintf_r+0x3b8>
8000261c:	13d0206f          	jal	x0,80004f58 <_vfprintf_r+0x2cf0>
80002620:	00098b13          	addi	x22,x19,0
80002624:	da9ff06f          	jal	x0,800023cc <_vfprintf_r+0x164>
80002628:	01271693          	slli	x13,x14,0x12
8000262c:	cc06d0e3          	bge	x13,x0,800022ec <_vfprintf_r+0x84>
80002630:	fff00793          	addi	x15,x0,-1
80002634:	00f12423          	sw	x15,8(x2)
80002638:	0340106f          	jal	x0,8000366c <_vfprintf_r+0x1404>
8000263c:	008bf793          	andi	x15,x23,8
80002640:	00078463          	beq	x15,x0,80002648 <_vfprintf_r+0x3e0>
80002644:	5980106f          	jal	x0,80003bdc <_vfprintf_r+0x1974>
80002648:	00c12783          	lw	x15,12(x2)
8000264c:	08010513          	addi	x10,x2,128
80002650:	01112823          	sw	x17,16(x2)
80002654:	00778793          	addi	x15,x15,7
80002658:	ff87f793          	andi	x15,x15,-8
8000265c:	0047a603          	lw	x12,4(x15)
80002660:	0007a583          	lw	x11,0(x15)
80002664:	00878793          	addi	x15,x15,8
80002668:	00f12623          	sw	x15,12(x2)
8000266c:	3390e0ef          	jal	x1,800111a4 <__extenddftf2>
80002670:	08012603          	lw	x12,128(x2)
80002674:	08412683          	lw	x13,132(x2)
80002678:	08812703          	lw	x14,136(x2)
8000267c:	08c12783          	lw	x15,140(x2)
80002680:	01012883          	lw	x17,16(x2)
80002684:	0c010513          	addi	x10,x2,192
80002688:	01112823          	sw	x17,16(x2)
8000268c:	0cf12623          	sw	x15,204(x2)
80002690:	0cc12023          	sw	x12,192(x2)
80002694:	0cd12223          	sw	x13,196(x2)
80002698:	0ce12423          	sw	x14,200(x2)
8000269c:	6fc040ef          	jal	x1,80006d98 <_ldcheck>
800026a0:	08a12c23          	sw	x10,152(x2)
800026a4:	00200793          	addi	x15,x0,2
800026a8:	01012883          	lw	x17,16(x2)
800026ac:	00f51463          	bne	x10,x15,800026b4 <_vfprintf_r+0x44c>
800026b0:	2210106f          	jal	x0,800040d0 <_vfprintf_r+0x1e68>
800026b4:	00100793          	addi	x15,x0,1
800026b8:	00f51463          	bne	x10,x15,800026c0 <_vfprintf_r+0x458>
800026bc:	3cd0106f          	jal	x0,80004288 <_vfprintf_r+0x2020>
800026c0:	fdf8fc13          	andi	x24,x17,-33
800026c4:	04100793          	addi	x15,x0,65
800026c8:	00fc0463          	beq	x24,x15,800026d0 <_vfprintf_r+0x468>
800026cc:	3850106f          	jal	x0,80004250 <_vfprintf_r+0x1fe8>
800026d0:	03000793          	addi	x15,x0,48
800026d4:	08f10a23          	sb	x15,148(x2)
800026d8:	06100713          	addi	x14,x0,97
800026dc:	05800793          	addi	x15,x0,88
800026e0:	00e89463          	bne	x17,x14,800026e8 <_vfprintf_r+0x480>
800026e4:	0c80206f          	jal	x0,800047ac <_vfprintf_r+0x2544>
800026e8:	08f10aa3          	sb	x15,149(x2)
800026ec:	06300793          	addi	x15,x0,99
800026f0:	0157d463          	bge	x15,x21,800026f8 <_vfprintf_r+0x490>
800026f4:	1e00206f          	jal	x0,800048d4 <_vfprintf_r+0x266c>
800026f8:	0cc12703          	lw	x14,204(x2)
800026fc:	0c012683          	lw	x13,192(x2)
80002700:	0c412603          	lw	x12,196(x2)
80002704:	0c812583          	lw	x11,200(x2)
80002708:	00075463          	bge	x14,x0,80002710 <_vfprintf_r+0x4a8>
8000270c:	0290206f          	jal	x0,80004f34 <_vfprintf_r+0x2ccc>
80002710:	02012c23          	sw	x0,56(x2)
80002714:	00012823          	sw	x0,16(x2)
80002718:	11c10793          	addi	x15,x2,284
8000271c:	08010d93          	addi	x27,x2,128
80002720:	04f12023          	sw	x15,64(x2)
80002724:	06c12a23          	sw	x12,116(x2)
80002728:	002be793          	ori	x15,x23,2
8000272c:	06b12c23          	sw	x11,120(x2)
80002730:	000d8513          	addi	x10,x27,0
80002734:	07010593          	addi	x11,x2,112
80002738:	09810613          	addi	x12,x2,152
8000273c:	03112e23          	sw	x17,60(x2)
80002740:	00f12e23          	sw	x15,28(x2)
80002744:	06d12823          	sw	x13,112(x2)
80002748:	06e12e23          	sw	x14,124(x2)
8000274c:	244040ef          	jal	x1,80006990 <frexpl>
80002750:	08812703          	lw	x14,136(x2)
80002754:	08012603          	lw	x12,128(x2)
80002758:	08412683          	lw	x13,132(x2)
8000275c:	06e12c23          	sw	x14,120(x2)
80002760:	08c12703          	lw	x14,140(x2)
80002764:	06c12823          	sw	x12,112(x2)
80002768:	06d12a23          	sw	x13,116(x2)
8000276c:	06010613          	addi	x12,x2,96
80002770:	3ffc06b7          	lui	x13,0x3ffc0
80002774:	07010593          	addi	x11,x2,112
80002778:	000d8513          	addi	x10,x27,0
8000277c:	06d12623          	sw	x13,108(x2)
80002780:	06e12e23          	sw	x14,124(x2)
80002784:	06012023          	sw	x0,96(x2)
80002788:	06012223          	sw	x0,100(x2)
8000278c:	06012423          	sw	x0,104(x2)
80002790:	4f00c0ef          	jal	x1,8000ec80 <__multf3>
80002794:	08012e03          	lw	x28,128(x2)
80002798:	08412803          	lw	x16,132(x2)
8000279c:	08812603          	lw	x12,136(x2)
800027a0:	07010593          	addi	x11,x2,112
800027a4:	000d8513          	addi	x10,x27,0
800027a8:	03c12623          	sw	x28,44(x2)
800027ac:	03012023          	sw	x16,32(x2)
800027b0:	00c12c23          	sw	x12,24(x2)
800027b4:	06012823          	sw	x0,112(x2)
800027b8:	06012a23          	sw	x0,116(x2)
800027bc:	06012c23          	sw	x0,120(x2)
800027c0:	06012e23          	sw	x0,124(x2)
800027c4:	1640c0ef          	jal	x1,8000e928 <__eqtf2>
800027c8:	08c12b83          	lw	x23,140(x2)
800027cc:	01812603          	lw	x12,24(x2)
800027d0:	02012803          	lw	x16,32(x2)
800027d4:	02c12e03          	lw	x28,44(x2)
800027d8:	03c12883          	lw	x17,60(x2)
800027dc:	04012783          	lw	x15,64(x2)
800027e0:	00051663          	bne	x10,x0,800027ec <_vfprintf_r+0x584>
800027e4:	00100693          	addi	x13,x0,1
800027e8:	08d12c23          	sw	x13,152(x2)
800027ec:	06100693          	addi	x13,x0,97
800027f0:	00d89463          	bne	x17,x13,800027f8 <_vfprintf_r+0x590>
800027f4:	11d0206f          	jal	x0,80005110 <_vfprintf_r+0x2ea8>
800027f8:	88418713          	addi	x14,x3,-1916 # 80011554 <__clz_tab+0x128>
800027fc:	00e12c23          	sw	x14,24(x2)
80002800:	03612023          	sw	x22,32(x2)
80002804:	000b8c93          	addi	x25,x23,0
80002808:	05212423          	sw	x18,72(x2)
8000280c:	01812483          	lw	x9,24(x2)
80002810:	00078c13          	addi	x24,x15,0
80002814:	03112623          	sw	x17,44(x2)
80002818:	02f12e23          	sw	x15,60(x2)
8000281c:	05a12023          	sw	x26,64(x2)
80002820:	00080b13          	addi	x22,x16,0
80002824:	00060b93          	addi	x23,x12,0
80002828:	000e0913          	addi	x18,x28,0
8000282c:	03c0006f          	jal	x0,80002868 <_vfprintf_r+0x600>
80002830:	07010593          	addi	x11,x2,112
80002834:	000d8513          	addi	x10,x27,0
80002838:	09212023          	sw	x18,128(x2)
8000283c:	09612223          	sw	x22,132(x2)
80002840:	09712423          	sw	x23,136(x2)
80002844:	09912623          	sw	x25,140(x2)
80002848:	06012823          	sw	x0,112(x2)
8000284c:	06012a23          	sw	x0,116(x2)
80002850:	06012c23          	sw	x0,120(x2)
80002854:	06012e23          	sw	x0,124(x2)
80002858:	0d00c0ef          	jal	x1,8000e928 <__eqtf2>
8000285c:	00051463          	bne	x10,x0,80002864 <_vfprintf_r+0x5fc>
80002860:	7a80206f          	jal	x0,80005008 <_vfprintf_r+0x2da0>
80002864:	fffa8a93          	addi	x21,x21,-1
80002868:	400307b7          	lui	x15,0x40030
8000286c:	06010613          	addi	x12,x2,96
80002870:	07010593          	addi	x11,x2,112
80002874:	000d8513          	addi	x10,x27,0
80002878:	06f12623          	sw	x15,108(x2)
8000287c:	07212823          	sw	x18,112(x2)
80002880:	07612a23          	sw	x22,116(x2)
80002884:	07712c23          	sw	x23,120(x2)
80002888:	07912e23          	sw	x25,124(x2)
8000288c:	06012023          	sw	x0,96(x2)
80002890:	06012223          	sw	x0,100(x2)
80002894:	06012423          	sw	x0,104(x2)
80002898:	3e80c0ef          	jal	x1,8000ec80 <__multf3>
8000289c:	000d8513          	addi	x10,x27,0
800028a0:	6c40e0ef          	jal	x1,80010f64 <__fixtfsi>
800028a4:	00050593          	addi	x11,x10,0
800028a8:	00050d13          	addi	x26,x10,0
800028ac:	000d8513          	addi	x10,x27,0
800028b0:	08012c83          	lw	x25,128(x2)
800028b4:	08412b83          	lw	x23,132(x2)
800028b8:	08812b03          	lw	x22,136(x2)
800028bc:	08c12903          	lw	x18,140(x2)
800028c0:	7980e0ef          	jal	x1,80011058 <__floatsitf>
800028c4:	08812783          	lw	x15,136(x2)
800028c8:	08012603          	lw	x12,128(x2)
800028cc:	08412683          	lw	x13,132(x2)
800028d0:	04f12c23          	sw	x15,88(x2)
800028d4:	08c12783          	lw	x15,140(x2)
800028d8:	04c12823          	sw	x12,80(x2)
800028dc:	06010593          	addi	x11,x2,96
800028e0:	05010613          	addi	x12,x2,80
800028e4:	07010513          	addi	x10,x2,112
800028e8:	07912023          	sw	x25,96(x2)
800028ec:	07712223          	sw	x23,100(x2)
800028f0:	07612423          	sw	x22,104(x2)
800028f4:	07212623          	sw	x18,108(x2)
800028f8:	04d12a23          	sw	x13,84(x2)
800028fc:	04f12e23          	sw	x15,92(x2)
80002900:	2c00d0ef          	jal	x1,8000fbc0 <__subtf3>
80002904:	01a487b3          	add	x15,x9,x26
80002908:	0007c683          	lbu	x13,0(x15) # 40030000 <_start-0x3ffd0000>
8000290c:	000c0593          	addi	x11,x24,0
80002910:	001c0c13          	addi	x24,x24,1
80002914:	07012903          	lw	x18,112(x2)
80002918:	07412b03          	lw	x22,116(x2)
8000291c:	07812b83          	lw	x23,120(x2)
80002920:	07c12c83          	lw	x25,124(x2)
80002924:	fedc0fa3          	sb	x13,-1(x24)
80002928:	f00a94e3          	bne	x21,x0,80002830 <_vfprintf_r+0x5c8>
8000292c:	02c12883          	lw	x17,44(x2)
80002930:	03c12783          	lw	x15,60(x2)
80002934:	00090e13          	addi	x28,x18,0
80002938:	000b0813          	addi	x16,x22,0
8000293c:	000b8613          	addi	x12,x23,0
80002940:	00058493          	addi	x9,x11,0
80002944:	000c8b93          	addi	x23,x25,0
80002948:	3ffe0ab7          	lui	x21,0x3ffe0
8000294c:	07010593          	addi	x11,x2,112
80002950:	000d8513          	addi	x10,x27,0
80002954:	05112623          	sw	x17,76(x2)
80002958:	02f12623          	sw	x15,44(x2)
8000295c:	04812903          	lw	x18,72(x2)
80002960:	000d0c93          	addi	x25,x26,0
80002964:	09c12023          	sw	x28,128(x2)
80002968:	04012d03          	lw	x26,64(x2)
8000296c:	05c12423          	sw	x28,72(x2)
80002970:	09012223          	sw	x16,132(x2)
80002974:	05012023          	sw	x16,64(x2)
80002978:	08c12423          	sw	x12,136(x2)
8000297c:	02c12e23          	sw	x12,60(x2)
80002980:	09712623          	sw	x23,140(x2)
80002984:	06012823          	sw	x0,112(x2)
80002988:	06012a23          	sw	x0,116(x2)
8000298c:	06012c23          	sw	x0,120(x2)
80002990:	07512e23          	sw	x21,124(x2)
80002994:	0840c0ef          	jal	x1,8000ea18 <__getf2>
80002998:	02012b03          	lw	x22,32(x2)
8000299c:	02c12783          	lw	x15,44(x2)
800029a0:	04c12883          	lw	x17,76(x2)
800029a4:	02a04463          	blt	x0,x10,800029cc <_vfprintf_r+0x764>
800029a8:	07010593          	addi	x11,x2,112
800029ac:	000d8513          	addi	x10,x27,0
800029b0:	03112023          	sw	x17,32(x2)
800029b4:	7750b0ef          	jal	x1,8000e928 <__eqtf2>
800029b8:	02012883          	lw	x17,32(x2)
800029bc:	02c12783          	lw	x15,44(x2)
800029c0:	04051c63          	bne	x10,x0,80002a18 <_vfprintf_r+0x7b0>
800029c4:	001cfc93          	andi	x25,x25,1
800029c8:	040c8863          	beq	x25,x0,80002a18 <_vfprintf_r+0x7b0>
800029cc:	01812703          	lw	x14,24(x2)
800029d0:	0a912023          	sw	x9,160(x2)
800029d4:	fffc4603          	lbu	x12,-1(x24)
800029d8:	00f74583          	lbu	x11,15(x14)
800029dc:	000c0713          	addi	x14,x24,0
800029e0:	02c59063          	bne	x11,x12,80002a00 <_vfprintf_r+0x798>
800029e4:	03000513          	addi	x10,x0,48
800029e8:	fea70fa3          	sb	x10,-1(x14)
800029ec:	0a012703          	lw	x14,160(x2)
800029f0:	fff70693          	addi	x13,x14,-1
800029f4:	0ad12023          	sw	x13,160(x2)
800029f8:	fff74603          	lbu	x12,-1(x14)
800029fc:	fec586e3          	beq	x11,x12,800029e8 <_vfprintf_r+0x780>
80002a00:	00160593          	addi	x11,x12,1
80002a04:	03900513          	addi	x10,x0,57
80002a08:	0ff5f593          	andi	x11,x11,255
80002a0c:	00a61463          	bne	x12,x10,80002a14 <_vfprintf_r+0x7ac>
80002a10:	1380206f          	jal	x0,80004b48 <_vfprintf_r+0x28e0>
80002a14:	feb70fa3          	sb	x11,-1(x14)
80002a18:	09812603          	lw	x12,152(x2)
80002a1c:	00f88713          	addi	x14,x17,15
80002a20:	0ae10223          	sb	x14,164(x2)
80002a24:	40fc06b3          	sub	x13,x24,x15
80002a28:	fff60713          	addi	x14,x12,-1
80002a2c:	08e12c23          	sw	x14,152(x2)
80002a30:	00d12c23          	sw	x13,24(x2)
80002a34:	00075463          	bge	x14,x0,80002a3c <_vfprintf_r+0x7d4>
80002a38:	6bc0206f          	jal	x0,800050f4 <_vfprintf_r+0x2e8c>
80002a3c:	02b00693          	addi	x13,x0,43
80002a40:	0ad102a3          	sb	x13,165(x2)
80002a44:	00900693          	addi	x13,x0,9
80002a48:	00e6d463          	bge	x13,x14,80002a50 <_vfprintf_r+0x7e8>
80002a4c:	01c0206f          	jal	x0,80004a68 <_vfprintf_r+0x2800>
80002a50:	0a610693          	addi	x13,x2,166
80002a54:	03070713          	addi	x14,x14,48
80002a58:	00e68023          	sb	x14,0(x13) # 3ffc0000 <_start-0x40040000>
80002a5c:	18010713          	addi	x14,x2,384
80002a60:	40e686b3          	sub	x13,x13,x14
80002a64:	0dd68713          	addi	x14,x13,221
80002a68:	02e12623          	sw	x14,44(x2)
80002a6c:	0880206f          	jal	x0,80004af4 <_vfprintf_r+0x288c>
80002a70:	00412583          	lw	x11,4(x2)
80002a74:	0b410613          	addi	x12,x2,180
80002a78:	00090513          	addi	x10,x18,0
80002a7c:	04612423          	sw	x6,72(x2)
80002a80:	04f12023          	sw	x15,64(x2)
80002a84:	03112e23          	sw	x17,60(x2)
80002a88:	02e12c23          	sw	x14,56(x2)
80002a8c:	0b1020ef          	jal	x1,8000533c <__sprint_r>
80002a90:	38051ae3          	bne	x10,x0,80003624 <_vfprintf_r+0x13bc>
80002a94:	0bc12603          	lw	x12,188(x2)
80002a98:	04812303          	lw	x6,72(x2)
80002a9c:	04012783          	lw	x15,64(x2)
80002aa0:	03c12883          	lw	x17,60(x2)
80002aa4:	03812703          	lw	x14,56(x2)
80002aa8:	00098b13          	addi	x22,x19,0
80002aac:	a31ff06f          	jal	x0,800024dc <_vfprintf_r+0x274>
80002ab0:	0b812a83          	lw	x21,184(x2)
80002ab4:	01812683          	lw	x13,24(x2)
80002ab8:	00100713          	addi	x14,x0,1
80002abc:	00e60633          	add	x12,x12,x14
80002ac0:	00ea8ab3          	add	x21,x21,x14
80002ac4:	008b0d93          	addi	x27,x22,8
80002ac8:	76d75ae3          	bge	x14,x13,80003a3c <_vfprintf_r+0x17d4>
80002acc:	00100713          	addi	x14,x0,1
80002ad0:	00eb2223          	sw	x14,4(x22)
80002ad4:	00fb2023          	sw	x15,0(x22)
80002ad8:	0ac12e23          	sw	x12,188(x2)
80002adc:	0b512c23          	sw	x21,184(x2)
80002ae0:	00700713          	addi	x14,x0,7
80002ae4:	01575463          	bge	x14,x21,80002aec <_vfprintf_r+0x884>
80002ae8:	3c40106f          	jal	x0,80003eac <_vfprintf_r+0x1c44>
80002aec:	02412703          	lw	x14,36(x2)
80002af0:	001a8a93          	addi	x21,x21,1 # 3ffe0001 <_start-0x4001ffff>
80002af4:	0b512c23          	sw	x21,184(x2)
80002af8:	00e60633          	add	x12,x12,x14
80002afc:	02812703          	lw	x14,40(x2)
80002b00:	0ac12e23          	sw	x12,188(x2)
80002b04:	008d8d93          	addi	x27,x27,8
80002b08:	feedac23          	sw	x14,-8(x27)
80002b0c:	02412703          	lw	x14,36(x2)
80002b10:	feedae23          	sw	x14,-4(x27)
80002b14:	00700713          	addi	x14,x0,7
80002b18:	01575463          	bge	x14,x21,80002b20 <_vfprintf_r+0x8b8>
80002b1c:	3bc0106f          	jal	x0,80003ed8 <_vfprintf_r+0x1c70>
80002b20:	0c812703          	lw	x14,200(x2)
80002b24:	0c012503          	lw	x10,192(x2)
80002b28:	0c412583          	lw	x11,196(x2)
80002b2c:	02f12023          	sw	x15,32(x2)
80002b30:	08e12423          	sw	x14,136(x2)
80002b34:	01812783          	lw	x15,24(x2)
80002b38:	0cc12703          	lw	x14,204(x2)
80002b3c:	08a12023          	sw	x10,128(x2)
80002b40:	08b12223          	sw	x11,132(x2)
80002b44:	08010513          	addi	x10,x2,128
80002b48:	07010593          	addi	x11,x2,112
80002b4c:	00c12e23          	sw	x12,28(x2)
80002b50:	06012823          	sw	x0,112(x2)
80002b54:	06012a23          	sw	x0,116(x2)
80002b58:	06012c23          	sw	x0,120(x2)
80002b5c:	06012e23          	sw	x0,124(x2)
80002b60:	08e12623          	sw	x14,140(x2)
80002b64:	fff78b13          	addi	x22,x15,-1
80002b68:	5c10b0ef          	jal	x1,8000e928 <__eqtf2>
80002b6c:	01c12603          	lw	x12,28(x2)
80002b70:	700508e3          	beq	x10,x0,80003a80 <_vfprintf_r+0x1818>
80002b74:	02012783          	lw	x15,32(x2)
80002b78:	001a8a93          	addi	x21,x21,1
80002b7c:	01660633          	add	x12,x12,x22
80002b80:	00178793          	addi	x15,x15,1
80002b84:	0b512c23          	sw	x21,184(x2)
80002b88:	0ac12e23          	sw	x12,188(x2)
80002b8c:	00fda023          	sw	x15,0(x27)
80002b90:	016da223          	sw	x22,4(x27)
80002b94:	00700793          	addi	x15,x0,7
80002b98:	6d57c2e3          	blt	x15,x21,80003a5c <_vfprintf_r+0x17f4>
80002b9c:	008d8d93          	addi	x27,x27,8
80002ba0:	02c12783          	lw	x15,44(x2)
80002ba4:	02c12683          	lw	x13,44(x2)
80002ba8:	0a410713          	addi	x14,x2,164
80002bac:	00c78633          	add	x12,x15,x12
80002bb0:	001a8793          	addi	x15,x21,1
80002bb4:	00eda023          	sw	x14,0(x27)
80002bb8:	0ac12e23          	sw	x12,188(x2)
80002bbc:	0af12c23          	sw	x15,184(x2)
80002bc0:	00dda223          	sw	x13,4(x27)
80002bc4:	00700713          	addi	x14,x0,7
80002bc8:	008d8b13          	addi	x22,x27,8
80002bcc:	98f756e3          	bge	x14,x15,80002558 <_vfprintf_r+0x2f0>
80002bd0:	00412583          	lw	x11,4(x2)
80002bd4:	0b410613          	addi	x12,x2,180
80002bd8:	00090513          	addi	x10,x18,0
80002bdc:	760020ef          	jal	x1,8000533c <__sprint_r>
80002be0:	240512e3          	bne	x10,x0,80003624 <_vfprintf_r+0x13bc>
80002be4:	0bc12603          	lw	x12,188(x2)
80002be8:	00098b13          	addi	x22,x19,0
80002bec:	96dff06f          	jal	x0,80002558 <_vfprintf_r+0x2f0>
80002bf0:	00c12783          	lw	x15,12(x2)
80002bf4:	00c12703          	lw	x14,12(x2)
80002bf8:	080109a3          	sb	x0,147(x2)
80002bfc:	0007a783          	lw	x15,0(x15)
80002c00:	00470493          	addi	x9,x14,4
80002c04:	00079463          	bne	x15,x0,80002c0c <_vfprintf_r+0x9a4>
80002c08:	1400106f          	jal	x0,80003d48 <_vfprintf_r+0x1ae0>
80002c0c:	000ad463          	bge	x21,x0,80002c14 <_vfprintf_r+0x9ac>
80002c10:	22c0106f          	jal	x0,80003e3c <_vfprintf_r+0x1bd4>
80002c14:	00078513          	addi	x10,x15,0
80002c18:	000a8613          	addi	x12,x21,0
80002c1c:	00000593          	addi	x11,x0,0
80002c20:	01112e23          	sw	x17,28(x2)
80002c24:	00f12623          	sw	x15,12(x2)
80002c28:	650030ef          	jal	x1,80006278 <memchr>
80002c2c:	00a12823          	sw	x10,16(x2)
80002c30:	09314703          	lbu	x14,147(x2)
80002c34:	00c12783          	lw	x15,12(x2)
80002c38:	01c12883          	lw	x17,28(x2)
80002c3c:	00051463          	bne	x10,x0,80002c44 <_vfprintf_r+0x9dc>
80002c40:	1140206f          	jal	x0,80004d54 <_vfprintf_r+0x2aec>
80002c44:	40f50cb3          	sub	x25,x10,x15
80002c48:	fffcc693          	xori	x13,x25,-1
80002c4c:	41f6d693          	srai	x13,x13,0x1f
80002c50:	00dcfc33          	and	x24,x25,x13
80002c54:	00070463          	beq	x14,x0,80002c5c <_vfprintf_r+0x9f4>
80002c58:	2180106f          	jal	x0,80003e70 <_vfprintf_r+0x1c08>
80002c5c:	00912623          	sw	x9,12(x2)
80002c60:	0bc12603          	lw	x12,188(x2)
80002c64:	00012823          	sw	x0,16(x2)
80002c68:	02012023          	sw	x0,32(x2)
80002c6c:	00012e23          	sw	x0,28(x2)
80002c70:	084bfd93          	andi	x27,x23,132
80002c74:	00000a93          	addi	x21,x0,0
80002c78:	00000313          	addi	x6,x0,0
80002c7c:	00060813          	addi	x16,x12,0
80002c80:	820d90e3          	bne	x27,x0,800024a0 <_vfprintf_r+0x238>
80002c84:	00012703          	lw	x14,0(x2)
80002c88:	41870733          	sub	x14,x14,x24
80002c8c:	58e044e3          	blt	x0,x14,80003a14 <_vfprintf_r+0x17ac>
80002c90:	09314703          	lbu	x14,147(x2)
80002c94:	80071ae3          	bne	x14,x0,800024a8 <_vfprintf_r+0x240>
80002c98:	419a8ab3          	sub	x21,x21,x25
80002c9c:	895056e3          	bge	x0,x21,80002528 <_vfprintf_r+0x2c0>
80002ca0:	0b812583          	lw	x11,184(x2)
80002ca4:	b7418813          	addi	x16,x3,-1164 # 80011844 <zeroes.0>
80002ca8:	09545663          	bge	x8,x21,80002d34 <_vfprintf_r+0xacc>
80002cac:	000a8493          	addi	x9,x21,0
80002cb0:	02f12e23          	sw	x15,60(x2)
80002cb4:	00700d93          	addi	x27,x0,7
80002cb8:	000b0793          	addi	x15,x22,0
80002cbc:	03112c23          	sw	x17,56(x2)
80002cc0:	00030a93          	addi	x21,x6,0
80002cc4:	000a0b13          	addi	x22,x20,0
80002cc8:	00c0006f          	jal	x0,80002cd4 <_vfprintf_r+0xa6c>
80002ccc:	ff048493          	addi	x9,x9,-16
80002cd0:	04945663          	bge	x8,x9,80002d1c <_vfprintf_r+0xab4>
80002cd4:	01060613          	addi	x12,x12,16
80002cd8:	00158593          	addi	x11,x11,1
80002cdc:	0147a023          	sw	x20,0(x15)
80002ce0:	0087a223          	sw	x8,4(x15)
80002ce4:	0ac12e23          	sw	x12,188(x2)
80002ce8:	0ab12c23          	sw	x11,184(x2)
80002cec:	00878793          	addi	x15,x15,8
80002cf0:	fcbddee3          	bge	x27,x11,80002ccc <_vfprintf_r+0xa64>
80002cf4:	00412583          	lw	x11,4(x2)
80002cf8:	0b410613          	addi	x12,x2,180
80002cfc:	00090513          	addi	x10,x18,0
80002d00:	63c020ef          	jal	x1,8000533c <__sprint_r>
80002d04:	120510e3          	bne	x10,x0,80003624 <_vfprintf_r+0x13bc>
80002d08:	ff048493          	addi	x9,x9,-16
80002d0c:	0bc12603          	lw	x12,188(x2)
80002d10:	0b812583          	lw	x11,184(x2)
80002d14:	00098793          	addi	x15,x19,0
80002d18:	fa944ee3          	blt	x8,x9,80002cd4 <_vfprintf_r+0xa6c>
80002d1c:	000b0813          	addi	x16,x22,0
80002d20:	03812883          	lw	x17,56(x2)
80002d24:	00078b13          	addi	x22,x15,0
80002d28:	03c12783          	lw	x15,60(x2)
80002d2c:	000a8313          	addi	x6,x21,0
80002d30:	00048a93          	addi	x21,x9,0
80002d34:	01560633          	add	x12,x12,x21
80002d38:	00158593          	addi	x11,x11,1
80002d3c:	010b2023          	sw	x16,0(x22)
80002d40:	015b2223          	sw	x21,4(x22)
80002d44:	0ac12e23          	sw	x12,188(x2)
80002d48:	0ab12c23          	sw	x11,184(x2)
80002d4c:	00700713          	addi	x14,x0,7
80002d50:	008b0b13          	addi	x22,x22,8
80002d54:	fcb75a63          	bge	x14,x11,80002528 <_vfprintf_r+0x2c0>
80002d58:	00412583          	lw	x11,4(x2)
80002d5c:	0b410613          	addi	x12,x2,180
80002d60:	00090513          	addi	x10,x18,0
80002d64:	04612023          	sw	x6,64(x2)
80002d68:	02f12e23          	sw	x15,60(x2)
80002d6c:	03112c23          	sw	x17,56(x2)
80002d70:	5cc020ef          	jal	x1,8000533c <__sprint_r>
80002d74:	0a0518e3          	bne	x10,x0,80003624 <_vfprintf_r+0x13bc>
80002d78:	100bf713          	andi	x14,x23,256
80002d7c:	0bc12603          	lw	x12,188(x2)
80002d80:	04012303          	lw	x6,64(x2)
80002d84:	03c12783          	lw	x15,60(x2)
80002d88:	03812883          	lw	x17,56(x2)
80002d8c:	00098b13          	addi	x22,x19,0
80002d90:	fa070063          	beq	x14,x0,80002530 <_vfprintf_r+0x2c8>
80002d94:	06500713          	addi	x14,x0,101
80002d98:	d1175ce3          	bge	x14,x17,80002ab0 <_vfprintf_r+0x848>
80002d9c:	0c412703          	lw	x14,196(x2)
80002da0:	0c012583          	lw	x11,192(x2)
80002da4:	0c812503          	lw	x10,200(x2)
80002da8:	08e12223          	sw	x14,132(x2)
80002dac:	0cc12703          	lw	x14,204(x2)
80002db0:	08b12023          	sw	x11,128(x2)
80002db4:	08a12423          	sw	x10,136(x2)
80002db8:	07010593          	addi	x11,x2,112
80002dbc:	08010513          	addi	x10,x2,128
80002dc0:	02c12e23          	sw	x12,60(x2)
80002dc4:	02f12c23          	sw	x15,56(x2)
80002dc8:	04612023          	sw	x6,64(x2)
80002dcc:	06012823          	sw	x0,112(x2)
80002dd0:	06012a23          	sw	x0,116(x2)
80002dd4:	06012c23          	sw	x0,120(x2)
80002dd8:	06012e23          	sw	x0,124(x2)
80002ddc:	08e12623          	sw	x14,140(x2)
80002de0:	3490b0ef          	jal	x1,8000e928 <__eqtf2>
80002de4:	03812783          	lw	x15,56(x2)
80002de8:	03c12603          	lw	x12,60(x2)
80002dec:	04012303          	lw	x6,64(x2)
80002df0:	200518e3          	bne	x10,x0,80003800 <_vfprintf_r+0x1598>
80002df4:	0b812783          	lw	x15,184(x2)
80002df8:	8a018713          	addi	x14,x3,-1888 # 80011570 <__clz_tab+0x144>
80002dfc:	00eb2023          	sw	x14,0(x22)
80002e00:	00160613          	addi	x12,x12,1
80002e04:	00100713          	addi	x14,x0,1
80002e08:	00178793          	addi	x15,x15,1
80002e0c:	00eb2223          	sw	x14,4(x22)
80002e10:	0ac12e23          	sw	x12,188(x2)
80002e14:	0af12c23          	sw	x15,184(x2)
80002e18:	00700713          	addi	x14,x0,7
80002e1c:	008b0b13          	addi	x22,x22,8
80002e20:	00f75463          	bge	x14,x15,80002e28 <_vfprintf_r+0xbc0>
80002e24:	2200106f          	jal	x0,80004044 <_vfprintf_r+0x1ddc>
80002e28:	09812783          	lw	x15,152(x2)
80002e2c:	01812703          	lw	x14,24(x2)
80002e30:	4ce7d4e3          	bge	x15,x14,80003af8 <_vfprintf_r+0x1890>
80002e34:	02412703          	lw	x14,36(x2)
80002e38:	0b812783          	lw	x15,184(x2)
80002e3c:	008b0b13          	addi	x22,x22,8
80002e40:	00e60633          	add	x12,x12,x14
80002e44:	02812703          	lw	x14,40(x2)
80002e48:	00178793          	addi	x15,x15,1
80002e4c:	0ac12e23          	sw	x12,188(x2)
80002e50:	feeb2c23          	sw	x14,-8(x22)
80002e54:	02412703          	lw	x14,36(x2)
80002e58:	0af12c23          	sw	x15,184(x2)
80002e5c:	feeb2e23          	sw	x14,-4(x22)
80002e60:	00700713          	addi	x14,x0,7
80002e64:	66f742e3          	blt	x14,x15,80003cc8 <_vfprintf_r+0x1a60>
80002e68:	01812783          	lw	x15,24(x2)
80002e6c:	fff78a93          	addi	x21,x15,-1
80002e70:	ef505463          	bge	x0,x21,80002558 <_vfprintf_r+0x2f0>
80002e74:	01000c93          	addi	x25,x0,16
80002e78:	0b812783          	lw	x15,184(x2)
80002e7c:	00700d93          	addi	x27,x0,7
80002e80:	b7418493          	addi	x9,x3,-1164 # 80011844 <zeroes.0>
80002e84:	015cca63          	blt	x25,x21,80002e98 <_vfprintf_r+0xc30>
80002e88:	2990006f          	jal	x0,80003920 <_vfprintf_r+0x16b8>
80002e8c:	ff0a8a93          	addi	x21,x21,-16
80002e90:	015cc463          	blt	x25,x21,80002e98 <_vfprintf_r+0xc30>
80002e94:	2100106f          	jal	x0,800040a4 <_vfprintf_r+0x1e3c>
80002e98:	01060613          	addi	x12,x12,16
80002e9c:	00178793          	addi	x15,x15,1
80002ea0:	009b2023          	sw	x9,0(x22)
80002ea4:	019b2223          	sw	x25,4(x22)
80002ea8:	0ac12e23          	sw	x12,188(x2)
80002eac:	0af12c23          	sw	x15,184(x2)
80002eb0:	008b0b13          	addi	x22,x22,8
80002eb4:	fcfddce3          	bge	x27,x15,80002e8c <_vfprintf_r+0xc24>
80002eb8:	00412583          	lw	x11,4(x2)
80002ebc:	0b410613          	addi	x12,x2,180
80002ec0:	00090513          	addi	x10,x18,0
80002ec4:	478020ef          	jal	x1,8000533c <__sprint_r>
80002ec8:	74051e63          	bne	x10,x0,80003624 <_vfprintf_r+0x13bc>
80002ecc:	0bc12603          	lw	x12,188(x2)
80002ed0:	0b812783          	lw	x15,184(x2)
80002ed4:	00098b13          	addi	x22,x19,0
80002ed8:	fb5ff06f          	jal	x0,80002e8c <_vfprintf_r+0xc24>
80002edc:	020bf793          	andi	x15,x23,32
80002ee0:	0e079863          	bne	x15,x0,80002fd0 <_vfprintf_r+0xd68>
80002ee4:	00c12783          	lw	x15,12(x2)
80002ee8:	010bf713          	andi	x14,x23,16
80002eec:	00478793          	addi	x15,x15,4
80002ef0:	00070463          	beq	x14,x0,80002ef8 <_vfprintf_r+0xc90>
80002ef4:	74d0106f          	jal	x0,80004e40 <_vfprintf_r+0x2bd8>
80002ef8:	00c12683          	lw	x13,12(x2)
80002efc:	040bf713          	andi	x14,x23,64
80002f00:	0006ac03          	lw	x24,0(x13)
80002f04:	00071463          	bne	x14,x0,80002f0c <_vfprintf_r+0xca4>
80002f08:	3080106f          	jal	x0,80004210 <_vfprintf_r+0x1fa8>
80002f0c:	010c1c13          	slli	x24,x24,0x10
80002f10:	410c5c13          	srai	x24,x24,0x10
80002f14:	41fc5e93          	srai	x29,x24,0x1f
80002f18:	00f12623          	sw	x15,12(x2)
80002f1c:	000e8713          	addi	x14,x29,0
80002f20:	0c074a63          	blt	x14,x0,80002ff4 <_vfprintf_r+0xd8c>
80002f24:	0e0ac863          	blt	x21,x0,80003014 <_vfprintf_r+0xdac>
80002f28:	01dc67b3          	or	x15,x24,x29
80002f2c:	f7fbfb93          	andi	x23,x23,-129
80002f30:	0e079263          	bne	x15,x0,80003014 <_vfprintf_r+0xdac>
80002f34:	0e0a9063          	bne	x21,x0,80003014 <_vfprintf_r+0xdac>
80002f38:	09314e83          	lbu	x29,147(x2)
80002f3c:	000e9463          	bne	x29,x0,80002f44 <_vfprintf_r+0xcdc>
80002f40:	2f00106f          	jal	x0,80004230 <_vfprintf_r+0x1fc8>
80002f44:	00000c13          	addi	x24,x0,0
80002f48:	00000313          	addi	x6,x0,0
80002f4c:	00012823          	sw	x0,16(x2)
80002f50:	00000c93          	addi	x25,x0,0
80002f54:	00000a93          	addi	x21,x0,0
80002f58:	18010793          	addi	x15,x2,384
80002f5c:	001c0c13          	addi	x24,x24,1
80002f60:	00031463          	bne	x6,x0,80002f68 <_vfprintf_r+0xd00>
80002f64:	2880206f          	jal	x0,800051ec <_vfprintf_r+0x2f84>
80002f68:	0bc12603          	lw	x12,188(x2)
80002f6c:	0b812583          	lw	x11,184(x2)
80002f70:	084bfd93          	andi	x27,x23,132
80002f74:	002c0c13          	addi	x24,x24,2
80002f78:	00060813          	addi	x16,x12,0
80002f7c:	00058513          	addi	x10,x11,0
80002f80:	700d8463          	beq	x27,x0,80003688 <_vfprintf_r+0x1420>
80002f84:	02012023          	sw	x0,32(x2)
80002f88:	00012e23          	sw	x0,28(x2)
80002f8c:	00000313          	addi	x6,x0,0
80002f90:	d40e8a63          	beq	x29,x0,800024e4 <_vfprintf_r+0x27c>
80002f94:	00200713          	addi	x14,x0,2
80002f98:	d18ff06f          	jal	x0,800024b0 <_vfprintf_r+0x248>
80002f9c:	00c12783          	lw	x15,12(x2)
80002fa0:	00100c93          	addi	x25,x0,1
80002fa4:	080109a3          	sb	x0,147(x2)
80002fa8:	0007a783          	lw	x15,0(x15)
80002fac:	10f10e23          	sb	x15,284(x2)
80002fb0:	00c12783          	lw	x15,12(x2)
80002fb4:	00478793          	addi	x15,x15,4
80002fb8:	00f12623          	sw	x15,12(x2)
80002fbc:	cb8ff06f          	jal	x0,80002474 <_vfprintf_r+0x20c>
80002fc0:	020bf793          	andi	x15,x23,32
80002fc4:	010bee13          	ori	x28,x23,16
80002fc8:	3e0788e3          	beq	x15,x0,80003bb8 <_vfprintf_r+0x1950>
80002fcc:	000e0b93          	addi	x23,x28,0
80002fd0:	00c12783          	lw	x15,12(x2)
80002fd4:	00778793          	addi	x15,x15,7
80002fd8:	ff87f793          	andi	x15,x15,-8
80002fdc:	0047a703          	lw	x14,4(x15)
80002fe0:	00878693          	addi	x13,x15,8
80002fe4:	00d12623          	sw	x13,12(x2)
80002fe8:	0007ac03          	lw	x24,0(x15)
80002fec:	00070e93          	addi	x29,x14,0
80002ff0:	f2075ae3          	bge	x14,x0,80002f24 <_vfprintf_r+0xcbc>
80002ff4:	018037b3          	sltu	x15,x0,x24
80002ff8:	41d00eb3          	sub	x29,x0,x29
80002ffc:	40fe8eb3          	sub	x29,x29,x15
80003000:	02d00793          	addi	x15,x0,45
80003004:	08f109a3          	sb	x15,147(x2)
80003008:	41800c33          	sub	x24,x0,x24
8000300c:	000ac463          	blt	x21,x0,80003014 <_vfprintf_r+0xdac>
80003010:	f7fbfb93          	andi	x23,x23,-129
80003014:	260e9e63          	bne	x29,x0,80003290 <_vfprintf_r+0x1028>
80003018:	00900793          	addi	x15,x0,9
8000301c:	2787ea63          	bltu	x15,x24,80003290 <_vfprintf_r+0x1028>
80003020:	030c0c13          	addi	x24,x24,48
80003024:	17810fa3          	sb	x24,383(x2)
80003028:	000a8c13          	addi	x24,x21,0
8000302c:	3f5050e3          	bge	x0,x21,80003c0c <_vfprintf_r+0x19a4>
80003030:	09314e83          	lbu	x29,147(x2)
80003034:	00000313          	addi	x6,x0,0
80003038:	00100c93          	addi	x25,x0,1
8000303c:	17f10793          	addi	x15,x2,383
80003040:	00012823          	sw	x0,16(x2)
80003044:	f00e8ee3          	beq	x29,x0,80002f60 <_vfprintf_r+0xcf8>
80003048:	001c0c13          	addi	x24,x24,1
8000304c:	f15ff06f          	jal	x0,80002f60 <_vfprintf_r+0xcf8>
80003050:	00c12783          	lw	x15,12(x2)
80003054:	0007a783          	lw	x15,0(x15)
80003058:	00f12023          	sw	x15,0(x2)
8000305c:	2a07d6e3          	bge	x15,x0,80003b08 <_vfprintf_r+0x18a0>
80003060:	00012783          	lw	x15,0(x2)
80003064:	40f007b3          	sub	x15,x0,x15
80003068:	00f12023          	sw	x15,0(x2)
8000306c:	00c12783          	lw	x15,12(x2)
80003070:	00478793          	addi	x15,x15,4
80003074:	00f12623          	sw	x15,12(x2)
80003078:	000d4883          	lbu	x17,0(x26)
8000307c:	004beb93          	ori	x23,x23,4
80003080:	b80ff06f          	jal	x0,80002400 <_vfprintf_r+0x198>
80003084:	02b00793          	addi	x15,x0,43
80003088:	000d4883          	lbu	x17,0(x26)
8000308c:	08f109a3          	sb	x15,147(x2)
80003090:	b70ff06f          	jal	x0,80002400 <_vfprintf_r+0x198>
80003094:	000d4883          	lbu	x17,0(x26)
80003098:	080beb93          	ori	x23,x23,128
8000309c:	b64ff06f          	jal	x0,80002400 <_vfprintf_r+0x198>
800030a0:	000d4883          	lbu	x17,0(x26)
800030a4:	02a00793          	addi	x15,x0,42
800030a8:	001d0693          	addi	x13,x26,1
800030ac:	00f89463          	bne	x17,x15,800030b4 <_vfprintf_r+0xe4c>
800030b0:	06c0206f          	jal	x0,8000511c <_vfprintf_r+0x2eb4>
800030b4:	fd088793          	addi	x15,x17,-48
800030b8:	00900613          	addi	x12,x0,9
800030bc:	00000a93          	addi	x21,x0,0
800030c0:	02f66463          	bltu	x12,x15,800030e8 <_vfprintf_r+0xe80>
800030c4:	002a9713          	slli	x14,x21,0x2
800030c8:	0006c883          	lbu	x17,0(x13)
800030cc:	01570ab3          	add	x21,x14,x21
800030d0:	001a9a93          	slli	x21,x21,0x1
800030d4:	00fa8ab3          	add	x21,x21,x15
800030d8:	fd088793          	addi	x15,x17,-48
800030dc:	00168693          	addi	x13,x13,1
800030e0:	fef672e3          	bgeu	x12,x15,800030c4 <_vfprintf_r+0xe5c>
800030e4:	3a0acce3          	blt	x21,x0,80003c9c <_vfprintf_r+0x1a34>
800030e8:	00068d13          	addi	x26,x13,0
800030ec:	b18ff06f          	jal	x0,80002404 <_vfprintf_r+0x19c>
800030f0:	00090513          	addi	x10,x18,0
800030f4:	2d8030ef          	jal	x1,800063cc <_localeconv_r>
800030f8:	00452783          	lw	x15,4(x10)
800030fc:	00078513          	addi	x10,x15,0
80003100:	02f12a23          	sw	x15,52(x2)
80003104:	cd9fe0ef          	jal	x1,80001ddc <strlen>
80003108:	00050493          	addi	x9,x10,0
8000310c:	00090513          	addi	x10,x18,0
80003110:	04912223          	sw	x9,68(x2)
80003114:	2b8030ef          	jal	x1,800063cc <_localeconv_r>
80003118:	00852703          	lw	x14,8(x10)
8000311c:	000d4883          	lbu	x17,0(x26)
80003120:	02e12823          	sw	x14,48(x2)
80003124:	ac048e63          	beq	x9,x0,80002400 <_vfprintf_r+0x198>
80003128:	ac070c63          	beq	x14,x0,80002400 <_vfprintf_r+0x198>
8000312c:	00074783          	lbu	x15,0(x14)
80003130:	ac078863          	beq	x15,x0,80002400 <_vfprintf_r+0x198>
80003134:	400beb93          	ori	x23,x23,1024
80003138:	ac8ff06f          	jal	x0,80002400 <_vfprintf_r+0x198>
8000313c:	000d4883          	lbu	x17,0(x26)
80003140:	001beb93          	ori	x23,x23,1
80003144:	abcff06f          	jal	x0,80002400 <_vfprintf_r+0x198>
80003148:	09314783          	lbu	x15,147(x2)
8000314c:	000d4883          	lbu	x17,0(x26)
80003150:	aa079863          	bne	x15,x0,80002400 <_vfprintf_r+0x198>
80003154:	02000793          	addi	x15,x0,32
80003158:	08f109a3          	sb	x15,147(x2)
8000315c:	aa4ff06f          	jal	x0,80002400 <_vfprintf_r+0x198>
80003160:	020bf793          	andi	x15,x23,32
80003164:	010be693          	ori	x13,x23,16
80003168:	200788e3          	beq	x15,x0,80003b78 <_vfprintf_r+0x1910>
8000316c:	00c12783          	lw	x15,12(x2)
80003170:	00778793          	addi	x15,x15,7
80003174:	ff87f793          	andi	x15,x15,-8
80003178:	00878713          	addi	x14,x15,8
8000317c:	00e12623          	sw	x14,12(x2)
80003180:	0047a603          	lw	x12,4(x15)
80003184:	0007a703          	lw	x14,0(x15)
80003188:	080109a3          	sb	x0,147(x2)
8000318c:	bff6fb93          	andi	x23,x13,-1025
80003190:	600ac663          	blt	x21,x0,8000379c <_vfprintf_r+0x1534>
80003194:	00c767b3          	or	x15,x14,x12
80003198:	b7f6fb93          	andi	x23,x13,-1153
8000319c:	60079063          	bne	x15,x0,8000379c <_vfprintf_r+0x1534>
800031a0:	5e0a9e63          	bne	x21,x0,8000379c <_vfprintf_r+0x1534>
800031a4:	0016fc13          	andi	x24,x13,1
800031a8:	060c0ae3          	beq	x24,x0,80003a1c <_vfprintf_r+0x17b4>
800031ac:	03000793          	addi	x15,x0,48
800031b0:	16f10fa3          	sb	x15,383(x2)
800031b4:	000c0c93          	addi	x25,x24,0
800031b8:	00012823          	sw	x0,16(x2)
800031bc:	02012023          	sw	x0,32(x2)
800031c0:	00012e23          	sw	x0,28(x2)
800031c4:	00000313          	addi	x6,x0,0
800031c8:	17f10793          	addi	x15,x2,383
800031cc:	ac4ff06f          	jal	x0,80002490 <_vfprintf_r+0x228>
800031d0:	000d4883          	lbu	x17,0(x26)
800031d4:	06800793          	addi	x15,x0,104
800031d8:	2ef880e3          	beq	x17,x15,80003cb8 <_vfprintf_r+0x1a50>
800031dc:	040beb93          	ori	x23,x23,64
800031e0:	a20ff06f          	jal	x0,80002400 <_vfprintf_r+0x198>
800031e4:	00c12703          	lw	x14,12(x2)
800031e8:	020bf793          	andi	x15,x23,32
800031ec:	00470713          	addi	x14,x14,4
800031f0:	1a0792e3          	bne	x15,x0,80003b94 <_vfprintf_r+0x192c>
800031f4:	010bf793          	andi	x15,x23,16
800031f8:	740790e3          	bne	x15,x0,80004138 <_vfprintf_r+0x1ed0>
800031fc:	040bf793          	andi	x15,x23,64
80003200:	00078463          	beq	x15,x0,80003208 <_vfprintf_r+0xfa0>
80003204:	4000106f          	jal	x0,80004604 <_vfprintf_r+0x239c>
80003208:	200bfe13          	andi	x28,x23,512
8000320c:	720e06e3          	beq	x28,x0,80004138 <_vfprintf_r+0x1ed0>
80003210:	00c12783          	lw	x15,12(x2)
80003214:	00812683          	lw	x13,8(x2)
80003218:	00e12623          	sw	x14,12(x2)
8000321c:	0007a783          	lw	x15,0(x15)
80003220:	00d78023          	sb	x13,0(x15)
80003224:	948ff06f          	jal	x0,8000236c <_vfprintf_r+0x104>
80003228:	000d4883          	lbu	x17,0(x26)
8000322c:	06c00793          	addi	x15,x0,108
80003230:	26f88ce3          	beq	x17,x15,80003ca8 <_vfprintf_r+0x1a40>
80003234:	010beb93          	ori	x23,x23,16
80003238:	9c8ff06f          	jal	x0,80002400 <_vfprintf_r+0x198>
8000323c:	020bf793          	andi	x15,x23,32
80003240:	24079863          	bne	x15,x0,80003490 <_vfprintf_r+0x1228>
80003244:	010bf793          	andi	x15,x23,16
80003248:	00078463          	beq	x15,x0,80003250 <_vfprintf_r+0xfe8>
8000324c:	3ed0106f          	jal	x0,80004e38 <_vfprintf_r+0x2bd0>
80003250:	00c12703          	lw	x14,12(x2)
80003254:	040bf793          	andi	x15,x23,64
80003258:	00072c03          	lw	x24,0(x14)
8000325c:	00470713          	addi	x14,x14,4
80003260:	00e12623          	sw	x14,12(x2)
80003264:	00079463          	bne	x15,x0,8000326c <_vfprintf_r+0x1004>
80003268:	77d0006f          	jal	x0,800041e4 <_vfprintf_r+0x1f7c>
8000326c:	010c1c13          	slli	x24,x24,0x10
80003270:	080109a3          	sb	x0,147(x2)
80003274:	010c5c13          	srli	x24,x24,0x10
80003278:	00000e93          	addi	x29,x0,0
8000327c:	d80acce3          	blt	x21,x0,80003014 <_vfprintf_r+0xdac>
80003280:	018ae333          	or	x6,x21,x24
80003284:	f7fbfb93          	andi	x23,x23,-129
80003288:	16030463          	beq	x6,x0,800033f0 <_vfprintf_r+0x1188>
8000328c:	d80e86e3          	beq	x29,x0,80003018 <_vfprintf_r+0xdb0>
80003290:	ccccdcb7          	lui	x25,0xccccd
80003294:	ccccddb7          	lui	x27,0xccccd
80003298:	ccdc8c93          	addi	x25,x25,-819 # cccccccd <_stack_top+0x44cccccd>
8000329c:	cccd8d93          	addi	x27,x27,-820 # cccccccc <_stack_top+0x44cccccc>
800032a0:	400bf813          	andi	x16,x23,1024
800032a4:	00000593          	addi	x11,x0,0
800032a8:	18010613          	addi	x12,x2,384
800032ac:	00088493          	addi	x9,x17,0
800032b0:	0800006f          	jal	x0,80003330 <_vfprintf_r+0x10c8>
800032b4:	03012703          	lw	x14,48(x2)
800032b8:	00074703          	lbu	x14,0(x14)
800032bc:	f0170693          	addi	x13,x14,-255
800032c0:	00068463          	beq	x13,x0,800032c8 <_vfprintf_r+0x1060>
800032c4:	5ab704e3          	beq	x14,x11,8000406c <_vfprintf_r+0x1e04>
800032c8:	000c0313          	addi	x6,x24,0
800032cc:	000e8513          	addi	x10,x29,0
800032d0:	00078613          	addi	x12,x15,0
800032d4:	01dc0733          	add	x14,x24,x29
800032d8:	018736b3          	sltu	x13,x14,x24
800032dc:	00d70733          	add	x14,x14,x13
800032e0:	039736b3          	mulhu	x13,x14,x25
800032e4:	0026de13          	srli	x28,x13,0x2
800032e8:	ffc6f693          	andi	x13,x13,-4
800032ec:	01c686b3          	add	x13,x13,x28
800032f0:	40d70733          	sub	x14,x14,x13
800032f4:	40ec0733          	sub	x14,x24,x14
800032f8:	00ec36b3          	sltu	x13,x24,x14
800032fc:	40de86b3          	sub	x13,x29,x13
80003300:	039686b3          	mul	x13,x13,x25
80003304:	03b70eb3          	mul	x29,x14,x27
80003308:	03973e33          	mulhu	x28,x14,x25
8000330c:	01d686b3          	add	x13,x13,x29
80003310:	03970733          	mul	x14,x14,x25
80003314:	01c686b3          	add	x13,x13,x28
80003318:	01f69e13          	slli	x28,x13,0x1f
8000331c:	0016de93          	srli	x29,x13,0x1
80003320:	00175713          	srli	x14,x14,0x1
80003324:	00ee0c33          	add	x24,x28,x14
80003328:	00051463          	bne	x10,x0,80003330 <_vfprintf_r+0x10c8>
8000332c:	2190106f          	jal	x0,80004d44 <_vfprintf_r+0x2adc>
80003330:	01dc0733          	add	x14,x24,x29
80003334:	018736b3          	sltu	x13,x14,x24
80003338:	00d706b3          	add	x13,x14,x13
8000333c:	0396b533          	mulhu	x10,x13,x25
80003340:	00158593          	addi	x11,x11,1
80003344:	fff60793          	addi	x15,x12,-1
80003348:	00255313          	srli	x6,x10,0x2
8000334c:	ffc57513          	andi	x10,x10,-4
80003350:	00650533          	add	x10,x10,x6
80003354:	40a686b3          	sub	x13,x13,x10
80003358:	40dc06b3          	sub	x13,x24,x13
8000335c:	00dc3533          	sltu	x10,x24,x13
80003360:	40ae8533          	sub	x10,x29,x10
80003364:	0396b333          	mulhu	x6,x13,x25
80003368:	03950533          	mul	x10,x10,x25
8000336c:	039686b3          	mul	x13,x13,x25
80003370:	00650533          	add	x10,x10,x6
80003374:	01f51513          	slli	x10,x10,0x1f
80003378:	0016d693          	srli	x13,x13,0x1
8000337c:	00d506b3          	add	x13,x10,x13
80003380:	00269513          	slli	x10,x13,0x2
80003384:	00d506b3          	add	x13,x10,x13
80003388:	00169693          	slli	x13,x13,0x1
8000338c:	40dc06b3          	sub	x13,x24,x13
80003390:	03068693          	addi	x13,x13,48
80003394:	fed60fa3          	sb	x13,-1(x12)
80003398:	f0081ee3          	bne	x16,x0,800032b4 <_vfprintf_r+0x104c>
8000339c:	000c0313          	addi	x6,x24,0
800033a0:	000e8513          	addi	x10,x29,0
800033a4:	00078613          	addi	x12,x15,0
800033a8:	f31ff06f          	jal	x0,800032d8 <_vfprintf_r+0x1070>
800033ac:	000087b7          	lui	x15,0x8
800033b0:	83078793          	addi	x15,x15,-2000 # 7830 <_start-0x7fff87d0>
800033b4:	00c12703          	lw	x14,12(x2)
800033b8:	08f11a23          	sh	x15,148(x2)
800033bc:	00c12783          	lw	x15,12(x2)
800033c0:	080109a3          	sb	x0,147(x2)
800033c4:	00072703          	lw	x14,0(x14)
800033c8:	00478793          	addi	x15,x15,4
800033cc:	00000613          	addi	x12,x0,0
800033d0:	040acee3          	blt	x21,x0,80003c2c <_vfprintf_r+0x19c4>
800033d4:	f7fbfe13          	andi	x28,x23,-129
800033d8:	002e6b93          	ori	x23,x28,2
800033dc:	560a9ae3          	bne	x21,x0,80004150 <_vfprintf_r+0x1ee8>
800033e0:	560718e3          	bne	x14,x0,80004150 <_vfprintf_r+0x1ee8>
800033e4:	00f12623          	sw	x15,12(x2)
800033e8:	00200313          	addi	x6,x0,2
800033ec:	07800893          	addi	x17,x0,120
800033f0:	09314e83          	lbu	x29,147(x2)
800033f4:	00000a93          	addi	x21,x0,0
800033f8:	00000c13          	addi	x24,x0,0
800033fc:	00000c93          	addi	x25,x0,0
80003400:	18010793          	addi	x15,x2,384
80003404:	00012823          	sw	x0,16(x2)
80003408:	c3dff06f          	jal	x0,80003044 <_vfprintf_r+0xddc>
8000340c:	020bf793          	andi	x15,x23,32
80003410:	7e079a63          	bne	x15,x0,80003c04 <_vfprintf_r+0x199c>
80003414:	00c12783          	lw	x15,12(x2)
80003418:	010bf713          	andi	x14,x23,16
8000341c:	00478793          	addi	x15,x15,4
80003420:	00070463          	beq	x14,x0,80003428 <_vfprintf_r+0x11c0>
80003424:	2050106f          	jal	x0,80004e28 <_vfprintf_r+0x2bc0>
80003428:	00c12703          	lw	x14,12(x2)
8000342c:	040bf693          	andi	x13,x23,64
80003430:	00072703          	lw	x14,0(x14)
80003434:	58068ae3          	beq	x13,x0,800041c8 <_vfprintf_r+0x1f60>
80003438:	01071713          	slli	x14,x14,0x10
8000343c:	01075713          	srli	x14,x14,0x10
80003440:	00f12623          	sw	x15,12(x2)
80003444:	000b8693          	addi	x13,x23,0
80003448:	00000613          	addi	x12,x0,0
8000344c:	d3dff06f          	jal	x0,80003188 <_vfprintf_r+0xf20>
80003450:	020bf793          	andi	x15,x23,32
80003454:	010bee13          	ori	x28,x23,16
80003458:	02079e63          	bne	x15,x0,80003494 <_vfprintf_r+0x122c>
8000345c:	00c12783          	lw	x15,12(x2)
80003460:	00c12703          	lw	x14,12(x2)
80003464:	080109a3          	sb	x0,147(x2)
80003468:	00478793          	addi	x15,x15,4
8000346c:	00072c03          	lw	x24,0(x14)
80003470:	00000e93          	addi	x29,x0,0
80003474:	640acee3          	blt	x21,x0,800042d0 <_vfprintf_r+0x2068>
80003478:	00f12623          	sw	x15,12(x2)
8000347c:	f7fe7b93          	andi	x23,x28,-129
80003480:	b80c1ce3          	bne	x24,x0,80003018 <_vfprintf_r+0xdb0>
80003484:	b80a9ae3          	bne	x21,x0,80003018 <_vfprintf_r+0xdb0>
80003488:	00000313          	addi	x6,x0,0
8000348c:	f65ff06f          	jal	x0,800033f0 <_vfprintf_r+0x1188>
80003490:	000b8e13          	addi	x28,x23,0
80003494:	00c12783          	lw	x15,12(x2)
80003498:	080109a3          	sb	x0,147(x2)
8000349c:	00778793          	addi	x15,x15,7
800034a0:	ff87f793          	andi	x15,x15,-8
800034a4:	00878713          	addi	x14,x15,8
800034a8:	00e12623          	sw	x14,12(x2)
800034ac:	0007ac03          	lw	x24,0(x15)
800034b0:	0047ae83          	lw	x29,4(x15)
800034b4:	760ac863          	blt	x21,x0,80003c24 <_vfprintf_r+0x19bc>
800034b8:	f7fe7b93          	andi	x23,x28,-129
800034bc:	b40a9ce3          	bne	x21,x0,80003014 <_vfprintf_r+0xdac>
800034c0:	01dc67b3          	or	x15,x24,x29
800034c4:	b40798e3          	bne	x15,x0,80003014 <_vfprintf_r+0xdac>
800034c8:	00000313          	addi	x6,x0,0
800034cc:	f25ff06f          	jal	x0,800033f0 <_vfprintf_r+0x1188>
800034d0:	000d4883          	lbu	x17,0(x26)
800034d4:	008beb93          	ori	x23,x23,8
800034d8:	f29fe06f          	jal	x0,80002400 <_vfprintf_r+0x198>
800034dc:	00012703          	lw	x14,0(x2)
800034e0:	41870db3          	sub	x27,x14,x24
800034e4:	01b04463          	blt	x0,x27,800034ec <_vfprintf_r+0x1284>
800034e8:	838ff06f          	jal	x0,80002520 <_vfprintf_r+0x2b8>
800034ec:	01000e93          	addi	x29,x0,16
800034f0:	0b812583          	lw	x11,184(x2)
800034f4:	01bec463          	blt	x29,x27,800034fc <_vfprintf_r+0x1294>
800034f8:	1a90106f          	jal	x0,80004ea0 <_vfprintf_r+0x2c38>
800034fc:	000d8493          	addi	x9,x27,0
80003500:	02f12e23          	sw	x15,60(x2)
80003504:	000d0d93          	addi	x27,x26,0
80003508:	000b0793          	addi	x15,x22,0
8000350c:	000c8d13          	addi	x26,x25,0
80003510:	00700293          	addi	x5,x0,7
80003514:	000c0c93          	addi	x25,x24,0
80003518:	03112c23          	sw	x17,56(x2)
8000351c:	000a8c13          	addi	x24,x21,0
80003520:	00030b13          	addi	x22,x6,0
80003524:	b7418a93          	addi	x21,x3,-1164 # 80011844 <zeroes.0>
80003528:	00c0006f          	jal	x0,80003534 <_vfprintf_r+0x12cc>
8000352c:	ff048493          	addi	x9,x9,-16
80003530:	049eda63          	bge	x29,x9,80003584 <_vfprintf_r+0x131c>
80003534:	01060613          	addi	x12,x12,16
80003538:	00158593          	addi	x11,x11,1
8000353c:	0157a023          	sw	x21,0(x15)
80003540:	01d7a223          	sw	x29,4(x15)
80003544:	0ac12e23          	sw	x12,188(x2)
80003548:	0ab12c23          	sw	x11,184(x2)
8000354c:	00878793          	addi	x15,x15,8
80003550:	fcb2dee3          	bge	x5,x11,8000352c <_vfprintf_r+0x12c4>
80003554:	00412583          	lw	x11,4(x2)
80003558:	0b410613          	addi	x12,x2,180
8000355c:	00090513          	addi	x10,x18,0
80003560:	5dd010ef          	jal	x1,8000533c <__sprint_r>
80003564:	0c051063          	bne	x10,x0,80003624 <_vfprintf_r+0x13bc>
80003568:	01000e93          	addi	x29,x0,16
8000356c:	ff048493          	addi	x9,x9,-16
80003570:	0bc12603          	lw	x12,188(x2)
80003574:	0b812583          	lw	x11,184(x2)
80003578:	00098793          	addi	x15,x19,0
8000357c:	00700293          	addi	x5,x0,7
80003580:	fa9ecae3          	blt	x29,x9,80003534 <_vfprintf_r+0x12cc>
80003584:	000b0313          	addi	x6,x22,0
80003588:	03812883          	lw	x17,56(x2)
8000358c:	00078b13          	addi	x22,x15,0
80003590:	03c12783          	lw	x15,60(x2)
80003594:	000a8813          	addi	x16,x21,0
80003598:	000c0a93          	addi	x21,x24,0
8000359c:	000c8c13          	addi	x24,x25,0
800035a0:	000d0c93          	addi	x25,x26,0
800035a4:	000d8d13          	addi	x26,x27,0
800035a8:	00048d93          	addi	x27,x9,0
800035ac:	01b60633          	add	x12,x12,x27
800035b0:	00158593          	addi	x11,x11,1
800035b4:	010b2023          	sw	x16,0(x22)
800035b8:	01bb2223          	sw	x27,4(x22)
800035bc:	0ac12e23          	sw	x12,188(x2)
800035c0:	0ab12c23          	sw	x11,184(x2)
800035c4:	00700713          	addi	x14,x0,7
800035c8:	008b0b13          	addi	x22,x22,8
800035cc:	00b74463          	blt	x14,x11,800035d4 <_vfprintf_r+0x136c>
800035d0:	f51fe06f          	jal	x0,80002520 <_vfprintf_r+0x2b8>
800035d4:	00412583          	lw	x11,4(x2)
800035d8:	0b410613          	addi	x12,x2,180
800035dc:	00090513          	addi	x10,x18,0
800035e0:	04612023          	sw	x6,64(x2)
800035e4:	02f12e23          	sw	x15,60(x2)
800035e8:	03112c23          	sw	x17,56(x2)
800035ec:	551010ef          	jal	x1,8000533c <__sprint_r>
800035f0:	02051a63          	bne	x10,x0,80003624 <_vfprintf_r+0x13bc>
800035f4:	0bc12603          	lw	x12,188(x2)
800035f8:	03812883          	lw	x17,56(x2)
800035fc:	03c12783          	lw	x15,60(x2)
80003600:	04012303          	lw	x6,64(x2)
80003604:	00098b13          	addi	x22,x19,0
80003608:	f19fe06f          	jal	x0,80002520 <_vfprintf_r+0x2b8>
8000360c:	00412583          	lw	x11,4(x2)
80003610:	0b410613          	addi	x12,x2,180
80003614:	00090513          	addi	x10,x18,0
80003618:	525010ef          	jal	x1,8000533c <__sprint_r>
8000361c:	00051463          	bne	x10,x0,80003624 <_vfprintf_r+0x13bc>
80003620:	f71fe06f          	jal	x0,80002590 <_vfprintf_r+0x328>
80003624:	01012583          	lw	x11,16(x2)
80003628:	00412483          	lw	x9,4(x2)
8000362c:	00058663          	beq	x11,x0,80003638 <_vfprintf_r+0x13d0>
80003630:	00090513          	addi	x10,x18,0
80003634:	955fe0ef          	jal	x1,80001f88 <_free_r>
80003638:	00c4d783          	lhu	x15,12(x9)
8000363c:	1b812403          	lw	x8,440(x2)
80003640:	1ac12983          	lw	x19,428(x2)
80003644:	0407f793          	andi	x15,x15,64
80003648:	1a812a03          	lw	x20,424(x2)
8000364c:	1a412a83          	lw	x21,420(x2)
80003650:	1a012b03          	lw	x22,416(x2)
80003654:	19c12b83          	lw	x23,412(x2)
80003658:	19812c03          	lw	x24,408(x2)
8000365c:	19412c83          	lw	x25,404(x2)
80003660:	18c12d83          	lw	x27,396(x2)
80003664:	00078463          	beq	x15,x0,8000366c <_vfprintf_r+0x1404>
80003668:	fc9fe06f          	jal	x0,80002630 <_vfprintf_r+0x3c8>
8000366c:	1bc12083          	lw	x1,444(x2)
80003670:	00812503          	lw	x10,8(x2)
80003674:	1b412483          	lw	x9,436(x2)
80003678:	1b012903          	lw	x18,432(x2)
8000367c:	19012d03          	lw	x26,400(x2)
80003680:	1c010113          	addi	x2,x2,448
80003684:	00008067          	jalr	x0,0(x1)
80003688:	00012703          	lw	x14,0(x2)
8000368c:	02012023          	sw	x0,32(x2)
80003690:	00012e23          	sw	x0,28(x2)
80003694:	41870733          	sub	x14,x14,x24
80003698:	00000313          	addi	x6,x0,0
8000369c:	28e04663          	blt	x0,x14,80003928 <_vfprintf_r+0x16c0>
800036a0:	000e9463          	bne	x29,x0,800036a8 <_vfprintf_r+0x1440>
800036a4:	e41fe06f          	jal	x0,800024e4 <_vfprintf_r+0x27c>
800036a8:	00200713          	addi	x14,x0,2
800036ac:	e05fe06f          	jal	x0,800024b0 <_vfprintf_r+0x248>
800036b0:	00412583          	lw	x11,4(x2)
800036b4:	0b410613          	addi	x12,x2,180
800036b8:	00090513          	addi	x10,x18,0
800036bc:	04612023          	sw	x6,64(x2)
800036c0:	02f12e23          	sw	x15,60(x2)
800036c4:	03112c23          	sw	x17,56(x2)
800036c8:	475010ef          	jal	x1,8000533c <__sprint_r>
800036cc:	f4051ce3          	bne	x10,x0,80003624 <_vfprintf_r+0x13bc>
800036d0:	0bc12603          	lw	x12,188(x2)
800036d4:	04012303          	lw	x6,64(x2)
800036d8:	03c12783          	lw	x15,60(x2)
800036dc:	03812883          	lw	x17,56(x2)
800036e0:	00098b13          	addi	x22,x19,0
800036e4:	e31fe06f          	jal	x0,80002514 <_vfprintf_r+0x2ac>
800036e8:	01000c93          	addi	x25,x0,16
800036ec:	0b812783          	lw	x15,184(x2)
800036f0:	015cc463          	blt	x25,x21,800036f8 <_vfprintf_r+0x1490>
800036f4:	73c0106f          	jal	x0,80004e30 <_vfprintf_r+0x2bc8>
800036f8:	00412483          	lw	x9,4(x2)
800036fc:	00700d93          	addi	x27,x0,7
80003700:	b8418b93          	addi	x23,x3,-1148 # 80011854 <blanks.1>
80003704:	00c0006f          	jal	x0,80003710 <_vfprintf_r+0x14a8>
80003708:	ff0a8a93          	addi	x21,x21,-16
8000370c:	055cd663          	bge	x25,x21,80003758 <_vfprintf_r+0x14f0>
80003710:	01060613          	addi	x12,x12,16
80003714:	00178793          	addi	x15,x15,1
80003718:	017b2023          	sw	x23,0(x22)
8000371c:	019b2223          	sw	x25,4(x22)
80003720:	0ac12e23          	sw	x12,188(x2)
80003724:	0af12c23          	sw	x15,184(x2)
80003728:	008b0b13          	addi	x22,x22,8
8000372c:	fcfddee3          	bge	x27,x15,80003708 <_vfprintf_r+0x14a0>
80003730:	0b410613          	addi	x12,x2,180
80003734:	00048593          	addi	x11,x9,0
80003738:	00090513          	addi	x10,x18,0
8000373c:	401010ef          	jal	x1,8000533c <__sprint_r>
80003740:	120512e3          	bne	x10,x0,80004064 <_vfprintf_r+0x1dfc>
80003744:	ff0a8a93          	addi	x21,x21,-16
80003748:	0bc12603          	lw	x12,188(x2)
8000374c:	0b812783          	lw	x15,184(x2)
80003750:	00098b13          	addi	x22,x19,0
80003754:	fb5ccee3          	blt	x25,x21,80003710 <_vfprintf_r+0x14a8>
80003758:	000b8813          	addi	x16,x23,0
8000375c:	01560633          	add	x12,x12,x21
80003760:	00178793          	addi	x15,x15,1
80003764:	0ac12e23          	sw	x12,188(x2)
80003768:	0af12c23          	sw	x15,184(x2)
8000376c:	010b2023          	sw	x16,0(x22)
80003770:	015b2223          	sw	x21,4(x22)
80003774:	00700713          	addi	x14,x0,7
80003778:	00f74463          	blt	x14,x15,80003780 <_vfprintf_r+0x1518>
8000377c:	df5fe06f          	jal	x0,80002570 <_vfprintf_r+0x308>
80003780:	00412583          	lw	x11,4(x2)
80003784:	0b410613          	addi	x12,x2,180
80003788:	00090513          	addi	x10,x18,0
8000378c:	3b1010ef          	jal	x1,8000533c <__sprint_r>
80003790:	e8051ae3          	bne	x10,x0,80003624 <_vfprintf_r+0x13bc>
80003794:	0bc12603          	lw	x12,188(x2)
80003798:	dd9fe06f          	jal	x0,80002570 <_vfprintf_r+0x308>
8000379c:	18010793          	addi	x15,x2,384
800037a0:	01d61593          	slli	x11,x12,0x1d
800037a4:	00777693          	andi	x13,x14,7
800037a8:	00375713          	srli	x14,x14,0x3
800037ac:	00078513          	addi	x10,x15,0
800037b0:	00e58733          	add	x14,x11,x14
800037b4:	03068693          	addi	x13,x13,48
800037b8:	00365613          	srli	x12,x12,0x3
800037bc:	00c765b3          	or	x11,x14,x12
800037c0:	fed78fa3          	sb	x13,-1(x15)
800037c4:	fff78793          	addi	x15,x15,-1
800037c8:	fc059ce3          	bne	x11,x0,800037a0 <_vfprintf_r+0x1538>
800037cc:	fd068693          	addi	x13,x13,-48
800037d0:	00068663          	beq	x13,x0,800037dc <_vfprintf_r+0x1574>
800037d4:	001bf713          	andi	x14,x23,1
800037d8:	36071463          	bne	x14,x0,80003b40 <_vfprintf_r+0x18d8>
800037dc:	18010713          	addi	x14,x2,384
800037e0:	40f70cb3          	sub	x25,x14,x15
800037e4:	000a8c13          	addi	x24,x21,0
800037e8:	359ac063          	blt	x21,x25,80003b28 <_vfprintf_r+0x18c0>
800037ec:	00012823          	sw	x0,16(x2)
800037f0:	02012023          	sw	x0,32(x2)
800037f4:	00012e23          	sw	x0,28(x2)
800037f8:	00000313          	addi	x6,x0,0
800037fc:	c95fe06f          	jal	x0,80002490 <_vfprintf_r+0x228>
80003800:	09812503          	lw	x10,152(x2)
80003804:	76a05663          	bge	x0,x10,80003f70 <_vfprintf_r+0x1d08>
80003808:	01812703          	lw	x14,24(x2)
8000380c:	00030a93          	addi	x21,x6,0
80003810:	48674063          	blt	x14,x6,80003c90 <_vfprintf_r+0x1a28>
80003814:	03505663          	bge	x0,x21,80003840 <_vfprintf_r+0x15d8>
80003818:	0b812703          	lw	x14,184(x2)
8000381c:	01560633          	add	x12,x12,x21
80003820:	00fb2023          	sw	x15,0(x22)
80003824:	00170713          	addi	x14,x14,1
80003828:	015b2223          	sw	x21,4(x22)
8000382c:	0ac12e23          	sw	x12,188(x2)
80003830:	0ae12c23          	sw	x14,184(x2)
80003834:	00700593          	addi	x11,x0,7
80003838:	008b0b13          	addi	x22,x22,8
8000383c:	50e5c2e3          	blt	x11,x14,80004540 <_vfprintf_r+0x22d8>
80003840:	fffac713          	xori	x14,x21,-1
80003844:	41f75713          	srai	x14,x14,0x1f
80003848:	00eafab3          	and	x21,x21,x14
8000384c:	41530ab3          	sub	x21,x6,x21
80003850:	53504463          	blt	x0,x21,80003d78 <_vfprintf_r+0x1b10>
80003854:	400bf713          	andi	x14,x23,1024
80003858:	00678db3          	add	x27,x15,x6
8000385c:	28071ae3          	bne	x14,x0,800042f0 <_vfprintf_r+0x2088>
80003860:	09812a83          	lw	x21,152(x2)
80003864:	01812703          	lw	x14,24(x2)
80003868:	00eac663          	blt	x21,x14,80003874 <_vfprintf_r+0x160c>
8000386c:	001bf713          	andi	x14,x23,1
80003870:	560708e3          	beq	x14,x0,800045e0 <_vfprintf_r+0x2378>
80003874:	02412683          	lw	x13,36(x2)
80003878:	0b812703          	lw	x14,184(x2)
8000387c:	00700593          	addi	x11,x0,7
80003880:	00d60633          	add	x12,x12,x13
80003884:	02812683          	lw	x13,40(x2)
80003888:	00170713          	addi	x14,x14,1
8000388c:	0ac12e23          	sw	x12,188(x2)
80003890:	00db2023          	sw	x13,0(x22)
80003894:	02412683          	lw	x13,36(x2)
80003898:	0ae12c23          	sw	x14,184(x2)
8000389c:	008b0b13          	addi	x22,x22,8
800038a0:	fedb2e23          	sw	x13,-4(x22)
800038a4:	00e5d463          	bge	x11,x14,800038ac <_vfprintf_r+0x1644>
800038a8:	4640106f          	jal	x0,80004d0c <_vfprintf_r+0x2aa4>
800038ac:	01812703          	lw	x14,24(x2)
800038b0:	00e787b3          	add	x15,x15,x14
800038b4:	41b78cb3          	sub	x25,x15,x27
800038b8:	41570ab3          	sub	x21,x14,x21
800038bc:	019ad463          	bge	x21,x25,800038c4 <_vfprintf_r+0x165c>
800038c0:	000a8c93          	addi	x25,x21,0
800038c4:	03905863          	bge	x0,x25,800038f4 <_vfprintf_r+0x168c>
800038c8:	0b812703          	lw	x14,184(x2)
800038cc:	01960633          	add	x12,x12,x25
800038d0:	01bb2023          	sw	x27,0(x22)
800038d4:	00170713          	addi	x14,x14,1
800038d8:	019b2223          	sw	x25,4(x22)
800038dc:	0ac12e23          	sw	x12,188(x2)
800038e0:	0ae12c23          	sw	x14,184(x2)
800038e4:	00700793          	addi	x15,x0,7
800038e8:	008b0b13          	addi	x22,x22,8
800038ec:	00e7d463          	bge	x15,x14,800038f4 <_vfprintf_r+0x168c>
800038f0:	4980106f          	jal	x0,80004d88 <_vfprintf_r+0x2b20>
800038f4:	fffcc713          	xori	x14,x25,-1
800038f8:	41f75713          	srai	x14,x14,0x1f
800038fc:	00ecf7b3          	and	x15,x25,x14
80003900:	40fa8ab3          	sub	x21,x21,x15
80003904:	01504463          	blt	x0,x21,8000390c <_vfprintf_r+0x16a4>
80003908:	c51fe06f          	jal	x0,80002558 <_vfprintf_r+0x2f0>
8000390c:	01000c93          	addi	x25,x0,16
80003910:	0b812783          	lw	x15,184(x2)
80003914:	00700d93          	addi	x27,x0,7
80003918:	b7418493          	addi	x9,x3,-1164 # 80011844 <zeroes.0>
8000391c:	4f5cce63          	blt	x25,x21,80003e18 <_vfprintf_r+0x1bb0>
80003920:	b7418813          	addi	x16,x3,-1164 # 80011844 <zeroes.0>
80003924:	7840006f          	jal	x0,800040a8 <_vfprintf_r+0x1e40>
80003928:	00200d93          	addi	x27,x0,2
8000392c:	01000e93          	addi	x29,x0,16
80003930:	00080613          	addi	x12,x16,0
80003934:	00050593          	addi	x11,x10,0
80003938:	00eec463          	blt	x29,x14,80003940 <_vfprintf_r+0x16d8>
8000393c:	4000106f          	jal	x0,80004d3c <_vfprintf_r+0x2ad4>
80003940:	02f12e23          	sw	x15,60(x2)
80003944:	00700393          	addi	x7,x0,7
80003948:	000b0793          	addi	x15,x22,0
8000394c:	00070493          	addi	x9,x14,0
80003950:	000a8b13          	addi	x22,x21,0
80003954:	03112c23          	sw	x17,56(x2)
80003958:	04612023          	sw	x6,64(x2)
8000395c:	b8418a93          	addi	x21,x3,-1148 # 80011854 <blanks.1>
80003960:	00c0006f          	jal	x0,8000396c <_vfprintf_r+0x1704>
80003964:	ff048493          	addi	x9,x9,-16
80003968:	049eda63          	bge	x29,x9,800039bc <_vfprintf_r+0x1754>
8000396c:	01060613          	addi	x12,x12,16
80003970:	00158593          	addi	x11,x11,1
80003974:	0157a023          	sw	x21,0(x15)
80003978:	01d7a223          	sw	x29,4(x15)
8000397c:	0ac12e23          	sw	x12,188(x2)
80003980:	0ab12c23          	sw	x11,184(x2)
80003984:	00878793          	addi	x15,x15,8
80003988:	fcb3dee3          	bge	x7,x11,80003964 <_vfprintf_r+0x16fc>
8000398c:	00412583          	lw	x11,4(x2)
80003990:	0b410613          	addi	x12,x2,180
80003994:	00090513          	addi	x10,x18,0
80003998:	1a5010ef          	jal	x1,8000533c <__sprint_r>
8000399c:	c80514e3          	bne	x10,x0,80003624 <_vfprintf_r+0x13bc>
800039a0:	01000e93          	addi	x29,x0,16
800039a4:	ff048493          	addi	x9,x9,-16
800039a8:	0bc12603          	lw	x12,188(x2)
800039ac:	0b812583          	lw	x11,184(x2)
800039b0:	00098793          	addi	x15,x19,0
800039b4:	00700393          	addi	x7,x0,7
800039b8:	fa9ecae3          	blt	x29,x9,8000396c <_vfprintf_r+0x1704>
800039bc:	000a8813          	addi	x16,x21,0
800039c0:	03812883          	lw	x17,56(x2)
800039c4:	000b0a93          	addi	x21,x22,0
800039c8:	04012303          	lw	x6,64(x2)
800039cc:	00078b13          	addi	x22,x15,0
800039d0:	03c12783          	lw	x15,60(x2)
800039d4:	00048713          	addi	x14,x9,0
800039d8:	00c70633          	add	x12,x14,x12
800039dc:	00158593          	addi	x11,x11,1
800039e0:	00eb2223          	sw	x14,4(x22)
800039e4:	0ac12e23          	sw	x12,188(x2)
800039e8:	0ab12c23          	sw	x11,184(x2)
800039ec:	010b2023          	sw	x16,0(x22)
800039f0:	00700713          	addi	x14,x0,7
800039f4:	52b74863          	blt	x14,x11,80003f24 <_vfprintf_r+0x1cbc>
800039f8:	09314703          	lbu	x14,147(x2)
800039fc:	008b0b13          	addi	x22,x22,8
80003a00:	10071e63          	bne	x14,x0,80003b1c <_vfprintf_r+0x18b4>
80003a04:	000d9463          	bne	x27,x0,80003a0c <_vfprintf_r+0x17a4>
80003a08:	b19fe06f          	jal	x0,80002520 <_vfprintf_r+0x2b8>
80003a0c:	00000d93          	addi	x27,x0,0
80003a10:	ad5fe06f          	jal	x0,800024e4 <_vfprintf_r+0x27c>
80003a14:	0b812503          	lw	x10,184(x2)
80003a18:	f15ff06f          	jal	x0,8000392c <_vfprintf_r+0x16c4>
80003a1c:	00000c93          	addi	x25,x0,0
80003a20:	00000a93          	addi	x21,x0,0
80003a24:	02012023          	sw	x0,32(x2)
80003a28:	00012e23          	sw	x0,28(x2)
80003a2c:	00000313          	addi	x6,x0,0
80003a30:	00012823          	sw	x0,16(x2)
80003a34:	18010793          	addi	x15,x2,384
80003a38:	a59fe06f          	jal	x0,80002490 <_vfprintf_r+0x228>
80003a3c:	00ebf5b3          	and	x11,x23,x14
80003a40:	88059663          	bne	x11,x0,80002acc <_vfprintf_r+0x864>
80003a44:	00fb2023          	sw	x15,0(x22)
80003a48:	00eb2223          	sw	x14,4(x22)
80003a4c:	0ac12e23          	sw	x12,188(x2)
80003a50:	0b512c23          	sw	x21,184(x2)
80003a54:	00700793          	addi	x15,x0,7
80003a58:	9557d463          	bge	x15,x21,80002ba0 <_vfprintf_r+0x938>
80003a5c:	00412583          	lw	x11,4(x2)
80003a60:	0b410613          	addi	x12,x2,180
80003a64:	00090513          	addi	x10,x18,0
80003a68:	0d5010ef          	jal	x1,8000533c <__sprint_r>
80003a6c:	ba051ce3          	bne	x10,x0,80003624 <_vfprintf_r+0x13bc>
80003a70:	0bc12603          	lw	x12,188(x2)
80003a74:	0b812a83          	lw	x21,184(x2)
80003a78:	00098d93          	addi	x27,x19,0
80003a7c:	924ff06f          	jal	x0,80002ba0 <_vfprintf_r+0x938>
80003a80:	01812703          	lw	x14,24(x2)
80003a84:	00100793          	addi	x15,x0,1
80003a88:	90e7dc63          	bge	x15,x14,80002ba0 <_vfprintf_r+0x938>
80003a8c:	01100793          	addi	x15,x0,17
80003a90:	00e7c463          	blt	x15,x14,80003a98 <_vfprintf_r+0x1830>
80003a94:	7240106f          	jal	x0,800051b8 <_vfprintf_r+0x2f50>
80003a98:	01000c93          	addi	x25,x0,16
80003a9c:	00700793          	addi	x15,x0,7
80003aa0:	b7418493          	addi	x9,x3,-1164 # 80011844 <zeroes.0>
80003aa4:	00c0006f          	jal	x0,80003ab0 <_vfprintf_r+0x1848>
80003aa8:	ff0b0b13          	addi	x22,x22,-16
80003aac:	6f6cd863          	bge	x25,x22,8000419c <_vfprintf_r+0x1f34>
80003ab0:	01060613          	addi	x12,x12,16
80003ab4:	001a8a93          	addi	x21,x21,1
80003ab8:	009da023          	sw	x9,0(x27)
80003abc:	019da223          	sw	x25,4(x27)
80003ac0:	0ac12e23          	sw	x12,188(x2)
80003ac4:	0b512c23          	sw	x21,184(x2)
80003ac8:	008d8d93          	addi	x27,x27,8
80003acc:	fd57dee3          	bge	x15,x21,80003aa8 <_vfprintf_r+0x1840>
80003ad0:	00412583          	lw	x11,4(x2)
80003ad4:	0b410613          	addi	x12,x2,180
80003ad8:	00090513          	addi	x10,x18,0
80003adc:	061010ef          	jal	x1,8000533c <__sprint_r>
80003ae0:	b40512e3          	bne	x10,x0,80003624 <_vfprintf_r+0x13bc>
80003ae4:	0bc12603          	lw	x12,188(x2)
80003ae8:	0b812a83          	lw	x21,184(x2)
80003aec:	00098d93          	addi	x27,x19,0
80003af0:	00700793          	addi	x15,x0,7
80003af4:	fb5ff06f          	jal	x0,80003aa8 <_vfprintf_r+0x1840>
80003af8:	001bf793          	andi	x15,x23,1
80003afc:	00079463          	bne	x15,x0,80003b04 <_vfprintf_r+0x189c>
80003b00:	a59fe06f          	jal	x0,80002558 <_vfprintf_r+0x2f0>
80003b04:	b30ff06f          	jal	x0,80002e34 <_vfprintf_r+0xbcc>
80003b08:	00c12783          	lw	x15,12(x2)
80003b0c:	000d4883          	lbu	x17,0(x26)
80003b10:	00478793          	addi	x15,x15,4
80003b14:	00f12623          	sw	x15,12(x2)
80003b18:	8e9fe06f          	jal	x0,80002400 <_vfprintf_r+0x198>
80003b1c:	000d8713          	addi	x14,x27,0
80003b20:	00000d93          	addi	x27,x0,0
80003b24:	98dfe06f          	jal	x0,800024b0 <_vfprintf_r+0x248>
80003b28:	000c8c13          	addi	x24,x25,0
80003b2c:	00012823          	sw	x0,16(x2)
80003b30:	02012023          	sw	x0,32(x2)
80003b34:	00012e23          	sw	x0,28(x2)
80003b38:	00000313          	addi	x6,x0,0
80003b3c:	955fe06f          	jal	x0,80002490 <_vfprintf_r+0x228>
80003b40:	ffe50513          	addi	x10,x10,-2
80003b44:	03000713          	addi	x14,x0,48
80003b48:	18010693          	addi	x13,x2,384
80003b4c:	40a68cb3          	sub	x25,x13,x10
80003b50:	fee78fa3          	sb	x14,-1(x15)
80003b54:	000a8c13          	addi	x24,x21,0
80003b58:	019ad463          	bge	x21,x25,80003b60 <_vfprintf_r+0x18f8>
80003b5c:	000c8c13          	addi	x24,x25,0
80003b60:	00050793          	addi	x15,x10,0
80003b64:	00012823          	sw	x0,16(x2)
80003b68:	02012023          	sw	x0,32(x2)
80003b6c:	00012e23          	sw	x0,28(x2)
80003b70:	00000313          	addi	x6,x0,0
80003b74:	91dfe06f          	jal	x0,80002490 <_vfprintf_r+0x228>
80003b78:	00c12783          	lw	x15,12(x2)
80003b7c:	00478793          	addi	x15,x15,4
80003b80:	00c12703          	lw	x14,12(x2)
80003b84:	00000613          	addi	x12,x0,0
80003b88:	00f12623          	sw	x15,12(x2)
80003b8c:	00072703          	lw	x14,0(x14)
80003b90:	df8ff06f          	jal	x0,80003188 <_vfprintf_r+0xf20>
80003b94:	00c12783          	lw	x15,12(x2)
80003b98:	00812683          	lw	x13,8(x2)
80003b9c:	00812603          	lw	x12,8(x2)
80003ba0:	0007a783          	lw	x15,0(x15)
80003ba4:	41f6d693          	srai	x13,x13,0x1f
80003ba8:	00e12623          	sw	x14,12(x2)
80003bac:	00c7a023          	sw	x12,0(x15)
80003bb0:	00d7a223          	sw	x13,4(x15)
80003bb4:	fb8fe06f          	jal	x0,8000236c <_vfprintf_r+0x104>
80003bb8:	00c12783          	lw	x15,12(x2)
80003bbc:	00478793          	addi	x15,x15,4
80003bc0:	00c12703          	lw	x14,12(x2)
80003bc4:	000e0b93          	addi	x23,x28,0
80003bc8:	00f12623          	sw	x15,12(x2)
80003bcc:	00072c03          	lw	x24,0(x14)
80003bd0:	41fc5e93          	srai	x29,x24,0x1f
80003bd4:	000e8713          	addi	x14,x29,0
80003bd8:	b48ff06f          	jal	x0,80002f20 <_vfprintf_r+0xcb8>
80003bdc:	00c12783          	lw	x15,12(x2)
80003be0:	00c12703          	lw	x14,12(x2)
80003be4:	0007a783          	lw	x15,0(x15)
80003be8:	00470713          	addi	x14,x14,4
80003bec:	00e12623          	sw	x14,12(x2)
80003bf0:	0007a603          	lw	x12,0(x15)
80003bf4:	0047a683          	lw	x13,4(x15)
80003bf8:	0087a703          	lw	x14,8(x15)
80003bfc:	00c7a783          	lw	x15,12(x15)
80003c00:	a85fe06f          	jal	x0,80002684 <_vfprintf_r+0x41c>
80003c04:	000b8693          	addi	x13,x23,0
80003c08:	d64ff06f          	jal	x0,8000316c <_vfprintf_r+0xf04>
80003c0c:	09314e83          	lbu	x29,147(x2)
80003c10:	00100c13          	addi	x24,x0,1
80003c14:	00000313          	addi	x6,x0,0
80003c18:	00100c93          	addi	x25,x0,1
80003c1c:	17f10793          	addi	x15,x2,383
80003c20:	c20ff06f          	jal	x0,80003040 <_vfprintf_r+0xdd8>
80003c24:	000e0b93          	addi	x23,x28,0
80003c28:	becff06f          	jal	x0,80003014 <_vfprintf_r+0xdac>
80003c2c:	002beb93          	ori	x23,x23,2
80003c30:	00f12623          	sw	x15,12(x2)
80003c34:	87018593          	addi	x11,x3,-1936 # 80011540 <__clz_tab+0x114>
80003c38:	00200313          	addi	x6,x0,2
80003c3c:	00000e93          	addi	x29,x0,0
80003c40:	07800893          	addi	x17,x0,120
80003c44:	18010793          	addi	x15,x2,384
80003c48:	00f77693          	andi	x13,x14,15
80003c4c:	00d586b3          	add	x13,x11,x13
80003c50:	0006c683          	lbu	x13,0(x13)
80003c54:	00475713          	srli	x14,x14,0x4
80003c58:	fff78793          	addi	x15,x15,-1
80003c5c:	00d78023          	sb	x13,0(x15)
80003c60:	01c61693          	slli	x13,x12,0x1c
80003c64:	00e68733          	add	x14,x13,x14
80003c68:	00465613          	srli	x12,x12,0x4
80003c6c:	00c766b3          	or	x13,x14,x12
80003c70:	fc069ce3          	bne	x13,x0,80003c48 <_vfprintf_r+0x19e0>
80003c74:	18010713          	addi	x14,x2,384
80003c78:	40f70cb3          	sub	x25,x14,x15
80003c7c:	000a8c13          	addi	x24,x21,0
80003c80:	bd9ad063          	bge	x21,x25,80003040 <_vfprintf_r+0xdd8>
80003c84:	000c8c13          	addi	x24,x25,0
80003c88:	00012823          	sw	x0,16(x2)
80003c8c:	bb8ff06f          	jal	x0,80003044 <_vfprintf_r+0xddc>
80003c90:	00070a93          	addi	x21,x14,0
80003c94:	b95042e3          	blt	x0,x21,80003818 <_vfprintf_r+0x15b0>
80003c98:	ba9ff06f          	jal	x0,80003840 <_vfprintf_r+0x15d8>
80003c9c:	fff00a93          	addi	x21,x0,-1
80003ca0:	00068d13          	addi	x26,x13,0
80003ca4:	f60fe06f          	jal	x0,80002404 <_vfprintf_r+0x19c>
80003ca8:	001d4883          	lbu	x17,1(x26)
80003cac:	020beb93          	ori	x23,x23,32
80003cb0:	001d0d13          	addi	x26,x26,1
80003cb4:	f4cfe06f          	jal	x0,80002400 <_vfprintf_r+0x198>
80003cb8:	001d4883          	lbu	x17,1(x26)
80003cbc:	200beb93          	ori	x23,x23,512
80003cc0:	001d0d13          	addi	x26,x26,1
80003cc4:	f3cfe06f          	jal	x0,80002400 <_vfprintf_r+0x198>
80003cc8:	00412583          	lw	x11,4(x2)
80003ccc:	0b410613          	addi	x12,x2,180
80003cd0:	00090513          	addi	x10,x18,0
80003cd4:	668010ef          	jal	x1,8000533c <__sprint_r>
80003cd8:	940516e3          	bne	x10,x0,80003624 <_vfprintf_r+0x13bc>
80003cdc:	0bc12603          	lw	x12,188(x2)
80003ce0:	00098b13          	addi	x22,x19,0
80003ce4:	984ff06f          	jal	x0,80002e68 <_vfprintf_r+0xc00>
80003ce8:	88418593          	addi	x11,x3,-1916 # 80011554 <__clz_tab+0x128>
80003cec:	020bf793          	andi	x15,x23,32
80003cf0:	18078463          	beq	x15,x0,80003e78 <_vfprintf_r+0x1c10>
80003cf4:	00c12783          	lw	x15,12(x2)
80003cf8:	00778793          	addi	x15,x15,7
80003cfc:	ff87f793          	andi	x15,x15,-8
80003d00:	00878713          	addi	x14,x15,8
80003d04:	00e12623          	sw	x14,12(x2)
80003d08:	0047a603          	lw	x12,4(x15)
80003d0c:	0007a703          	lw	x14,0(x15)
80003d10:	001bf793          	andi	x15,x23,1
80003d14:	00c766b3          	or	x13,x14,x12
80003d18:	00078463          	beq	x15,x0,80003d20 <_vfprintf_r+0x1ab8>
80003d1c:	2e069a63          	bne	x13,x0,80004010 <_vfprintf_r+0x1da8>
80003d20:	080109a3          	sb	x0,147(x2)
80003d24:	1e0ac863          	blt	x21,x0,80003f14 <_vfprintf_r+0x1cac>
80003d28:	b7fbfb93          	andi	x23,x23,-1153
80003d2c:	00000313          	addi	x6,x0,0
80003d30:	000a9463          	bne	x21,x0,80003d38 <_vfprintf_r+0x1ad0>
80003d34:	ea068e63          	beq	x13,x0,800033f0 <_vfprintf_r+0x1188>
80003d38:	09314e83          	lbu	x29,147(x2)
80003d3c:	f09ff06f          	jal	x0,80003c44 <_vfprintf_r+0x19dc>
80003d40:	87018593          	addi	x11,x3,-1936 # 80011540 <__clz_tab+0x114>
80003d44:	fa9ff06f          	jal	x0,80003cec <_vfprintf_r+0x1a84>
80003d48:	00600793          	addi	x15,x0,6
80003d4c:	000a8c13          	addi	x24,x21,0
80003d50:	7f57e463          	bltu	x15,x21,80004538 <_vfprintf_r+0x22d0>
80003d54:	00912623          	sw	x9,12(x2)
80003d58:	89818793          	addi	x15,x3,-1896 # 80011568 <__clz_tab+0x13c>
80003d5c:	00012823          	sw	x0,16(x2)
80003d60:	000c0c93          	addi	x25,x24,0
80003d64:	00000a93          	addi	x21,x0,0
80003d68:	02012023          	sw	x0,32(x2)
80003d6c:	00012e23          	sw	x0,28(x2)
80003d70:	00000313          	addi	x6,x0,0
80003d74:	f1cfe06f          	jal	x0,80002490 <_vfprintf_r+0x228>
80003d78:	01000893          	addi	x17,x0,16
80003d7c:	0b812703          	lw	x14,184(x2)
80003d80:	0158c463          	blt	x17,x21,80003d88 <_vfprintf_r+0x1b20>
80003d84:	4600106f          	jal	x0,800051e4 <_vfprintf_r+0x2f7c>
80003d88:	000a8493          	addi	x9,x21,0
80003d8c:	00700c93          	addi	x25,x0,7
80003d90:	00078d93          	addi	x27,x15,0
80003d94:	02612c23          	sw	x6,56(x2)
80003d98:	b7418a93          	addi	x21,x3,-1164 # 80011844 <zeroes.0>
80003d9c:	00c0006f          	jal	x0,80003da8 <_vfprintf_r+0x1b40>
80003da0:	ff048493          	addi	x9,x9,-16
80003da4:	7298d863          	bge	x17,x9,800044d4 <_vfprintf_r+0x226c>
80003da8:	01060613          	addi	x12,x12,16
80003dac:	00170713          	addi	x14,x14,1
80003db0:	015b2023          	sw	x21,0(x22)
80003db4:	011b2223          	sw	x17,4(x22)
80003db8:	0ac12e23          	sw	x12,188(x2)
80003dbc:	0ae12c23          	sw	x14,184(x2)
80003dc0:	008b0b13          	addi	x22,x22,8
80003dc4:	fcecdee3          	bge	x25,x14,80003da0 <_vfprintf_r+0x1b38>
80003dc8:	00412583          	lw	x11,4(x2)
80003dcc:	0b410613          	addi	x12,x2,180
80003dd0:	00090513          	addi	x10,x18,0
80003dd4:	568010ef          	jal	x1,8000533c <__sprint_r>
80003dd8:	840516e3          	bne	x10,x0,80003624 <_vfprintf_r+0x13bc>
80003ddc:	0bc12603          	lw	x12,188(x2)
80003de0:	0b812703          	lw	x14,184(x2)
80003de4:	00098b13          	addi	x22,x19,0
80003de8:	01000893          	addi	x17,x0,16
80003dec:	fb5ff06f          	jal	x0,80003da0 <_vfprintf_r+0x1b38>
80003df0:	00412583          	lw	x11,4(x2)
80003df4:	0b410613          	addi	x12,x2,180
80003df8:	00090513          	addi	x10,x18,0
80003dfc:	540010ef          	jal	x1,8000533c <__sprint_r>
80003e00:	820512e3          	bne	x10,x0,80003624 <_vfprintf_r+0x13bc>
80003e04:	0bc12603          	lw	x12,188(x2)
80003e08:	0b812783          	lw	x15,184(x2)
80003e0c:	00098b13          	addi	x22,x19,0
80003e10:	ff0a8a93          	addi	x21,x21,-16
80003e14:	295cd863          	bge	x25,x21,800040a4 <_vfprintf_r+0x1e3c>
80003e18:	01060613          	addi	x12,x12,16
80003e1c:	00178793          	addi	x15,x15,1
80003e20:	009b2023          	sw	x9,0(x22)
80003e24:	019b2223          	sw	x25,4(x22)
80003e28:	0ac12e23          	sw	x12,188(x2)
80003e2c:	0af12c23          	sw	x15,184(x2)
80003e30:	008b0b13          	addi	x22,x22,8
80003e34:	fcfddee3          	bge	x27,x15,80003e10 <_vfprintf_r+0x1ba8>
80003e38:	fb9ff06f          	jal	x0,80003df0 <_vfprintf_r+0x1b88>
80003e3c:	00078513          	addi	x10,x15,0
80003e40:	01112823          	sw	x17,16(x2)
80003e44:	00f12623          	sw	x15,12(x2)
80003e48:	f95fd0ef          	jal	x1,80001ddc <strlen>
80003e4c:	09314703          	lbu	x14,147(x2)
80003e50:	fff54693          	xori	x13,x10,-1
80003e54:	41f6d693          	srai	x13,x13,0x1f
80003e58:	00c12783          	lw	x15,12(x2)
80003e5c:	01012883          	lw	x17,16(x2)
80003e60:	00050c93          	addi	x25,x10,0
80003e64:	00d57c33          	and	x24,x10,x13
80003e68:	00071463          	bne	x14,x0,80003e70 <_vfprintf_r+0x1c08>
80003e6c:	df1fe06f          	jal	x0,80002c5c <_vfprintf_r+0x9f4>
80003e70:	001c0c13          	addi	x24,x24,1
80003e74:	de9fe06f          	jal	x0,80002c5c <_vfprintf_r+0x9f4>
80003e78:	00c12683          	lw	x13,12(x2)
80003e7c:	00c12703          	lw	x14,12(x2)
80003e80:	010bf793          	andi	x15,x23,16
80003e84:	00468693          	addi	x13,x13,4
80003e88:	00d12623          	sw	x13,12(x2)
80003e8c:	00072703          	lw	x14,0(x14)
80003e90:	06079e63          	bne	x15,x0,80003f0c <_vfprintf_r+0x1ca4>
80003e94:	040bf793          	andi	x15,x23,64
80003e98:	06078663          	beq	x15,x0,80003f04 <_vfprintf_r+0x1c9c>
80003e9c:	01071713          	slli	x14,x14,0x10
80003ea0:	01075713          	srli	x14,x14,0x10
80003ea4:	00000613          	addi	x12,x0,0
80003ea8:	e69ff06f          	jal	x0,80003d10 <_vfprintf_r+0x1aa8>
80003eac:	00412583          	lw	x11,4(x2)
80003eb0:	0b410613          	addi	x12,x2,180
80003eb4:	00090513          	addi	x10,x18,0
80003eb8:	00f12e23          	sw	x15,28(x2)
80003ebc:	480010ef          	jal	x1,8000533c <__sprint_r>
80003ec0:	f6051263          	bne	x10,x0,80003624 <_vfprintf_r+0x13bc>
80003ec4:	0bc12603          	lw	x12,188(x2)
80003ec8:	0b812a83          	lw	x21,184(x2)
80003ecc:	01c12783          	lw	x15,28(x2)
80003ed0:	00098d93          	addi	x27,x19,0
80003ed4:	c19fe06f          	jal	x0,80002aec <_vfprintf_r+0x884>
80003ed8:	00412583          	lw	x11,4(x2)
80003edc:	0b410613          	addi	x12,x2,180
80003ee0:	00090513          	addi	x10,x18,0
80003ee4:	00f12e23          	sw	x15,28(x2)
80003ee8:	454010ef          	jal	x1,8000533c <__sprint_r>
80003eec:	f2051c63          	bne	x10,x0,80003624 <_vfprintf_r+0x13bc>
80003ef0:	0bc12603          	lw	x12,188(x2)
80003ef4:	0b812a83          	lw	x21,184(x2)
80003ef8:	01c12783          	lw	x15,28(x2)
80003efc:	00098d93          	addi	x27,x19,0
80003f00:	c21fe06f          	jal	x0,80002b20 <_vfprintf_r+0x8b8>
80003f04:	200bf793          	andi	x15,x23,512
80003f08:	72079c63          	bne	x15,x0,80004640 <_vfprintf_r+0x23d8>
80003f0c:	00000613          	addi	x12,x0,0
80003f10:	e01ff06f          	jal	x0,80003d10 <_vfprintf_r+0x1aa8>
80003f14:	bffbfb93          	andi	x23,x23,-1025
80003f18:	00000313          	addi	x6,x0,0
80003f1c:	00000e93          	addi	x29,x0,0
80003f20:	d25ff06f          	jal	x0,80003c44 <_vfprintf_r+0x19dc>
80003f24:	00412583          	lw	x11,4(x2)
80003f28:	0b410613          	addi	x12,x2,180
80003f2c:	00090513          	addi	x10,x18,0
80003f30:	04612023          	sw	x6,64(x2)
80003f34:	02f12e23          	sw	x15,60(x2)
80003f38:	03112c23          	sw	x17,56(x2)
80003f3c:	400010ef          	jal	x1,8000533c <__sprint_r>
80003f40:	ee051263          	bne	x10,x0,80003624 <_vfprintf_r+0x13bc>
80003f44:	09314703          	lbu	x14,147(x2)
80003f48:	0bc12603          	lw	x12,188(x2)
80003f4c:	03812883          	lw	x17,56(x2)
80003f50:	03c12783          	lw	x15,60(x2)
80003f54:	04012303          	lw	x6,64(x2)
80003f58:	22070863          	beq	x14,x0,80004188 <_vfprintf_r+0x1f20>
80003f5c:	000d8713          	addi	x14,x27,0
80003f60:	0b812583          	lw	x11,184(x2)
80003f64:	00000d93          	addi	x27,x0,0
80003f68:	00098b13          	addi	x22,x19,0
80003f6c:	d44fe06f          	jal	x0,800024b0 <_vfprintf_r+0x248>
80003f70:	0b812703          	lw	x14,184(x2)
80003f74:	8a018593          	addi	x11,x3,-1888 # 80011570 <__clz_tab+0x144>
80003f78:	00bb2023          	sw	x11,0(x22)
80003f7c:	00160613          	addi	x12,x12,1
80003f80:	00100593          	addi	x11,x0,1
80003f84:	00170713          	addi	x14,x14,1
80003f88:	00bb2223          	sw	x11,4(x22)
80003f8c:	0ac12e23          	sw	x12,188(x2)
80003f90:	0ae12c23          	sw	x14,184(x2)
80003f94:	00700593          	addi	x11,x0,7
80003f98:	008b0b13          	addi	x22,x22,8
80003f9c:	40e5cce3          	blt	x11,x14,80004bb4 <_vfprintf_r+0x294c>
80003fa0:	01812703          	lw	x14,24(x2)
80003fa4:	00a76733          	or	x14,x14,x10
80003fa8:	5c070463          	beq	x14,x0,80004570 <_vfprintf_r+0x2308>
80003fac:	02412683          	lw	x13,36(x2)
80003fb0:	0b812703          	lw	x14,184(x2)
80003fb4:	00700593          	addi	x11,x0,7
80003fb8:	00c68633          	add	x12,x13,x12
80003fbc:	02812683          	lw	x13,40(x2)
80003fc0:	00170713          	addi	x14,x14,1
80003fc4:	0ac12e23          	sw	x12,188(x2)
80003fc8:	00db2023          	sw	x13,0(x22)
80003fcc:	02412683          	lw	x13,36(x2)
80003fd0:	0ae12c23          	sw	x14,184(x2)
80003fd4:	008b0b13          	addi	x22,x22,8
80003fd8:	fedb2e23          	sw	x13,-4(x22)
80003fdc:	5ce5c863          	blt	x11,x14,800045ac <_vfprintf_r+0x2344>
80003fe0:	5c054ce3          	blt	x10,x0,80004db8 <_vfprintf_r+0x2b50>
80003fe4:	01812683          	lw	x13,24(x2)
80003fe8:	00170713          	addi	x14,x14,1
80003fec:	00fb2023          	sw	x15,0(x22)
80003ff0:	00c68633          	add	x12,x13,x12
80003ff4:	0ac12e23          	sw	x12,188(x2)
80003ff8:	0ae12c23          	sw	x14,184(x2)
80003ffc:	00db2223          	sw	x13,4(x22)
80004000:	00700793          	addi	x15,x0,7
80004004:	00e7c463          	blt	x15,x14,8000400c <_vfprintf_r+0x1da4>
80004008:	d4cfe06f          	jal	x0,80002554 <_vfprintf_r+0x2ec>
8000400c:	bc5fe06f          	jal	x0,80002bd0 <_vfprintf_r+0x968>
80004010:	03000793          	addi	x15,x0,48
80004014:	09110aa3          	sb	x17,149(x2)
80004018:	080109a3          	sb	x0,147(x2)
8000401c:	08f10a23          	sb	x15,148(x2)
80004020:	2a0ace63          	blt	x21,x0,800042dc <_vfprintf_r+0x2074>
80004024:	b7fbfe13          	andi	x28,x23,-1153
80004028:	09314e83          	lbu	x29,147(x2)
8000402c:	002e6b93          	ori	x23,x28,2
80004030:	00200313          	addi	x6,x0,2
80004034:	c11ff06f          	jal	x0,80003c44 <_vfprintf_r+0x19dc>
80004038:	00090513          	addi	x10,x18,0
8000403c:	1b5010ef          	jal	x1,800059f0 <__sinit>
80004040:	a78fe06f          	jal	x0,800022b8 <_vfprintf_r+0x50>
80004044:	00412583          	lw	x11,4(x2)
80004048:	0b410613          	addi	x12,x2,180
8000404c:	00090513          	addi	x10,x18,0
80004050:	2ec010ef          	jal	x1,8000533c <__sprint_r>
80004054:	dc051863          	bne	x10,x0,80003624 <_vfprintf_r+0x13bc>
80004058:	0bc12603          	lw	x12,188(x2)
8000405c:	00098b13          	addi	x22,x19,0
80004060:	dc9fe06f          	jal	x0,80002e28 <_vfprintf_r+0xbc0>
80004064:	01012583          	lw	x11,16(x2)
80004068:	dc4ff06f          	jal	x0,8000362c <_vfprintf_r+0x13c4>
8000406c:	620e9463          	bne	x29,x0,80004694 <_vfprintf_r+0x242c>
80004070:	00900713          	addi	x14,x0,9
80004074:	63876063          	bltu	x14,x24,80004694 <_vfprintf_r+0x242c>
80004078:	18010713          	addi	x14,x2,384
8000407c:	00b12c23          	sw	x11,24(x2)
80004080:	40f70cb3          	sub	x25,x14,x15
80004084:	00048893          	addi	x17,x9,0
80004088:	000a8c13          	addi	x24,x21,0
8000408c:	019ad463          	bge	x21,x25,80004094 <_vfprintf_r+0x1e2c>
80004090:	000c8c13          	addi	x24,x25,0
80004094:	09314e83          	lbu	x29,147(x2)
80004098:	00000313          	addi	x6,x0,0
8000409c:	00012823          	sw	x0,16(x2)
800040a0:	fa5fe06f          	jal	x0,80003044 <_vfprintf_r+0xddc>
800040a4:	00048813          	addi	x16,x9,0
800040a8:	01560633          	add	x12,x12,x21
800040ac:	00178793          	addi	x15,x15,1
800040b0:	0ac12e23          	sw	x12,188(x2)
800040b4:	0af12c23          	sw	x15,184(x2)
800040b8:	010b2023          	sw	x16,0(x22)
800040bc:	015b2223          	sw	x21,4(x22)
800040c0:	00700713          	addi	x14,x0,7
800040c4:	00f74463          	blt	x14,x15,800040cc <_vfprintf_r+0x1e64>
800040c8:	c8cfe06f          	jal	x0,80002554 <_vfprintf_r+0x2ec>
800040cc:	b05fe06f          	jal	x0,80002bd0 <_vfprintf_r+0x968>
800040d0:	0c012703          	lw	x14,192(x2)
800040d4:	0c412783          	lw	x15,196(x2)
800040d8:	07010593          	addi	x11,x2,112
800040dc:	08e12023          	sw	x14,128(x2)
800040e0:	08f12223          	sw	x15,132(x2)
800040e4:	0c812703          	lw	x14,200(x2)
800040e8:	0cc12783          	lw	x15,204(x2)
800040ec:	08010513          	addi	x10,x2,128
800040f0:	06012823          	sw	x0,112(x2)
800040f4:	06012a23          	sw	x0,116(x2)
800040f8:	06012c23          	sw	x0,120(x2)
800040fc:	06012e23          	sw	x0,124(x2)
80004100:	08e12423          	sw	x14,136(x2)
80004104:	08f12623          	sw	x15,140(x2)
80004108:	2450a0ef          	jal	x1,8000eb4c <__letf2>
8000410c:	01012883          	lw	x17,16(x2)
80004110:	f7fbfb93          	andi	x23,x23,-129
80004114:	3e0540e3          	blt	x10,x0,80004cf4 <_vfprintf_r+0x2a8c>
80004118:	04700793          	addi	x15,x0,71
8000411c:	09314703          	lbu	x14,147(x2)
80004120:	5717c663          	blt	x15,x17,8000468c <_vfprintf_r+0x2424>
80004124:	86018793          	addi	x15,x3,-1952 # 80011530 <__clz_tab+0x104>
80004128:	18071463          	bne	x14,x0,800042b0 <_vfprintf_r+0x2048>
8000412c:	00300c93          	addi	x25,x0,3
80004130:	000c8c13          	addi	x24,x25,0
80004134:	b2dfe06f          	jal	x0,80002c60 <_vfprintf_r+0x9f8>
80004138:	00c12783          	lw	x15,12(x2)
8000413c:	00812683          	lw	x13,8(x2)
80004140:	0007a783          	lw	x15,0(x15)
80004144:	00d7a023          	sw	x13,0(x15)
80004148:	00e12623          	sw	x14,12(x2)
8000414c:	a20fe06f          	jal	x0,8000236c <_vfprintf_r+0x104>
80004150:	09314e83          	lbu	x29,147(x2)
80004154:	00f12623          	sw	x15,12(x2)
80004158:	87018593          	addi	x11,x3,-1936 # 80011540 <__clz_tab+0x114>
8000415c:	07800893          	addi	x17,x0,120
80004160:	00200313          	addi	x6,x0,2
80004164:	ae1ff06f          	jal	x0,80003c44 <_vfprintf_r+0x19dc>
80004168:	0bc12783          	lw	x15,188(x2)
8000416c:	00412483          	lw	x9,4(x2)
80004170:	cc078463          	beq	x15,x0,80003638 <_vfprintf_r+0x13d0>
80004174:	00090513          	addi	x10,x18,0
80004178:	0b410613          	addi	x12,x2,180
8000417c:	00048593          	addi	x11,x9,0
80004180:	1bc010ef          	jal	x1,8000533c <__sprint_r>
80004184:	cb4ff06f          	jal	x0,80003638 <_vfprintf_r+0x13d0>
80004188:	460d8a63          	beq	x27,x0,800045fc <_vfprintf_r+0x2394>
8000418c:	0b812583          	lw	x11,184(x2)
80004190:	00000d93          	addi	x27,x0,0
80004194:	00098b13          	addi	x22,x19,0
80004198:	b4cfe06f          	jal	x0,800024e4 <_vfprintf_r+0x27c>
8000419c:	00048813          	addi	x16,x9,0
800041a0:	01660633          	add	x12,x12,x22
800041a4:	001a8a93          	addi	x21,x21,1
800041a8:	0ac12e23          	sw	x12,188(x2)
800041ac:	0b512c23          	sw	x21,184(x2)
800041b0:	010da023          	sw	x16,0(x27)
800041b4:	016da223          	sw	x22,4(x27)
800041b8:	00700793          	addi	x15,x0,7
800041bc:	0157c463          	blt	x15,x21,800041c4 <_vfprintf_r+0x1f5c>
800041c0:	9ddfe06f          	jal	x0,80002b9c <_vfprintf_r+0x934>
800041c4:	899ff06f          	jal	x0,80003a5c <_vfprintf_r+0x17f4>
800041c8:	200bf693          	andi	x13,x23,512
800041cc:	48068063          	beq	x13,x0,8000464c <_vfprintf_r+0x23e4>
800041d0:	0ff77713          	andi	x14,x14,255
800041d4:	00f12623          	sw	x15,12(x2)
800041d8:	000b8693          	addi	x13,x23,0
800041dc:	00000613          	addi	x12,x0,0
800041e0:	fa9fe06f          	jal	x0,80003188 <_vfprintf_r+0xf20>
800041e4:	200bf313          	andi	x6,x23,512
800041e8:	080109a3          	sb	x0,147(x2)
800041ec:	44031063          	bne	x6,x0,8000462c <_vfprintf_r+0x23c4>
800041f0:	00000e93          	addi	x29,x0,0
800041f4:	000ad463          	bge	x21,x0,800041fc <_vfprintf_r+0x1f94>
800041f8:	e21fe06f          	jal	x0,80003018 <_vfprintf_r+0xdb0>
800041fc:	f7fbfb93          	andi	x23,x23,-129
80004200:	000a8463          	beq	x21,x0,80004208 <_vfprintf_r+0x1fa0>
80004204:	e15fe06f          	jal	x0,80003018 <_vfprintf_r+0xdb0>
80004208:	9e0c0463          	beq	x24,x0,800033f0 <_vfprintf_r+0x1188>
8000420c:	e0dfe06f          	jal	x0,80003018 <_vfprintf_r+0xdb0>
80004210:	200bf713          	andi	x14,x23,512
80004214:	40070463          	beq	x14,x0,8000461c <_vfprintf_r+0x23b4>
80004218:	018c1c13          	slli	x24,x24,0x18
8000421c:	418c5c13          	srai	x24,x24,0x18
80004220:	41fc5e93          	srai	x29,x24,0x1f
80004224:	00f12623          	sw	x15,12(x2)
80004228:	000e8713          	addi	x14,x29,0
8000422c:	cf5fe06f          	jal	x0,80002f20 <_vfprintf_r+0xcb8>
80004230:	00012823          	sw	x0,16(x2)
80004234:	00000c93          	addi	x25,x0,0
80004238:	02012023          	sw	x0,32(x2)
8000423c:	00012e23          	sw	x0,28(x2)
80004240:	00000313          	addi	x6,x0,0
80004244:	18010793          	addi	x15,x2,384
80004248:	00000c13          	addi	x24,x0,0
8000424c:	a44fe06f          	jal	x0,80002490 <_vfprintf_r+0x228>
80004250:	100be713          	ori	x14,x23,256
80004254:	fff00793          	addi	x15,x0,-1
80004258:	00e12823          	sw	x14,16(x2)
8000425c:	0c012e83          	lw	x29,192(x2)
80004260:	0c412f03          	lw	x30,196(x2)
80004264:	0c812283          	lw	x5,200(x2)
80004268:	0cc12c83          	lw	x25,204(x2)
8000426c:	54fa8463          	beq	x21,x15,800047b4 <_vfprintf_r+0x254c>
80004270:	fb9c0793          	addi	x15,x24,-71
80004274:	00079463          	bne	x15,x0,8000427c <_vfprintf_r+0x2014>
80004278:	6c0a8263          	beq	x21,x0,8000493c <_vfprintf_r+0x26d4>
8000427c:	400cc8e3          	blt	x25,x0,80004e8c <_vfprintf_r+0x2c24>
80004280:	02012c23          	sw	x0,56(x2)
80004284:	53c0006f          	jal	x0,800047c0 <_vfprintf_r+0x2558>
80004288:	0cc12f83          	lw	x31,204(x2)
8000428c:	800007b7          	lui	x15,0x80000
80004290:	f7fbfb93          	andi	x23,x23,-129
80004294:	00fff333          	and	x6,x31,x15
80004298:	3c030263          	beq	x6,x0,8000465c <_vfprintf_r+0x23f4>
8000429c:	02d00793          	addi	x15,x0,45
800042a0:	08f109a3          	sb	x15,147(x2)
800042a4:	04700793          	addi	x15,x0,71
800042a8:	4b17dce3          	bge	x15,x17,80004f60 <_vfprintf_r+0x2cf8>
800042ac:	86c18793          	addi	x15,x3,-1940 # 8001153c <__clz_tab+0x110>
800042b0:	00012823          	sw	x0,16(x2)
800042b4:	00300c93          	addi	x25,x0,3
800042b8:	00000a93          	addi	x21,x0,0
800042bc:	02012023          	sw	x0,32(x2)
800042c0:	00012e23          	sw	x0,28(x2)
800042c4:	00000313          	addi	x6,x0,0
800042c8:	00400c13          	addi	x24,x0,4
800042cc:	9c4fe06f          	jal	x0,80002490 <_vfprintf_r+0x228>
800042d0:	00f12623          	sw	x15,12(x2)
800042d4:	000e0b93          	addi	x23,x28,0
800042d8:	d41fe06f          	jal	x0,80003018 <_vfprintf_r+0xdb0>
800042dc:	bffbfe13          	andi	x28,x23,-1025
800042e0:	002e6b93          	ori	x23,x28,2
800042e4:	00200313          	addi	x6,x0,2
800042e8:	00000e93          	addi	x29,x0,0
800042ec:	959ff06f          	jal	x0,80003c44 <_vfprintf_r+0x19dc>
800042f0:	01c12703          	lw	x14,28(x2)
800042f4:	02012683          	lw	x13,32(x2)
800042f8:	00d76733          	or	x14,x14,x13
800042fc:	700702e3          	beq	x14,x0,80005200 <_vfprintf_r+0x2f98>
80004300:	01812703          	lw	x14,24(x2)
80004304:	03712e23          	sw	x23,60(x2)
80004308:	05812023          	sw	x24,64(x2)
8000430c:	000d8b93          	addi	x23,x27,0
80004310:	05a12423          	sw	x26,72(x2)
80004314:	01c12a83          	lw	x21,28(x2)
80004318:	02012d83          	lw	x27,32(x2)
8000431c:	04412c03          	lw	x24,68(x2)
80004320:	03012d03          	lw	x26,48(x2)
80004324:	000b0693          	addi	x13,x22,0
80004328:	b7418893          	addi	x17,x3,-1164 # 80011844 <zeroes.0>
8000432c:	00700813          	addi	x16,x0,7
80004330:	01000c93          	addi	x25,x0,16
80004334:	02f12c23          	sw	x15,56(x2)
80004338:	00e78b33          	add	x22,x15,x14
8000433c:	09b04a63          	blt	x0,x27,800043d0 <_vfprintf_r+0x2168>
80004340:	fffd0d13          	addi	x26,x26,-1
80004344:	fffa8a93          	addi	x21,x21,-1
80004348:	0b812783          	lw	x15,184(x2)
8000434c:	03412703          	lw	x14,52(x2)
80004350:	01860633          	add	x12,x12,x24
80004354:	00178793          	addi	x15,x15,1 # 80000001 <_start+0x1>
80004358:	00e6a023          	sw	x14,0(x13)
8000435c:	0186a223          	sw	x24,4(x13)
80004360:	0ac12e23          	sw	x12,188(x2)
80004364:	0af12c23          	sw	x15,184(x2)
80004368:	00868693          	addi	x13,x13,8
8000436c:	10f84663          	blt	x16,x15,80004478 <_vfprintf_r+0x2210>
80004370:	000d4583          	lbu	x11,0(x26)
80004374:	417b04b3          	sub	x9,x22,x23
80004378:	000b0713          	addi	x14,x22,0
8000437c:	0095d463          	bge	x11,x9,80004384 <_vfprintf_r+0x211c>
80004380:	00058493          	addi	x9,x11,0
80004384:	02905663          	bge	x0,x9,800043b0 <_vfprintf_r+0x2148>
80004388:	0b812583          	lw	x11,184(x2)
8000438c:	00960633          	add	x12,x12,x9
80004390:	0ac12e23          	sw	x12,188(x2)
80004394:	00158593          	addi	x11,x11,1
80004398:	0176a023          	sw	x23,0(x13)
8000439c:	0096a223          	sw	x9,4(x13)
800043a0:	0ab12c23          	sw	x11,184(x2)
800043a4:	0eb84e63          	blt	x16,x11,800044a0 <_vfprintf_r+0x2238>
800043a8:	000d4583          	lbu	x11,0(x26)
800043ac:	00868693          	addi	x13,x13,8
800043b0:	fff4c513          	xori	x10,x9,-1
800043b4:	41f55513          	srai	x10,x10,0x1f
800043b8:	00a4f7b3          	and	x15,x9,x10
800043bc:	40f584b3          	sub	x9,x11,x15
800043c0:	00904c63          	blt	x0,x9,800043d8 <_vfprintf_r+0x2170>
800043c4:	00bb8bb3          	add	x23,x23,x11
800043c8:	f7504ae3          	blt	x0,x21,8000433c <_vfprintf_r+0x20d4>
800043cc:	55b05263          	bge	x0,x27,80004910 <_vfprintf_r+0x26a8>
800043d0:	fffd8d93          	addi	x27,x27,-1
800043d4:	f75ff06f          	jal	x0,80004348 <_vfprintf_r+0x20e0>
800043d8:	0b812583          	lw	x11,184(x2)
800043dc:	b7418293          	addi	x5,x3,-1164 # 80011844 <zeroes.0>
800043e0:	069cd863          	bge	x25,x9,80004450 <_vfprintf_r+0x21e8>
800043e4:	00e12e23          	sw	x14,28(x2)
800043e8:	03112023          	sw	x17,32(x2)
800043ec:	00c0006f          	jal	x0,800043f8 <_vfprintf_r+0x2190>
800043f0:	ff048493          	addi	x9,x9,-16
800043f4:	049cda63          	bge	x25,x9,80004448 <_vfprintf_r+0x21e0>
800043f8:	01060613          	addi	x12,x12,16
800043fc:	00158593          	addi	x11,x11,1
80004400:	0116a023          	sw	x17,0(x13)
80004404:	0196a223          	sw	x25,4(x13)
80004408:	0ac12e23          	sw	x12,188(x2)
8000440c:	0ab12c23          	sw	x11,184(x2)
80004410:	00868693          	addi	x13,x13,8
80004414:	fcb85ee3          	bge	x16,x11,800043f0 <_vfprintf_r+0x2188>
80004418:	00412583          	lw	x11,4(x2)
8000441c:	0b410613          	addi	x12,x2,180
80004420:	00090513          	addi	x10,x18,0
80004424:	719000ef          	jal	x1,8000533c <__sprint_r>
80004428:	9e051e63          	bne	x10,x0,80003624 <_vfprintf_r+0x13bc>
8000442c:	ff048493          	addi	x9,x9,-16
80004430:	0bc12603          	lw	x12,188(x2)
80004434:	0b812583          	lw	x11,184(x2)
80004438:	00098693          	addi	x13,x19,0
8000443c:	b7418893          	addi	x17,x3,-1164 # 80011844 <zeroes.0>
80004440:	00700813          	addi	x16,x0,7
80004444:	fa9ccae3          	blt	x25,x9,800043f8 <_vfprintf_r+0x2190>
80004448:	01c12703          	lw	x14,28(x2)
8000444c:	02012283          	lw	x5,32(x2)
80004450:	00960633          	add	x12,x12,x9
80004454:	00158593          	addi	x11,x11,1
80004458:	0ac12e23          	sw	x12,188(x2)
8000445c:	0ab12c23          	sw	x11,184(x2)
80004460:	0056a023          	sw	x5,0(x13)
80004464:	0096a223          	sw	x9,4(x13)
80004468:	76b84e63          	blt	x16,x11,80004be4 <_vfprintf_r+0x297c>
8000446c:	000d4583          	lbu	x11,0(x26)
80004470:	00868693          	addi	x13,x13,8
80004474:	f51ff06f          	jal	x0,800043c4 <_vfprintf_r+0x215c>
80004478:	00412583          	lw	x11,4(x2)
8000447c:	0b410613          	addi	x12,x2,180
80004480:	00090513          	addi	x10,x18,0
80004484:	6b9000ef          	jal	x1,8000533c <__sprint_r>
80004488:	98051e63          	bne	x10,x0,80003624 <_vfprintf_r+0x13bc>
8000448c:	0bc12603          	lw	x12,188(x2)
80004490:	00098693          	addi	x13,x19,0
80004494:	b7418893          	addi	x17,x3,-1164 # 80011844 <zeroes.0>
80004498:	00700813          	addi	x16,x0,7
8000449c:	ed5ff06f          	jal	x0,80004370 <_vfprintf_r+0x2108>
800044a0:	00412583          	lw	x11,4(x2)
800044a4:	0b410613          	addi	x12,x2,180
800044a8:	00090513          	addi	x10,x18,0
800044ac:	00e12e23          	sw	x14,28(x2)
800044b0:	68d000ef          	jal	x1,8000533c <__sprint_r>
800044b4:	96051863          	bne	x10,x0,80003624 <_vfprintf_r+0x13bc>
800044b8:	000d4583          	lbu	x11,0(x26)
800044bc:	0bc12603          	lw	x12,188(x2)
800044c0:	01c12703          	lw	x14,28(x2)
800044c4:	00098693          	addi	x13,x19,0
800044c8:	b7418893          	addi	x17,x3,-1164 # 80011844 <zeroes.0>
800044cc:	00700813          	addi	x16,x0,7
800044d0:	ee1ff06f          	jal	x0,800043b0 <_vfprintf_r+0x2148>
800044d4:	03812303          	lw	x6,56(x2)
800044d8:	000a8813          	addi	x16,x21,0
800044dc:	000d8793          	addi	x15,x27,0
800044e0:	00048a93          	addi	x21,x9,0
800044e4:	01560633          	add	x12,x12,x21
800044e8:	00170713          	addi	x14,x14,1
800044ec:	010b2023          	sw	x16,0(x22)
800044f0:	015b2223          	sw	x21,4(x22)
800044f4:	0ac12e23          	sw	x12,188(x2)
800044f8:	0ae12c23          	sw	x14,184(x2)
800044fc:	00700593          	addi	x11,x0,7
80004500:	008b0b13          	addi	x22,x22,8
80004504:	b4e5d863          	bge	x11,x14,80003854 <_vfprintf_r+0x15ec>
80004508:	00412583          	lw	x11,4(x2)
8000450c:	0b410613          	addi	x12,x2,180
80004510:	00090513          	addi	x10,x18,0
80004514:	02612e23          	sw	x6,60(x2)
80004518:	02f12c23          	sw	x15,56(x2)
8000451c:	621000ef          	jal	x1,8000533c <__sprint_r>
80004520:	90051263          	bne	x10,x0,80003624 <_vfprintf_r+0x13bc>
80004524:	0bc12603          	lw	x12,188(x2)
80004528:	03c12303          	lw	x6,60(x2)
8000452c:	03812783          	lw	x15,56(x2)
80004530:	00098b13          	addi	x22,x19,0
80004534:	b20ff06f          	jal	x0,80003854 <_vfprintf_r+0x15ec>
80004538:	00078c13          	addi	x24,x15,0
8000453c:	819ff06f          	jal	x0,80003d54 <_vfprintf_r+0x1aec>
80004540:	00412583          	lw	x11,4(x2)
80004544:	0b410613          	addi	x12,x2,180
80004548:	00090513          	addi	x10,x18,0
8000454c:	02612e23          	sw	x6,60(x2)
80004550:	02f12c23          	sw	x15,56(x2)
80004554:	5e9000ef          	jal	x1,8000533c <__sprint_r>
80004558:	8c051663          	bne	x10,x0,80003624 <_vfprintf_r+0x13bc>
8000455c:	0bc12603          	lw	x12,188(x2)
80004560:	03c12303          	lw	x6,60(x2)
80004564:	03812783          	lw	x15,56(x2)
80004568:	00098b13          	addi	x22,x19,0
8000456c:	ad4ff06f          	jal	x0,80003840 <_vfprintf_r+0x15d8>
80004570:	001bf713          	andi	x14,x23,1
80004574:	00071463          	bne	x14,x0,8000457c <_vfprintf_r+0x2314>
80004578:	fe1fd06f          	jal	x0,80002558 <_vfprintf_r+0x2f0>
8000457c:	02412683          	lw	x13,36(x2)
80004580:	0b812703          	lw	x14,184(x2)
80004584:	00700593          	addi	x11,x0,7
80004588:	00c68633          	add	x12,x13,x12
8000458c:	02812683          	lw	x13,40(x2)
80004590:	00170713          	addi	x14,x14,1
80004594:	0ac12e23          	sw	x12,188(x2)
80004598:	00db2023          	sw	x13,0(x22)
8000459c:	02412683          	lw	x13,36(x2)
800045a0:	0ae12c23          	sw	x14,184(x2)
800045a4:	00db2223          	sw	x13,4(x22)
800045a8:	74e5d263          	bge	x11,x14,80004cec <_vfprintf_r+0x2a84>
800045ac:	00412583          	lw	x11,4(x2)
800045b0:	0b410613          	addi	x12,x2,180
800045b4:	00090513          	addi	x10,x18,0
800045b8:	00f12e23          	sw	x15,28(x2)
800045bc:	581000ef          	jal	x1,8000533c <__sprint_r>
800045c0:	00050463          	beq	x10,x0,800045c8 <_vfprintf_r+0x2360>
800045c4:	860ff06f          	jal	x0,80003624 <_vfprintf_r+0x13bc>
800045c8:	09812503          	lw	x10,152(x2)
800045cc:	0bc12603          	lw	x12,188(x2)
800045d0:	0b812703          	lw	x14,184(x2)
800045d4:	01c12783          	lw	x15,28(x2)
800045d8:	00098b13          	addi	x22,x19,0
800045dc:	a05ff06f          	jal	x0,80003fe0 <_vfprintf_r+0x1d78>
800045e0:	01812703          	lw	x14,24(x2)
800045e4:	00e787b3          	add	x15,x15,x14
800045e8:	41b78cb3          	sub	x25,x15,x27
800045ec:	41570ab3          	sub	x21,x14,x21
800045f0:	b19ad263          	bge	x21,x25,800038f4 <_vfprintf_r+0x168c>
800045f4:	000a8c93          	addi	x25,x21,0
800045f8:	afcff06f          	jal	x0,800038f4 <_vfprintf_r+0x168c>
800045fc:	00098b13          	addi	x22,x19,0
80004600:	f21fd06f          	jal	x0,80002520 <_vfprintf_r+0x2b8>
80004604:	00c12783          	lw	x15,12(x2)
80004608:	00812683          	lw	x13,8(x2)
8000460c:	00e12623          	sw	x14,12(x2)
80004610:	0007a783          	lw	x15,0(x15)
80004614:	00d79023          	sh	x13,0(x15)
80004618:	d55fd06f          	jal	x0,8000236c <_vfprintf_r+0x104>
8000461c:	41fc5e93          	srai	x29,x24,0x1f
80004620:	00f12623          	sw	x15,12(x2)
80004624:	000e8713          	addi	x14,x29,0
80004628:	8f9fe06f          	jal	x0,80002f20 <_vfprintf_r+0xcb8>
8000462c:	0ffc7c13          	andi	x24,x24,255
80004630:	00000e93          	addi	x29,x0,0
80004634:	000ac463          	blt	x21,x0,8000463c <_vfprintf_r+0x23d4>
80004638:	c49fe06f          	jal	x0,80003280 <_vfprintf_r+0x1018>
8000463c:	9d9fe06f          	jal	x0,80003014 <_vfprintf_r+0xdac>
80004640:	0ff77713          	andi	x14,x14,255
80004644:	00000613          	addi	x12,x0,0
80004648:	ec8ff06f          	jal	x0,80003d10 <_vfprintf_r+0x1aa8>
8000464c:	00f12623          	sw	x15,12(x2)
80004650:	000b8693          	addi	x13,x23,0
80004654:	00000613          	addi	x12,x0,0
80004658:	b31fe06f          	jal	x0,80003188 <_vfprintf_r+0xf20>
8000465c:	04700793          	addi	x15,x0,71
80004660:	09314703          	lbu	x14,147(x2)
80004664:	0f17d6e3          	bge	x15,x17,80004f50 <_vfprintf_r+0x2ce8>
80004668:	86c18793          	addi	x15,x3,-1940 # 8001153c <__clz_tab+0x110>
8000466c:	3c0712e3          	bne	x14,x0,80005230 <_vfprintf_r+0x2fc8>
80004670:	00300c93          	addi	x25,x0,3
80004674:	000c8c13          	addi	x24,x25,0
80004678:	00000a93          	addi	x21,x0,0
8000467c:	02012023          	sw	x0,32(x2)
80004680:	00012e23          	sw	x0,28(x2)
80004684:	00012823          	sw	x0,16(x2)
80004688:	e09fd06f          	jal	x0,80002490 <_vfprintf_r+0x228>
8000468c:	86418793          	addi	x15,x3,-1948 # 80011534 <__clz_tab+0x108>
80004690:	a99ff06f          	jal	x0,80004128 <_vfprintf_r+0x1ec0>
80004694:	04412703          	lw	x14,68(x2)
80004698:	03412583          	lw	x11,52(x2)
8000469c:	01d12e23          	sw	x29,28(x2)
800046a0:	40e786b3          	sub	x13,x15,x14
800046a4:	00070613          	addi	x12,x14,0
800046a8:	00068513          	addi	x10,x13,0
800046ac:	01012c23          	sw	x16,24(x2)
800046b0:	00d12823          	sw	x13,16(x2)
800046b4:	469010ef          	jal	x1,8000631c <strncpy>
800046b8:	01c12e83          	lw	x29,28(x2)
800046bc:	ccccd637          	lui	x12,0xccccd
800046c0:	ccd60613          	addi	x12,x12,-819 # cccccccd <_stack_top+0x44cccccd>
800046c4:	01dc0733          	add	x14,x24,x29
800046c8:	018737b3          	sltu	x15,x14,x24
800046cc:	00f70733          	add	x14,x14,x15
800046d0:	02c735b3          	mulhu	x11,x14,x12
800046d4:	ccccd537          	lui	x10,0xccccd
800046d8:	ccc50513          	addi	x10,x10,-820 # cccccccc <_stack_top+0x44cccccc>
800046dc:	03012783          	lw	x15,48(x2)
800046e0:	03012683          	lw	x13,48(x2)
800046e4:	01812803          	lw	x16,24(x2)
800046e8:	0017c783          	lbu	x15,1(x15)
800046ec:	00f037b3          	sltu	x15,x0,x15
800046f0:	0025d893          	srli	x17,x11,0x2
800046f4:	ffc5f593          	andi	x11,x11,-4
800046f8:	011585b3          	add	x11,x11,x17
800046fc:	40b70733          	sub	x14,x14,x11
80004700:	40ec0733          	sub	x14,x24,x14
80004704:	00ec35b3          	sltu	x11,x24,x14
80004708:	40be85b3          	sub	x11,x29,x11
8000470c:	02a70533          	mul	x10,x14,x10
80004710:	00f687b3          	add	x15,x13,x15
80004714:	01012683          	lw	x13,16(x2)
80004718:	02f12823          	sw	x15,48(x2)
8000471c:	fff68793          	addi	x15,x13,-1
80004720:	02c585b3          	mul	x11,x11,x12
80004724:	00a585b3          	add	x11,x11,x10
80004728:	02c73533          	mulhu	x10,x14,x12
8000472c:	02c70733          	mul	x14,x14,x12
80004730:	00a585b3          	add	x11,x11,x10
80004734:	01f59513          	slli	x10,x11,0x1f
80004738:	0015de93          	srli	x29,x11,0x1
8000473c:	00100593          	addi	x11,x0,1
80004740:	00175713          	srli	x14,x14,0x1
80004744:	00e50c33          	add	x24,x10,x14
80004748:	01dc0733          	add	x14,x24,x29
8000474c:	01873533          	sltu	x10,x14,x24
80004750:	00a70733          	add	x14,x14,x10
80004754:	02c73533          	mulhu	x10,x14,x12
80004758:	00255893          	srli	x17,x10,0x2
8000475c:	ffc57513          	andi	x10,x10,-4
80004760:	01150533          	add	x10,x10,x17
80004764:	40a70733          	sub	x14,x14,x10
80004768:	40ec0733          	sub	x14,x24,x14
8000476c:	00ec3533          	sltu	x10,x24,x14
80004770:	40ae8533          	sub	x10,x29,x10
80004774:	02c738b3          	mulhu	x17,x14,x12
80004778:	02c50533          	mul	x10,x10,x12
8000477c:	02c70733          	mul	x14,x14,x12
80004780:	01150633          	add	x12,x10,x17
80004784:	01f61613          	slli	x12,x12,0x1f
80004788:	00175713          	srli	x14,x14,0x1
8000478c:	00e60733          	add	x14,x12,x14
80004790:	00271613          	slli	x12,x14,0x2
80004794:	00e60733          	add	x14,x12,x14
80004798:	00171713          	slli	x14,x14,0x1
8000479c:	40ec0733          	sub	x14,x24,x14
800047a0:	03070713          	addi	x14,x14,48
800047a4:	fee68fa3          	sb	x14,-1(x13)
800047a8:	b0dfe06f          	jal	x0,800032b4 <_vfprintf_r+0x104c>
800047ac:	07800793          	addi	x15,x0,120
800047b0:	f39fd06f          	jal	x0,800026e8 <_vfprintf_r+0x480>
800047b4:	6c0cca63          	blt	x25,x0,80004e88 <_vfprintf_r+0x2c20>
800047b8:	02012c23          	sw	x0,56(x2)
800047bc:	00600a93          	addi	x21,x0,6
800047c0:	04600793          	addi	x15,x0,70
800047c4:	44fc1c63          	bne	x24,x15,80004c1c <_vfprintf_r+0x29b4>
800047c8:	09c10793          	addi	x15,x2,156
800047cc:	09810713          	addi	x14,x2,152
800047d0:	000a8693          	addi	x13,x21,0
800047d4:	08010593          	addi	x11,x2,128
800047d8:	0a010813          	addi	x16,x2,160
800047dc:	00300613          	addi	x12,x0,3
800047e0:	00090513          	addi	x10,x18,0
800047e4:	03112e23          	sw	x17,60(x2)
800047e8:	09d12023          	sw	x29,128(x2)
800047ec:	03d12023          	sw	x29,32(x2)
800047f0:	09e12223          	sw	x30,132(x2)
800047f4:	01e12e23          	sw	x30,28(x2)
800047f8:	08512423          	sw	x5,136(x2)
800047fc:	00512c23          	sw	x5,24(x2)
80004800:	09912623          	sw	x25,140(x2)
80004804:	30c020ef          	jal	x1,80006b10 <_ldtoa_r>
80004808:	00054683          	lbu	x13,0(x10)
8000480c:	03000713          	addi	x14,x0,48
80004810:	01812283          	lw	x5,24(x2)
80004814:	01c12f03          	lw	x30,28(x2)
80004818:	02012e83          	lw	x29,32(x2)
8000481c:	03c12883          	lw	x17,60(x2)
80004820:	00050793          	addi	x15,x10,0
80004824:	015504b3          	add	x9,x10,x21
80004828:	02e68ee3          	beq	x13,x14,80005064 <_vfprintf_r+0x2dfc>
8000482c:	09812d83          	lw	x27,152(x2)
80004830:	08010513          	addi	x10,x2,128
80004834:	07010593          	addi	x11,x2,112
80004838:	00f12e23          	sw	x15,28(x2)
8000483c:	09912623          	sw	x25,140(x2)
80004840:	01112c23          	sw	x17,24(x2)
80004844:	09d12023          	sw	x29,128(x2)
80004848:	09e12223          	sw	x30,132(x2)
8000484c:	08512423          	sw	x5,136(x2)
80004850:	06012823          	sw	x0,112(x2)
80004854:	06012a23          	sw	x0,116(x2)
80004858:	06012c23          	sw	x0,120(x2)
8000485c:	06012e23          	sw	x0,124(x2)
80004860:	0c80a0ef          	jal	x1,8000e928 <__eqtf2>
80004864:	01c12783          	lw	x15,28(x2)
80004868:	01b48cb3          	add	x25,x9,x27
8000486c:	000d8313          	addi	x6,x27,0
80004870:	7c051e63          	bne	x10,x0,8000504c <_vfprintf_r+0x2de4>
80004874:	40fc8733          	sub	x14,x25,x15
80004878:	00e12c23          	sw	x14,24(x2)
8000487c:	001bf713          	andi	x14,x23,1
80004880:	01576733          	or	x14,x14,x21
80004884:	0c605ce3          	bge	x0,x6,8000515c <_vfprintf_r+0x2ef4>
80004888:	020714e3          	bne	x14,x0,800050b0 <_vfprintf_r+0x2e48>
8000488c:	00030c93          	addi	x25,x6,0
80004890:	06600893          	addi	x17,x0,102
80004894:	400bfe13          	andi	x28,x23,1024
80004898:	6c0e1a63          	bne	x28,x0,80004f6c <_vfprintf_r+0x2d04>
8000489c:	fffcc693          	xori	x13,x25,-1
800048a0:	41f6d693          	srai	x13,x13,0x1f
800048a4:	00dcfc33          	and	x24,x25,x13
800048a8:	03812703          	lw	x14,56(x2)
800048ac:	4c070663          	beq	x14,x0,80004d78 <_vfprintf_r+0x2b10>
800048b0:	02d00713          	addi	x14,x0,45
800048b4:	08e109a3          	sb	x14,147(x2)
800048b8:	001c0c13          	addi	x24,x24,1
800048bc:	01012b83          	lw	x23,16(x2)
800048c0:	00000a93          	addi	x21,x0,0
800048c4:	00012823          	sw	x0,16(x2)
800048c8:	02012023          	sw	x0,32(x2)
800048cc:	00012e23          	sw	x0,28(x2)
800048d0:	bc1fd06f          	jal	x0,80002490 <_vfprintf_r+0x228>
800048d4:	001a8593          	addi	x11,x21,1
800048d8:	00090513          	addi	x10,x18,0
800048dc:	01112823          	sw	x17,16(x2)
800048e0:	84dfc0ef          	jal	x1,8000112c <_malloc_r>
800048e4:	01012883          	lw	x17,16(x2)
800048e8:	00050793          	addi	x15,x10,0
800048ec:	120500e3          	beq	x10,x0,8000520c <_vfprintf_r+0x2fa4>
800048f0:	0cc12703          	lw	x14,204(x2)
800048f4:	00a12823          	sw	x10,16(x2)
800048f8:	0c012683          	lw	x13,192(x2)
800048fc:	0c412603          	lw	x12,196(x2)
80004900:	0c812583          	lw	x11,200(x2)
80004904:	62074c63          	blt	x14,x0,80004f3c <_vfprintf_r+0x2cd4>
80004908:	02012c23          	sw	x0,56(x2)
8000490c:	e11fd06f          	jal	x0,8000271c <_vfprintf_r+0x4b4>
80004910:	000b8d93          	addi	x27,x23,0
80004914:	03a12823          	sw	x26,48(x2)
80004918:	03812783          	lw	x15,56(x2)
8000491c:	03c12b83          	lw	x23,60(x2)
80004920:	04012c03          	lw	x24,64(x2)
80004924:	04812d03          	lw	x26,72(x2)
80004928:	00068b13          	addi	x22,x13,0
8000492c:	01b76463          	bltu	x14,x27,80004934 <_vfprintf_r+0x26cc>
80004930:	f31fe06f          	jal	x0,80003860 <_vfprintf_r+0x15f8>
80004934:	00070d93          	addi	x27,x14,0
80004938:	f29fe06f          	jal	x0,80003860 <_vfprintf_r+0x15f8>
8000493c:	02012c23          	sw	x0,56(x2)
80004940:	000cda63          	bge	x25,x0,80004954 <_vfprintf_r+0x26ec>
80004944:	800007b7          	lui	x15,0x80000
80004948:	00fcccb3          	xor	x25,x25,x15
8000494c:	02d00793          	addi	x15,x0,45
80004950:	02f12c23          	sw	x15,56(x2)
80004954:	08010d93          	addi	x27,x2,128
80004958:	09c10793          	addi	x15,x2,156
8000495c:	000d8593          	addi	x11,x27,0
80004960:	0a010813          	addi	x16,x2,160
80004964:	09810713          	addi	x14,x2,152
80004968:	00100693          	addi	x13,x0,1
8000496c:	00200613          	addi	x12,x0,2
80004970:	00090513          	addi	x10,x18,0
80004974:	05112023          	sw	x17,64(x2)
80004978:	09d12023          	sw	x29,128(x2)
8000497c:	03d12e23          	sw	x29,60(x2)
80004980:	09e12223          	sw	x30,132(x2)
80004984:	03e12023          	sw	x30,32(x2)
80004988:	08512423          	sw	x5,136(x2)
8000498c:	00512e23          	sw	x5,28(x2)
80004990:	09912623          	sw	x25,140(x2)
80004994:	17c020ef          	jal	x1,80006b10 <_ldtoa_r>
80004998:	01c12283          	lw	x5,28(x2)
8000499c:	02012f03          	lw	x30,32(x2)
800049a0:	03c12e83          	lw	x29,60(x2)
800049a4:	04012883          	lw	x17,64(x2)
800049a8:	00100a93          	addi	x21,x0,1
800049ac:	00050793          	addi	x15,x10,0
800049b0:	01512c23          	sw	x21,24(x2)
800049b4:	001bf713          	andi	x14,x23,1
800049b8:	18070e63          	beq	x14,x0,80004b54 <_vfprintf_r+0x28ec>
800049bc:	000d8513          	addi	x10,x27,0
800049c0:	07010593          	addi	x11,x2,112
800049c4:	02f12023          	sw	x15,32(x2)
800049c8:	01112e23          	sw	x17,28(x2)
800049cc:	09d12023          	sw	x29,128(x2)
800049d0:	09e12223          	sw	x30,132(x2)
800049d4:	08512423          	sw	x5,136(x2)
800049d8:	09912623          	sw	x25,140(x2)
800049dc:	06012823          	sw	x0,112(x2)
800049e0:	06012a23          	sw	x0,116(x2)
800049e4:	06012c23          	sw	x0,120(x2)
800049e8:	06012e23          	sw	x0,124(x2)
800049ec:	73d090ef          	jal	x1,8000e928 <__eqtf2>
800049f0:	01c12883          	lw	x17,28(x2)
800049f4:	02012783          	lw	x15,32(x2)
800049f8:	7c050463          	beq	x10,x0,800051c0 <_vfprintf_r+0x2f58>
800049fc:	01812683          	lw	x13,24(x2)
80004a00:	0a012703          	lw	x14,160(x2)
80004a04:	00d78cb3          	add	x25,x15,x13
80004a08:	059772e3          	bgeu	x14,x25,8000524c <_vfprintf_r+0x2fe4>
80004a0c:	03000613          	addi	x12,x0,48
80004a10:	00170693          	addi	x13,x14,1
80004a14:	0ad12023          	sw	x13,160(x2)
80004a18:	00c70023          	sb	x12,0(x14)
80004a1c:	0a012703          	lw	x14,160(x2)
80004a20:	ff9768e3          	bltu	x14,x25,80004a10 <_vfprintf_r+0x27a8>
80004a24:	40f70733          	sub	x14,x14,x15
80004a28:	04700693          	addi	x13,x0,71
80004a2c:	00e12c23          	sw	x14,24(x2)
80004a30:	09812303          	lw	x6,152(x2)
80004a34:	12dc0863          	beq	x24,x13,80004b64 <_vfprintf_r+0x28fc>
80004a38:	04600713          	addi	x14,x0,70
80004a3c:	e4ec00e3          	beq	x24,x14,8000487c <_vfprintf_r+0x2614>
80004a40:	fff30713          	addi	x14,x6,-1
80004a44:	0b110223          	sb	x17,164(x2)
80004a48:	08e12c23          	sw	x14,152(x2)
80004a4c:	66074c63          	blt	x14,x0,800050c4 <_vfprintf_r+0x2e5c>
80004a50:	02b00693          	addi	x13,x0,43
80004a54:	0ad102a3          	sb	x13,165(x2)
80004a58:	00900693          	addi	x13,x0,9
80004a5c:	68e6d063          	bge	x13,x14,800050dc <_vfprintf_r+0x2e74>
80004a60:	01712e23          	sw	x23,28(x2)
80004a64:	00012823          	sw	x0,16(x2)
80004a68:	0b310e93          	addi	x29,x2,179
80004a6c:	ccccde37          	lui	x28,0xccccd
80004a70:	000e8513          	addi	x10,x29,0
80004a74:	ccde0e13          	addi	x28,x28,-819 # cccccccd <_stack_top+0x44cccccd>
80004a78:	06300f13          	addi	x30,x0,99
80004a7c:	03c736b3          	mulhu	x13,x14,x28
80004a80:	00070813          	addi	x16,x14,0
80004a84:	00050593          	addi	x11,x10,0
80004a88:	fff50513          	addi	x10,x10,-1
80004a8c:	0036d693          	srli	x13,x13,0x3
80004a90:	00269613          	slli	x12,x13,0x2
80004a94:	00d60633          	add	x12,x12,x13
80004a98:	00161613          	slli	x12,x12,0x1
80004a9c:	40c70733          	sub	x14,x14,x12
80004aa0:	03070713          	addi	x14,x14,48
80004aa4:	fee58fa3          	sb	x14,-1(x11)
80004aa8:	00068713          	addi	x14,x13,0
80004aac:	fd0f48e3          	blt	x30,x16,80004a7c <_vfprintf_r+0x2814>
80004ab0:	03068713          	addi	x14,x13,48
80004ab4:	fee50fa3          	sb	x14,-1(x10)
80004ab8:	ffe58713          	addi	x14,x11,-2
80004abc:	71d77e63          	bgeu	x14,x29,800051d8 <_vfprintf_r+0x2f70>
80004ac0:	0a610513          	addi	x10,x2,166
80004ac4:	00050693          	addi	x13,x10,0
80004ac8:	00074603          	lbu	x12,0(x14)
80004acc:	00170713          	addi	x14,x14,1
80004ad0:	00168693          	addi	x13,x13,1
80004ad4:	fec68fa3          	sb	x12,-1(x13)
80004ad8:	ffd718e3          	bne	x14,x29,80004ac8 <_vfprintf_r+0x2860>
80004adc:	00a70733          	add	x14,x14,x10
80004ae0:	00270713          	addi	x14,x14,2
80004ae4:	40b70733          	sub	x14,x14,x11
80004ae8:	0a410693          	addi	x13,x2,164
80004aec:	40d70733          	sub	x14,x14,x13
80004af0:	02e12623          	sw	x14,44(x2)
80004af4:	01812683          	lw	x13,24(x2)
80004af8:	02c12603          	lw	x12,44(x2)
80004afc:	00100713          	addi	x14,x0,1
80004b00:	00c68cb3          	add	x25,x13,x12
80004b04:	40d75c63          	bge	x14,x13,80004f1c <_vfprintf_r+0x2cb4>
80004b08:	02412703          	lw	x14,36(x2)
80004b0c:	00ec8cb3          	add	x25,x25,x14
80004b10:	01c12703          	lw	x14,28(x2)
80004b14:	fffcc693          	xori	x13,x25,-1
80004b18:	41f6d693          	srai	x13,x13,0x1f
80004b1c:	bff77e13          	andi	x28,x14,-1025
80004b20:	00277313          	andi	x6,x14,2
80004b24:	03812703          	lw	x14,56(x2)
80004b28:	00dcfc33          	and	x24,x25,x13
80004b2c:	100e6b93          	ori	x23,x28,256
80004b30:	34070263          	beq	x14,x0,80004e74 <_vfprintf_r+0x2c0c>
80004b34:	02d00e93          	addi	x29,x0,45
80004b38:	09d109a3          	sb	x29,147(x2)
80004b3c:	00000a93          	addi	x21,x0,0
80004b40:	001c0c13          	addi	x24,x24,1
80004b44:	c1cfe06f          	jal	x0,80002f60 <_vfprintf_r+0xcf8>
80004b48:	01812683          	lw	x13,24(x2)
80004b4c:	00a6c583          	lbu	x11,10(x13)
80004b50:	ec5fd06f          	jal	x0,80002a14 <_vfprintf_r+0x7ac>
80004b54:	0a012703          	lw	x14,160(x2)
80004b58:	09812303          	lw	x6,152(x2)
80004b5c:	40f70733          	sub	x14,x14,x15
80004b60:	00e12c23          	sw	x14,24(x2)
80004b64:	ffd32713          	slti	x14,x6,-3
80004b68:	00071463          	bne	x14,x0,80004b70 <_vfprintf_r+0x2908>
80004b6c:	006ad663          	bge	x21,x6,80004b78 <_vfprintf_r+0x2910>
80004b70:	ffe88893          	addi	x17,x17,-2
80004b74:	ecdff06f          	jal	x0,80004a40 <_vfprintf_r+0x27d8>
80004b78:	01812703          	lw	x14,24(x2)
80004b7c:	2ce34663          	blt	x6,x14,80004e48 <_vfprintf_r+0x2be0>
80004b80:	001bf713          	andi	x14,x23,1
80004b84:	00030c93          	addi	x25,x6,0
80004b88:	00070663          	beq	x14,x0,80004b94 <_vfprintf_r+0x292c>
80004b8c:	02412703          	lw	x14,36(x2)
80004b90:	00e30cb3          	add	x25,x6,x14
80004b94:	400bfe13          	andi	x28,x23,1024
80004b98:	000e0463          	beq	x28,x0,80004ba0 <_vfprintf_r+0x2938>
80004b9c:	3c604663          	blt	x0,x6,80004f68 <_vfprintf_r+0x2d00>
80004ba0:	fffcc693          	xori	x13,x25,-1
80004ba4:	41f6d693          	srai	x13,x13,0x1f
80004ba8:	00dcfc33          	and	x24,x25,x13
80004bac:	06700893          	addi	x17,x0,103
80004bb0:	cf9ff06f          	jal	x0,800048a8 <_vfprintf_r+0x2640>
80004bb4:	00412583          	lw	x11,4(x2)
80004bb8:	0b410613          	addi	x12,x2,180
80004bbc:	00090513          	addi	x10,x18,0
80004bc0:	00f12e23          	sw	x15,28(x2)
80004bc4:	778000ef          	jal	x1,8000533c <__sprint_r>
80004bc8:	00050463          	beq	x10,x0,80004bd0 <_vfprintf_r+0x2968>
80004bcc:	a59fe06f          	jal	x0,80003624 <_vfprintf_r+0x13bc>
80004bd0:	09812503          	lw	x10,152(x2)
80004bd4:	0bc12603          	lw	x12,188(x2)
80004bd8:	01c12783          	lw	x15,28(x2)
80004bdc:	00098b13          	addi	x22,x19,0
80004be0:	bc0ff06f          	jal	x0,80003fa0 <_vfprintf_r+0x1d38>
80004be4:	00412583          	lw	x11,4(x2)
80004be8:	0b410613          	addi	x12,x2,180
80004bec:	00090513          	addi	x10,x18,0
80004bf0:	00e12e23          	sw	x14,28(x2)
80004bf4:	748000ef          	jal	x1,8000533c <__sprint_r>
80004bf8:	00050463          	beq	x10,x0,80004c00 <_vfprintf_r+0x2998>
80004bfc:	a29fe06f          	jal	x0,80003624 <_vfprintf_r+0x13bc>
80004c00:	000d4583          	lbu	x11,0(x26)
80004c04:	0bc12603          	lw	x12,188(x2)
80004c08:	01c12703          	lw	x14,28(x2)
80004c0c:	00098693          	addi	x13,x19,0
80004c10:	b7418893          	addi	x17,x3,-1164 # 80011844 <zeroes.0>
80004c14:	00700813          	addi	x16,x0,7
80004c18:	facff06f          	jal	x0,800043c4 <_vfprintf_r+0x215c>
80004c1c:	fbbc0793          	addi	x15,x24,-69
80004c20:	0017b793          	sltiu	x15,x15,1
80004c24:	015787b3          	add	x15,x15,x21
80004c28:	08010d93          	addi	x27,x2,128
80004c2c:	00f12c23          	sw	x15,24(x2)
80004c30:	00078693          	addi	x13,x15,0 # 80000000 <_start>
80004c34:	09810713          	addi	x14,x2,152
80004c38:	09c10793          	addi	x15,x2,156
80004c3c:	000d8593          	addi	x11,x27,0
80004c40:	0a010813          	addi	x16,x2,160
80004c44:	00200613          	addi	x12,x0,2
80004c48:	00090513          	addi	x10,x18,0
80004c4c:	05112023          	sw	x17,64(x2)
80004c50:	09d12023          	sw	x29,128(x2)
80004c54:	03d12e23          	sw	x29,60(x2)
80004c58:	09e12223          	sw	x30,132(x2)
80004c5c:	03e12023          	sw	x30,32(x2)
80004c60:	08512423          	sw	x5,136(x2)
80004c64:	00512e23          	sw	x5,28(x2)
80004c68:	09912623          	sw	x25,140(x2)
80004c6c:	6a5010ef          	jal	x1,80006b10 <_ldtoa_r>
80004c70:	04700713          	addi	x14,x0,71
80004c74:	01c12283          	lw	x5,28(x2)
80004c78:	02012f03          	lw	x30,32(x2)
80004c7c:	03c12e83          	lw	x29,60(x2)
80004c80:	04012883          	lw	x17,64(x2)
80004c84:	00050793          	addi	x15,x10,0
80004c88:	d2ec06e3          	beq	x24,x14,800049b4 <_vfprintf_r+0x274c>
80004c8c:	02a12023          	sw	x10,32(x2)
80004c90:	07010593          	addi	x11,x2,112
80004c94:	000d8513          	addi	x10,x27,0
80004c98:	01112e23          	sw	x17,28(x2)
80004c9c:	09d12023          	sw	x29,128(x2)
80004ca0:	09e12223          	sw	x30,132(x2)
80004ca4:	08512423          	sw	x5,136(x2)
80004ca8:	09912623          	sw	x25,140(x2)
80004cac:	06012823          	sw	x0,112(x2)
80004cb0:	06012a23          	sw	x0,116(x2)
80004cb4:	06012c23          	sw	x0,120(x2)
80004cb8:	06012e23          	sw	x0,124(x2)
80004cbc:	46d090ef          	jal	x1,8000e928 <__eqtf2>
80004cc0:	01c12883          	lw	x17,28(x2)
80004cc4:	02012783          	lw	x15,32(x2)
80004cc8:	58050a63          	beq	x10,x0,8000525c <_vfprintf_r+0x2ff4>
80004ccc:	01812683          	lw	x13,24(x2)
80004cd0:	0a012703          	lw	x14,160(x2)
80004cd4:	00d78cb3          	add	x25,x15,x13
80004cd8:	d3976ae3          	bltu	x14,x25,80004a0c <_vfprintf_r+0x27a4>
80004cdc:	40f70733          	sub	x14,x14,x15
80004ce0:	09812303          	lw	x6,152(x2)
80004ce4:	00e12c23          	sw	x14,24(x2)
80004ce8:	d59ff06f          	jal	x0,80004a40 <_vfprintf_r+0x27d8>
80004cec:	008b0b13          	addi	x22,x22,8
80004cf0:	af4ff06f          	jal	x0,80003fe4 <_vfprintf_r+0x1d7c>
80004cf4:	02d00793          	addi	x15,x0,45
80004cf8:	08f109a3          	sb	x15,147(x2)
80004cfc:	04700793          	addi	x15,x0,71
80004d00:	2317d663          	bge	x15,x17,80004f2c <_vfprintf_r+0x2cc4>
80004d04:	86418793          	addi	x15,x3,-1948 # 80011534 <__clz_tab+0x108>
80004d08:	da8ff06f          	jal	x0,800042b0 <_vfprintf_r+0x2048>
80004d0c:	00412583          	lw	x11,4(x2)
80004d10:	0b410613          	addi	x12,x2,180
80004d14:	00090513          	addi	x10,x18,0
80004d18:	00f12e23          	sw	x15,28(x2)
80004d1c:	620000ef          	jal	x1,8000533c <__sprint_r>
80004d20:	00050463          	beq	x10,x0,80004d28 <_vfprintf_r+0x2ac0>
80004d24:	901fe06f          	jal	x0,80003624 <_vfprintf_r+0x13bc>
80004d28:	09812a83          	lw	x21,152(x2)
80004d2c:	0bc12603          	lw	x12,188(x2)
80004d30:	01c12783          	lw	x15,28(x2)
80004d34:	00098b13          	addi	x22,x19,0
80004d38:	b75fe06f          	jal	x0,800038ac <_vfprintf_r+0x1644>
80004d3c:	b8418813          	addi	x16,x3,-1148 # 80011854 <blanks.1>
80004d40:	c99fe06f          	jal	x0,800039d8 <_vfprintf_r+0x1770>
80004d44:	00900713          	addi	x14,x0,9
80004d48:	00677463          	bgeu	x14,x6,80004d50 <_vfprintf_r+0x2ae8>
80004d4c:	de4fe06f          	jal	x0,80003330 <_vfprintf_r+0x10c8>
80004d50:	b28ff06f          	jal	x0,80004078 <_vfprintf_r+0x1e10>
80004d54:	00912623          	sw	x9,12(x2)
80004d58:	1a070463          	beq	x14,x0,80004f00 <_vfprintf_r+0x2c98>
80004d5c:	001a8c13          	addi	x24,x21,1
80004d60:	000a8c93          	addi	x25,x21,0
80004d64:	02012023          	sw	x0,32(x2)
80004d68:	00000a93          	addi	x21,x0,0
80004d6c:	00012e23          	sw	x0,28(x2)
80004d70:	00000313          	addi	x6,x0,0
80004d74:	f1cfd06f          	jal	x0,80002490 <_vfprintf_r+0x228>
80004d78:	09314703          	lbu	x14,147(x2)
80004d7c:	b40700e3          	beq	x14,x0,800048bc <_vfprintf_r+0x2654>
80004d80:	001c0c13          	addi	x24,x24,1
80004d84:	b39ff06f          	jal	x0,800048bc <_vfprintf_r+0x2654>
80004d88:	00412583          	lw	x11,4(x2)
80004d8c:	0b410613          	addi	x12,x2,180
80004d90:	00090513          	addi	x10,x18,0
80004d94:	5a8000ef          	jal	x1,8000533c <__sprint_r>
80004d98:	00050463          	beq	x10,x0,80004da0 <_vfprintf_r+0x2b38>
80004d9c:	889fe06f          	jal	x0,80003624 <_vfprintf_r+0x13bc>
80004da0:	09812a83          	lw	x21,152(x2)
80004da4:	01812783          	lw	x15,24(x2)
80004da8:	0bc12603          	lw	x12,188(x2)
80004dac:	00098b13          	addi	x22,x19,0
80004db0:	41578ab3          	sub	x21,x15,x21
80004db4:	b41fe06f          	jal	x0,800038f4 <_vfprintf_r+0x168c>
80004db8:	ff000593          	addi	x11,x0,-16
80004dbc:	40a00ab3          	sub	x21,x0,x10
80004dc0:	42b55c63          	bge	x10,x11,800051f8 <_vfprintf_r+0x2f90>
80004dc4:	01000c93          	addi	x25,x0,16
80004dc8:	00700d93          	addi	x27,x0,7
80004dcc:	00f12e23          	sw	x15,28(x2)
80004dd0:	b7418493          	addi	x9,x3,-1164 # 80011844 <zeroes.0>
80004dd4:	00c0006f          	jal	x0,80004de0 <_vfprintf_r+0x2b78>
80004dd8:	ff0a8a93          	addi	x21,x21,-16
80004ddc:	0d5cd663          	bge	x25,x21,80004ea8 <_vfprintf_r+0x2c40>
80004de0:	01060613          	addi	x12,x12,16
80004de4:	00170713          	addi	x14,x14,1
80004de8:	009b2023          	sw	x9,0(x22)
80004dec:	019b2223          	sw	x25,4(x22)
80004df0:	0ac12e23          	sw	x12,188(x2)
80004df4:	0ae12c23          	sw	x14,184(x2)
80004df8:	008b0b13          	addi	x22,x22,8
80004dfc:	fceddee3          	bge	x27,x14,80004dd8 <_vfprintf_r+0x2b70>
80004e00:	00412583          	lw	x11,4(x2)
80004e04:	0b410613          	addi	x12,x2,180
80004e08:	00090513          	addi	x10,x18,0
80004e0c:	530000ef          	jal	x1,8000533c <__sprint_r>
80004e10:	00050463          	beq	x10,x0,80004e18 <_vfprintf_r+0x2bb0>
80004e14:	811fe06f          	jal	x0,80003624 <_vfprintf_r+0x13bc>
80004e18:	0bc12603          	lw	x12,188(x2)
80004e1c:	0b812703          	lw	x14,184(x2)
80004e20:	00098b13          	addi	x22,x19,0
80004e24:	fb5ff06f          	jal	x0,80004dd8 <_vfprintf_r+0x2b70>
80004e28:	000b8693          	addi	x13,x23,0
80004e2c:	d55fe06f          	jal	x0,80003b80 <_vfprintf_r+0x1918>
80004e30:	b8418813          	addi	x16,x3,-1148 # 80011854 <blanks.1>
80004e34:	929fe06f          	jal	x0,8000375c <_vfprintf_r+0x14f4>
80004e38:	000b8e13          	addi	x28,x23,0
80004e3c:	e20fe06f          	jal	x0,8000345c <_vfprintf_r+0x11f4>
80004e40:	000b8e13          	addi	x28,x23,0
80004e44:	d7dfe06f          	jal	x0,80003bc0 <_vfprintf_r+0x1958>
80004e48:	01812703          	lw	x14,24(x2)
80004e4c:	02412683          	lw	x13,36(x2)
80004e50:	06700893          	addi	x17,x0,103
80004e54:	00d70cb3          	add	x25,x14,x13
80004e58:	a2604ee3          	blt	x0,x6,80004894 <_vfprintf_r+0x262c>
80004e5c:	406c8f33          	sub	x30,x25,x6
80004e60:	001f0c93          	addi	x25,x30,1
80004e64:	fffcc693          	xori	x13,x25,-1
80004e68:	41f6d693          	srai	x13,x13,0x1f
80004e6c:	00dcfc33          	and	x24,x25,x13
80004e70:	a39ff06f          	jal	x0,800048a8 <_vfprintf_r+0x2640>
80004e74:	09314e83          	lbu	x29,147(x2)
80004e78:	00000a93          	addi	x21,x0,0
80004e7c:	000e8463          	beq	x29,x0,80004e84 <_vfprintf_r+0x2c1c>
80004e80:	9c8fe06f          	jal	x0,80003048 <_vfprintf_r+0xde0>
80004e84:	8dcfe06f          	jal	x0,80002f60 <_vfprintf_r+0xcf8>
80004e88:	00600a93          	addi	x21,x0,6
80004e8c:	800007b7          	lui	x15,0x80000
80004e90:	00fcccb3          	xor	x25,x25,x15
80004e94:	02d00793          	addi	x15,x0,45
80004e98:	02f12c23          	sw	x15,56(x2)
80004e9c:	925ff06f          	jal	x0,800047c0 <_vfprintf_r+0x2558>
80004ea0:	b7418813          	addi	x16,x3,-1164 # 80011844 <zeroes.0>
80004ea4:	f08fe06f          	jal	x0,800035ac <_vfprintf_r+0x1344>
80004ea8:	01c12783          	lw	x15,28(x2)
80004eac:	00048813          	addi	x16,x9,0
80004eb0:	01560633          	add	x12,x12,x21
80004eb4:	00170713          	addi	x14,x14,1
80004eb8:	0ac12e23          	sw	x12,188(x2)
80004ebc:	0ae12c23          	sw	x14,184(x2)
80004ec0:	010b2023          	sw	x16,0(x22)
80004ec4:	015b2223          	sw	x21,4(x22)
80004ec8:	00700593          	addi	x11,x0,7
80004ecc:	e2e5d0e3          	bge	x11,x14,80004cec <_vfprintf_r+0x2a84>
80004ed0:	00412583          	lw	x11,4(x2)
80004ed4:	0b410613          	addi	x12,x2,180
80004ed8:	00090513          	addi	x10,x18,0
80004edc:	00f12e23          	sw	x15,28(x2)
80004ee0:	45c000ef          	jal	x1,8000533c <__sprint_r>
80004ee4:	00050463          	beq	x10,x0,80004eec <_vfprintf_r+0x2c84>
80004ee8:	f3cfe06f          	jal	x0,80003624 <_vfprintf_r+0x13bc>
80004eec:	0bc12603          	lw	x12,188(x2)
80004ef0:	0b812703          	lw	x14,184(x2)
80004ef4:	01c12783          	lw	x15,28(x2)
80004ef8:	00098b13          	addi	x22,x19,0
80004efc:	8e8ff06f          	jal	x0,80003fe4 <_vfprintf_r+0x1d7c>
80004f00:	000a8c93          	addi	x25,x21,0
80004f04:	000a8c13          	addi	x24,x21,0
80004f08:	02012023          	sw	x0,32(x2)
80004f0c:	00000a93          	addi	x21,x0,0
80004f10:	00012e23          	sw	x0,28(x2)
80004f14:	00000313          	addi	x6,x0,0
80004f18:	d78fd06f          	jal	x0,80002490 <_vfprintf_r+0x228>
80004f1c:	01c12703          	lw	x14,28(x2)
80004f20:	00177713          	andi	x14,x14,1
80004f24:	be0706e3          	beq	x14,x0,80004b10 <_vfprintf_r+0x28a8>
80004f28:	be1ff06f          	jal	x0,80004b08 <_vfprintf_r+0x28a0>
80004f2c:	86018793          	addi	x15,x3,-1952 # 80011530 <__clz_tab+0x104>
80004f30:	b80ff06f          	jal	x0,800042b0 <_vfprintf_r+0x2048>
80004f34:	00012823          	sw	x0,16(x2)
80004f38:	11c10793          	addi	x15,x2,284
80004f3c:	80000537          	lui	x10,0x80000
80004f40:	00a74733          	xor	x14,x14,x10
80004f44:	02d00513          	addi	x10,x0,45
80004f48:	02a12c23          	sw	x10,56(x2)
80004f4c:	fd0fd06f          	jal	x0,8000271c <_vfprintf_r+0x4b4>
80004f50:	86818793          	addi	x15,x3,-1944 # 80011538 <__clz_tab+0x10c>
80004f54:	f18ff06f          	jal	x0,8000466c <_vfprintf_r+0x2404>
80004f58:	00412483          	lw	x9,4(x2)
80004f5c:	edcfe06f          	jal	x0,80003638 <_vfprintf_r+0x13d0>
80004f60:	86818793          	addi	x15,x3,-1944 # 80011538 <__clz_tab+0x10c>
80004f64:	b4cff06f          	jal	x0,800042b0 <_vfprintf_r+0x2048>
80004f68:	06700893          	addi	x17,x0,103
80004f6c:	03012703          	lw	x14,48(x2)
80004f70:	00074703          	lbu	x14,0(x14)
80004f74:	f0170693          	addi	x13,x14,-255
80004f78:	2a068463          	beq	x13,x0,80005220 <_vfprintf_r+0x2fb8>
80004f7c:	2a675263          	bge	x14,x6,80005220 <_vfprintf_r+0x2fb8>
80004f80:	03012683          	lw	x13,48(x2)
80004f84:	00000513          	addi	x10,x0,0
80004f88:	00000593          	addi	x11,x0,0
80004f8c:	0180006f          	jal	x0,80004fa4 <_vfprintf_r+0x2d3c>
80004f90:	00158593          	addi	x11,x11,1
80004f94:	00168693          	addi	x13,x13,1
80004f98:	f0170613          	addi	x12,x14,-255
80004f9c:	02060063          	beq	x12,x0,80004fbc <_vfprintf_r+0x2d54>
80004fa0:	00675e63          	bge	x14,x6,80004fbc <_vfprintf_r+0x2d54>
80004fa4:	40e30333          	sub	x6,x6,x14
80004fa8:	0016c703          	lbu	x14,1(x13)
80004fac:	fe0712e3          	bne	x14,x0,80004f90 <_vfprintf_r+0x2d28>
80004fb0:	0006c703          	lbu	x14,0(x13)
80004fb4:	00150513          	addi	x10,x10,1 # 80000001 <_start+0x1>
80004fb8:	fe1ff06f          	jal	x0,80004f98 <_vfprintf_r+0x2d30>
80004fbc:	02d12823          	sw	x13,48(x2)
80004fc0:	04412683          	lw	x13,68(x2)
80004fc4:	00b50733          	add	x14,x10,x11
80004fc8:	00b12e23          	sw	x11,28(x2)
80004fcc:	02d70733          	mul	x14,x14,x13
80004fd0:	02a12023          	sw	x10,32(x2)
80004fd4:	00ec8cb3          	add	x25,x25,x14
80004fd8:	03812703          	lw	x14,56(x2)
80004fdc:	fffcc693          	xori	x13,x25,-1
80004fe0:	41f6d693          	srai	x13,x13,0x1f
80004fe4:	00dcfc33          	and	x24,x25,x13
80004fe8:	14070c63          	beq	x14,x0,80005140 <_vfprintf_r+0x2ed8>
80004fec:	02d00713          	addi	x14,x0,45
80004ff0:	01012b83          	lw	x23,16(x2)
80004ff4:	08e109a3          	sb	x14,147(x2)
80004ff8:	001c0c13          	addi	x24,x24,1
80004ffc:	00012823          	sw	x0,16(x2)
80005000:	00000a93          	addi	x21,x0,0
80005004:	c8cfd06f          	jal	x0,80002490 <_vfprintf_r+0x228>
80005008:	fffa8c93          	addi	x25,x21,-1
8000500c:	02012b03          	lw	x22,32(x2)
80005010:	02c12883          	lw	x17,44(x2)
80005014:	03c12783          	lw	x15,60(x2)
80005018:	04012d03          	lw	x26,64(x2)
8000501c:	04812903          	lw	x18,72(x2)
80005020:	015c0ab3          	add	x21,x24,x21
80005024:	000c0713          	addi	x14,x24,0
80005028:	03000613          	addi	x12,x0,48
8000502c:	000cd463          	bge	x25,x0,80005034 <_vfprintf_r+0x2dcc>
80005030:	9e9fd06f          	jal	x0,80002a18 <_vfprintf_r+0x7b0>
80005034:	00170713          	addi	x14,x14,1
80005038:	fec70fa3          	sb	x12,-1(x14)
8000503c:	feea9ce3          	bne	x21,x14,80005034 <_vfprintf_r+0x2dcc>
80005040:	019c0733          	add	x14,x24,x25
80005044:	00170c13          	addi	x24,x14,1
80005048:	9d1fd06f          	jal	x0,80002a18 <_vfprintf_r+0x7b0>
8000504c:	0a012703          	lw	x14,160(x2)
80005050:	01812883          	lw	x17,24(x2)
80005054:	9b976ce3          	bltu	x14,x25,80004a0c <_vfprintf_r+0x27a4>
80005058:	40f70733          	sub	x14,x14,x15
8000505c:	00e12c23          	sw	x14,24(x2)
80005060:	9d9ff06f          	jal	x0,80004a38 <_vfprintf_r+0x27d0>
80005064:	08010513          	addi	x10,x2,128
80005068:	07010593          	addi	x11,x2,112
8000506c:	00f12e23          	sw	x15,28(x2)
80005070:	01112c23          	sw	x17,24(x2)
80005074:	09d12023          	sw	x29,128(x2)
80005078:	09e12223          	sw	x30,132(x2)
8000507c:	08512423          	sw	x5,136(x2)
80005080:	09912623          	sw	x25,140(x2)
80005084:	06012823          	sw	x0,112(x2)
80005088:	06012a23          	sw	x0,116(x2)
8000508c:	06012c23          	sw	x0,120(x2)
80005090:	06012e23          	sw	x0,124(x2)
80005094:	095090ef          	jal	x1,8000e928 <__eqtf2>
80005098:	01812883          	lw	x17,24(x2)
8000509c:	01c12783          	lw	x15,28(x2)
800050a0:	0c051863          	bne	x10,x0,80005170 <_vfprintf_r+0x2f08>
800050a4:	09812303          	lw	x6,152(x2)
800050a8:	00648cb3          	add	x25,x9,x6
800050ac:	fc8ff06f          	jal	x0,80004874 <_vfprintf_r+0x260c>
800050b0:	02412703          	lw	x14,36(x2)
800050b4:	006a8f33          	add	x30,x21,x6
800050b8:	06600893          	addi	x17,x0,102
800050bc:	00ef0cb3          	add	x25,x30,x14
800050c0:	fd4ff06f          	jal	x0,80004894 <_vfprintf_r+0x262c>
800050c4:	02d00713          	addi	x14,x0,45
800050c8:	0ae102a3          	sb	x14,165(x2)
800050cc:	ff800693          	addi	x13,x0,-8
800050d0:	00100713          	addi	x14,x0,1
800050d4:	40670733          	sub	x14,x14,x6
800050d8:	98d344e3          	blt	x6,x13,80004a60 <_vfprintf_r+0x27f8>
800050dc:	03000693          	addi	x13,x0,48
800050e0:	0ad10323          	sb	x13,166(x2)
800050e4:	01712e23          	sw	x23,28(x2)
800050e8:	00012823          	sw	x0,16(x2)
800050ec:	0a710693          	addi	x13,x2,167
800050f0:	965fd06f          	jal	x0,80002a54 <_vfprintf_r+0x7ec>
800050f4:	02d00713          	addi	x14,x0,45
800050f8:	0ae102a3          	sb	x14,165(x2)
800050fc:	ff800693          	addi	x13,x0,-8
80005100:	00100713          	addi	x14,x0,1
80005104:	40c70733          	sub	x14,x14,x12
80005108:	96d640e3          	blt	x12,x13,80004a68 <_vfprintf_r+0x2800>
8000510c:	945fd06f          	jal	x0,80002a50 <_vfprintf_r+0x7e8>
80005110:	87018713          	addi	x14,x3,-1936 # 80011540 <__clz_tab+0x114>
80005114:	00e12c23          	sw	x14,24(x2)
80005118:	ee8fd06f          	jal	x0,80002800 <_vfprintf_r+0x598>
8000511c:	00c12783          	lw	x15,12(x2)
80005120:	0007aa83          	lw	x21,0(x15) # 80000000 <_start>
80005124:	00478793          	addi	x15,x15,4
80005128:	000ad463          	bge	x21,x0,80005130 <_vfprintf_r+0x2ec8>
8000512c:	fff00a93          	addi	x21,x0,-1
80005130:	001d4883          	lbu	x17,1(x26)
80005134:	00f12623          	sw	x15,12(x2)
80005138:	00068d13          	addi	x26,x13,0
8000513c:	ac4fd06f          	jal	x0,80002400 <_vfprintf_r+0x198>
80005140:	09314703          	lbu	x14,147(x2)
80005144:	08070263          	beq	x14,x0,800051c8 <_vfprintf_r+0x2f60>
80005148:	01012b83          	lw	x23,16(x2)
8000514c:	001c0c13          	addi	x24,x24,1
80005150:	00012823          	sw	x0,16(x2)
80005154:	00000a93          	addi	x21,x0,0
80005158:	b38fd06f          	jal	x0,80002490 <_vfprintf_r+0x228>
8000515c:	02071e63          	bne	x14,x0,80005198 <_vfprintf_r+0x2f30>
80005160:	00100c13          	addi	x24,x0,1
80005164:	000c0c93          	addi	x25,x24,0
80005168:	06600893          	addi	x17,x0,102
8000516c:	f3cff06f          	jal	x0,800048a8 <_vfprintf_r+0x2640>
80005170:	00100f93          	addi	x31,x0,1
80005174:	0a012703          	lw	x14,160(x2)
80005178:	415f8fb3          	sub	x31,x31,x21
8000517c:	09f12c23          	sw	x31,152(x2)
80005180:	00178c93          	addi	x25,x15,1
80005184:	899764e3          	bltu	x14,x25,80004a0c <_vfprintf_r+0x27a4>
80005188:	40f70733          	sub	x14,x14,x15
8000518c:	000f8313          	addi	x6,x31,0
80005190:	00e12c23          	sw	x14,24(x2)
80005194:	ee8ff06f          	jal	x0,8000487c <_vfprintf_r+0x2614>
80005198:	02412703          	lw	x14,36(x2)
8000519c:	06600893          	addi	x17,x0,102
800051a0:	00170f13          	addi	x30,x14,1
800051a4:	015f0cb3          	add	x25,x30,x21
800051a8:	fffcc693          	xori	x13,x25,-1
800051ac:	41f6d693          	srai	x13,x13,0x1f
800051b0:	00dcfc33          	and	x24,x25,x13
800051b4:	ef4ff06f          	jal	x0,800048a8 <_vfprintf_r+0x2640>
800051b8:	b7418813          	addi	x16,x3,-1164 # 80011844 <zeroes.0>
800051bc:	fe5fe06f          	jal	x0,800041a0 <_vfprintf_r+0x1f38>
800051c0:	09812303          	lw	x6,152(x2)
800051c4:	9a1ff06f          	jal	x0,80004b64 <_vfprintf_r+0x28fc>
800051c8:	01012b83          	lw	x23,16(x2)
800051cc:	00000a93          	addi	x21,x0,0
800051d0:	00012823          	sw	x0,16(x2)
800051d4:	abcfd06f          	jal	x0,80002490 <_vfprintf_r+0x228>
800051d8:	00200713          	addi	x14,x0,2
800051dc:	02e12623          	sw	x14,44(x2)
800051e0:	915ff06f          	jal	x0,80004af4 <_vfprintf_r+0x288c>
800051e4:	b7418813          	addi	x16,x3,-1164 # 80011844 <zeroes.0>
800051e8:	afcff06f          	jal	x0,800044e4 <_vfprintf_r+0x227c>
800051ec:	02012023          	sw	x0,32(x2)
800051f0:	00012e23          	sw	x0,28(x2)
800051f4:	a9cfd06f          	jal	x0,80002490 <_vfprintf_r+0x228>
800051f8:	b7418813          	addi	x16,x3,-1164 # 80011844 <zeroes.0>
800051fc:	cb5ff06f          	jal	x0,80004eb0 <_vfprintf_r+0x2c48>
80005200:	01812703          	lw	x14,24(x2)
80005204:	00e78733          	add	x14,x15,x14
80005208:	f24ff06f          	jal	x0,8000492c <_vfprintf_r+0x26c4>
8000520c:	00412483          	lw	x9,4(x2)
80005210:	00c4d783          	lhu	x15,12(x9)
80005214:	0407e793          	ori	x15,x15,64
80005218:	00f49623          	sh	x15,12(x9)
8000521c:	c1cfe06f          	jal	x0,80003638 <_vfprintf_r+0x13d0>
80005220:	00000713          	addi	x14,x0,0
80005224:	02012023          	sw	x0,32(x2)
80005228:	00012e23          	sw	x0,28(x2)
8000522c:	da9ff06f          	jal	x0,80004fd4 <_vfprintf_r+0x2d6c>
80005230:	00000a93          	addi	x21,x0,0
80005234:	02012023          	sw	x0,32(x2)
80005238:	00012e23          	sw	x0,28(x2)
8000523c:	00012823          	sw	x0,16(x2)
80005240:	00300c93          	addi	x25,x0,3
80005244:	00400c13          	addi	x24,x0,4
80005248:	a48fd06f          	jal	x0,80002490 <_vfprintf_r+0x228>
8000524c:	40f70733          	sub	x14,x14,x15
80005250:	09812303          	lw	x6,152(x2)
80005254:	00e12c23          	sw	x14,24(x2)
80005258:	90dff06f          	jal	x0,80004b64 <_vfprintf_r+0x28fc>
8000525c:	09812303          	lw	x6,152(x2)
80005260:	fe0ff06f          	jal	x0,80004a40 <_vfprintf_r+0x27d8>

80005264 <vfprintf>:
80005264:	00050713          	addi	x14,x10,0
80005268:	6ac1a503          	lw	x10,1708(x3) # 8001237c <_impure_ptr>
8000526c:	00060693          	addi	x13,x12,0
80005270:	00058613          	addi	x12,x11,0
80005274:	00070593          	addi	x11,x14,0
80005278:	ff1fc06f          	jal	x0,80002268 <_vfprintf_r>

8000527c <__sbprintf>:
8000527c:	00c5d783          	lhu	x15,12(x11)
80005280:	0645ae83          	lw	x29,100(x11)
80005284:	00e5de03          	lhu	x28,14(x11)
80005288:	01c5a303          	lw	x6,28(x11)
8000528c:	0245a883          	lw	x17,36(x11)
80005290:	b7010113          	addi	x2,x2,-1168
80005294:	ffd7f793          	andi	x15,x15,-3
80005298:	08010813          	addi	x16,x2,128
8000529c:	40000713          	addi	x14,x0,1024
800052a0:	48812423          	sw	x8,1160(x2)
800052a4:	00058413          	addi	x8,x11,0
800052a8:	01810593          	addi	x11,x2,24
800052ac:	48912223          	sw	x9,1156(x2)
800052b0:	02f11223          	sh	x15,36(x2)
800052b4:	48112623          	sw	x1,1164(x2)
800052b8:	02012823          	sw	x0,48(x2)
800052bc:	07d12e23          	sw	x29,124(x2)
800052c0:	03c11323          	sh	x28,38(x2)
800052c4:	02612a23          	sw	x6,52(x2)
800052c8:	03112e23          	sw	x17,60(x2)
800052cc:	01012c23          	sw	x16,24(x2)
800052d0:	03012423          	sw	x16,40(x2)
800052d4:	02e12023          	sw	x14,32(x2)
800052d8:	02e12623          	sw	x14,44(x2)
800052dc:	00050493          	addi	x9,x10,0
800052e0:	f89fc0ef          	jal	x1,80002268 <_vfprintf_r>
800052e4:	00050793          	addi	x15,x10,0
800052e8:	02055a63          	bge	x10,x0,8000531c <__sbprintf+0xa0>
800052ec:	02415703          	lhu	x14,36(x2)
800052f0:	04077713          	andi	x14,x14,64
800052f4:	00070863          	beq	x14,x0,80005304 <__sbprintf+0x88>
800052f8:	00c45703          	lhu	x14,12(x8)
800052fc:	04076713          	ori	x14,x14,64
80005300:	00e41623          	sh	x14,12(x8)
80005304:	48c12083          	lw	x1,1164(x2)
80005308:	48812403          	lw	x8,1160(x2)
8000530c:	48412483          	lw	x9,1156(x2)
80005310:	00078513          	addi	x10,x15,0
80005314:	49010113          	addi	x2,x2,1168
80005318:	00008067          	jalr	x0,0(x1)
8000531c:	00a12623          	sw	x10,12(x2)
80005320:	01810593          	addi	x11,x2,24
80005324:	00048513          	addi	x10,x9,0
80005328:	2ac000ef          	jal	x1,800055d4 <_fflush_r>
8000532c:	00c12783          	lw	x15,12(x2)
80005330:	fa050ee3          	beq	x10,x0,800052ec <__sbprintf+0x70>
80005334:	fff00793          	addi	x15,x0,-1
80005338:	fb5ff06f          	jal	x0,800052ec <__sbprintf+0x70>

8000533c <__sprint_r>:
8000533c:	00862703          	lw	x14,8(x12)
80005340:	00071863          	bne	x14,x0,80005350 <__sprint_r+0x14>
80005344:	00000513          	addi	x10,x0,0
80005348:	00062223          	sw	x0,4(x12)
8000534c:	00008067          	jalr	x0,0(x1)
80005350:	fe010113          	addi	x2,x2,-32
80005354:	00112e23          	sw	x1,28(x2)
80005358:	00c12623          	sw	x12,12(x2)
8000535c:	6ec000ef          	jal	x1,80005a48 <__sfvwrite_r>
80005360:	00c12783          	lw	x15,12(x2)
80005364:	01c12083          	lw	x1,28(x2)
80005368:	0007a423          	sw	x0,8(x15)
8000536c:	0007a223          	sw	x0,4(x15)
80005370:	02010113          	addi	x2,x2,32
80005374:	00008067          	jalr	x0,0(x1)

80005378 <__sflush_r>:
80005378:	00c59703          	lh	x14,12(x11)
8000537c:	fe010113          	addi	x2,x2,-32
80005380:	00812c23          	sw	x8,24(x2)
80005384:	01312623          	sw	x19,12(x2)
80005388:	00112e23          	sw	x1,28(x2)
8000538c:	00877793          	andi	x15,x14,8
80005390:	00058413          	addi	x8,x11,0
80005394:	00050993          	addi	x19,x10,0
80005398:	12079263          	bne	x15,x0,800054bc <__sflush_r+0x144>
8000539c:	000017b7          	lui	x15,0x1
800053a0:	80078793          	addi	x15,x15,-2048 # 800 <_start-0x7ffff800>
800053a4:	0045a683          	lw	x13,4(x11)
800053a8:	00f767b3          	or	x15,x14,x15
800053ac:	00f59623          	sh	x15,12(x11)
800053b0:	18d05c63          	bge	x0,x13,80005548 <__sflush_r+0x1d0>
800053b4:	02842803          	lw	x16,40(x8)
800053b8:	0e080663          	beq	x16,x0,800054a4 <__sflush_r+0x12c>
800053bc:	00912a23          	sw	x9,20(x2)
800053c0:	01371693          	slli	x13,x14,0x13
800053c4:	0009a483          	lw	x9,0(x19)
800053c8:	0009a023          	sw	x0,0(x19)
800053cc:	1806ca63          	blt	x13,x0,80005560 <__sflush_r+0x1e8>
800053d0:	01c42583          	lw	x11,28(x8)
800053d4:	00000613          	addi	x12,x0,0
800053d8:	00100693          	addi	x13,x0,1
800053dc:	00098513          	addi	x10,x19,0
800053e0:	000800e7          	jalr	x1,0(x16)
800053e4:	fff00793          	addi	x15,x0,-1
800053e8:	00050613          	addi	x12,x10,0
800053ec:	1af50c63          	beq	x10,x15,800055a4 <__sflush_r+0x22c>
800053f0:	00c41783          	lh	x15,12(x8)
800053f4:	02842803          	lw	x16,40(x8)
800053f8:	0047f793          	andi	x15,x15,4
800053fc:	00078e63          	beq	x15,x0,80005418 <__sflush_r+0xa0>
80005400:	00442703          	lw	x14,4(x8)
80005404:	03042783          	lw	x15,48(x8)
80005408:	40e60633          	sub	x12,x12,x14
8000540c:	00078663          	beq	x15,x0,80005418 <__sflush_r+0xa0>
80005410:	03c42783          	lw	x15,60(x8)
80005414:	40f60633          	sub	x12,x12,x15
80005418:	01c42583          	lw	x11,28(x8)
8000541c:	00000693          	addi	x13,x0,0
80005420:	00098513          	addi	x10,x19,0
80005424:	000800e7          	jalr	x1,0(x16)
80005428:	fff00713          	addi	x14,x0,-1
8000542c:	00c41783          	lh	x15,12(x8)
80005430:	12e51c63          	bne	x10,x14,80005568 <__sflush_r+0x1f0>
80005434:	0009a683          	lw	x13,0(x19)
80005438:	01d00713          	addi	x14,x0,29
8000543c:	18d76263          	bltu	x14,x13,800055c0 <__sflush_r+0x248>
80005440:	20400737          	lui	x14,0x20400
80005444:	00170713          	addi	x14,x14,1 # 20400001 <_start-0x5fbfffff>
80005448:	00d75733          	srl	x14,x14,x13
8000544c:	00177713          	andi	x14,x14,1
80005450:	16070863          	beq	x14,x0,800055c0 <__sflush_r+0x248>
80005454:	01042683          	lw	x13,16(x8)
80005458:	fffff737          	lui	x14,0xfffff
8000545c:	7ff70713          	addi	x14,x14,2047 # fffff7ff <_stack_top+0x77fff7ff>
80005460:	00e7f733          	and	x14,x15,x14
80005464:	00e41623          	sh	x14,12(x8)
80005468:	00042223          	sw	x0,4(x8)
8000546c:	00d42023          	sw	x13,0(x8)
80005470:	01379713          	slli	x14,x15,0x13
80005474:	00075663          	bge	x14,x0,80005480 <__sflush_r+0x108>
80005478:	0009a783          	lw	x15,0(x19)
8000547c:	10078863          	beq	x15,x0,8000558c <__sflush_r+0x214>
80005480:	03042583          	lw	x11,48(x8)
80005484:	0099a023          	sw	x9,0(x19)
80005488:	10058a63          	beq	x11,x0,8000559c <__sflush_r+0x224>
8000548c:	04040793          	addi	x15,x8,64
80005490:	00f58663          	beq	x11,x15,8000549c <__sflush_r+0x124>
80005494:	00098513          	addi	x10,x19,0
80005498:	af1fc0ef          	jal	x1,80001f88 <_free_r>
8000549c:	01412483          	lw	x9,20(x2)
800054a0:	02042823          	sw	x0,48(x8)
800054a4:	01c12083          	lw	x1,28(x2)
800054a8:	01812403          	lw	x8,24(x2)
800054ac:	00c12983          	lw	x19,12(x2)
800054b0:	00000513          	addi	x10,x0,0
800054b4:	02010113          	addi	x2,x2,32
800054b8:	00008067          	jalr	x0,0(x1)
800054bc:	01212823          	sw	x18,16(x2)
800054c0:	0105a903          	lw	x18,16(x11)
800054c4:	08090a63          	beq	x18,x0,80005558 <__sflush_r+0x1e0>
800054c8:	00912a23          	sw	x9,20(x2)
800054cc:	0005a483          	lw	x9,0(x11)
800054d0:	00377713          	andi	x14,x14,3
800054d4:	0125a023          	sw	x18,0(x11)
800054d8:	412484b3          	sub	x9,x9,x18
800054dc:	00000793          	addi	x15,x0,0
800054e0:	00071463          	bne	x14,x0,800054e8 <__sflush_r+0x170>
800054e4:	0145a783          	lw	x15,20(x11)
800054e8:	00f42423          	sw	x15,8(x8)
800054ec:	00904863          	blt	x0,x9,800054fc <__sflush_r+0x184>
800054f0:	0640006f          	jal	x0,80005554 <__sflush_r+0x1dc>
800054f4:	00a90933          	add	x18,x18,x10
800054f8:	04905e63          	bge	x0,x9,80005554 <__sflush_r+0x1dc>
800054fc:	02442783          	lw	x15,36(x8)
80005500:	01c42583          	lw	x11,28(x8)
80005504:	00048693          	addi	x13,x9,0
80005508:	00090613          	addi	x12,x18,0
8000550c:	00098513          	addi	x10,x19,0
80005510:	000780e7          	jalr	x1,0(x15)
80005514:	40a484b3          	sub	x9,x9,x10
80005518:	fca04ee3          	blt	x0,x10,800054f4 <__sflush_r+0x17c>
8000551c:	00c45783          	lhu	x15,12(x8)
80005520:	01012903          	lw	x18,16(x2)
80005524:	0407e793          	ori	x15,x15,64
80005528:	01c12083          	lw	x1,28(x2)
8000552c:	00f41623          	sh	x15,12(x8)
80005530:	01812403          	lw	x8,24(x2)
80005534:	01412483          	lw	x9,20(x2)
80005538:	00c12983          	lw	x19,12(x2)
8000553c:	fff00513          	addi	x10,x0,-1
80005540:	02010113          	addi	x2,x2,32
80005544:	00008067          	jalr	x0,0(x1)
80005548:	03c5a683          	lw	x13,60(x11)
8000554c:	e6d044e3          	blt	x0,x13,800053b4 <__sflush_r+0x3c>
80005550:	f55ff06f          	jal	x0,800054a4 <__sflush_r+0x12c>
80005554:	01412483          	lw	x9,20(x2)
80005558:	01012903          	lw	x18,16(x2)
8000555c:	f49ff06f          	jal	x0,800054a4 <__sflush_r+0x12c>
80005560:	05042603          	lw	x12,80(x8)
80005564:	e95ff06f          	jal	x0,800053f8 <__sflush_r+0x80>
80005568:	01042683          	lw	x13,16(x8)
8000556c:	fffff737          	lui	x14,0xfffff
80005570:	7ff70713          	addi	x14,x14,2047 # fffff7ff <_stack_top+0x77fff7ff>
80005574:	00e7f733          	and	x14,x15,x14
80005578:	00e41623          	sh	x14,12(x8)
8000557c:	00042223          	sw	x0,4(x8)
80005580:	00d42023          	sw	x13,0(x8)
80005584:	01379713          	slli	x14,x15,0x13
80005588:	ee075ce3          	bge	x14,x0,80005480 <__sflush_r+0x108>
8000558c:	03042583          	lw	x11,48(x8)
80005590:	04a42823          	sw	x10,80(x8)
80005594:	0099a023          	sw	x9,0(x19)
80005598:	ee059ae3          	bne	x11,x0,8000548c <__sflush_r+0x114>
8000559c:	01412483          	lw	x9,20(x2)
800055a0:	f05ff06f          	jal	x0,800054a4 <__sflush_r+0x12c>
800055a4:	0009a783          	lw	x15,0(x19)
800055a8:	e40784e3          	beq	x15,x0,800053f0 <__sflush_r+0x78>
800055ac:	fe378713          	addi	x14,x15,-29
800055b0:	00070c63          	beq	x14,x0,800055c8 <__sflush_r+0x250>
800055b4:	fea78793          	addi	x15,x15,-22
800055b8:	00078863          	beq	x15,x0,800055c8 <__sflush_r+0x250>
800055bc:	00c45783          	lhu	x15,12(x8)
800055c0:	0407e793          	ori	x15,x15,64
800055c4:	f65ff06f          	jal	x0,80005528 <__sflush_r+0x1b0>
800055c8:	0099a023          	sw	x9,0(x19)
800055cc:	01412483          	lw	x9,20(x2)
800055d0:	ed5ff06f          	jal	x0,800054a4 <__sflush_r+0x12c>

800055d4 <_fflush_r>:
800055d4:	00050793          	addi	x15,x10,0
800055d8:	00050663          	beq	x10,x0,800055e4 <_fflush_r+0x10>
800055dc:	03452703          	lw	x14,52(x10)
800055e0:	00070e63          	beq	x14,x0,800055fc <_fflush_r+0x28>
800055e4:	00c59703          	lh	x14,12(x11)
800055e8:	00071663          	bne	x14,x0,800055f4 <_fflush_r+0x20>
800055ec:	00000513          	addi	x10,x0,0
800055f0:	00008067          	jalr	x0,0(x1)
800055f4:	00078513          	addi	x10,x15,0
800055f8:	d81ff06f          	jal	x0,80005378 <__sflush_r>
800055fc:	fe010113          	addi	x2,x2,-32
80005600:	00b12623          	sw	x11,12(x2)
80005604:	00112e23          	sw	x1,28(x2)
80005608:	00a12423          	sw	x10,8(x2)
8000560c:	3e4000ef          	jal	x1,800059f0 <__sinit>
80005610:	00c12583          	lw	x11,12(x2)
80005614:	00812783          	lw	x15,8(x2)
80005618:	00c59703          	lh	x14,12(x11)
8000561c:	00070a63          	beq	x14,x0,80005630 <_fflush_r+0x5c>
80005620:	01c12083          	lw	x1,28(x2)
80005624:	00078513          	addi	x10,x15,0
80005628:	02010113          	addi	x2,x2,32
8000562c:	d4dff06f          	jal	x0,80005378 <__sflush_r>
80005630:	01c12083          	lw	x1,28(x2)
80005634:	00000513          	addi	x10,x0,0
80005638:	02010113          	addi	x2,x2,32
8000563c:	00008067          	jalr	x0,0(x1)

80005640 <fflush>:
80005640:	06050063          	beq	x10,x0,800056a0 <fflush+0x60>
80005644:	00050593          	addi	x11,x10,0
80005648:	6ac1a503          	lw	x10,1708(x3) # 8001237c <_impure_ptr>
8000564c:	00050663          	beq	x10,x0,80005658 <fflush+0x18>
80005650:	03452783          	lw	x15,52(x10)
80005654:	00078c63          	beq	x15,x0,8000566c <fflush+0x2c>
80005658:	00c59783          	lh	x15,12(x11)
8000565c:	00079663          	bne	x15,x0,80005668 <fflush+0x28>
80005660:	00000513          	addi	x10,x0,0
80005664:	00008067          	jalr	x0,0(x1)
80005668:	d11ff06f          	jal	x0,80005378 <__sflush_r>
8000566c:	fe010113          	addi	x2,x2,-32
80005670:	00b12623          	sw	x11,12(x2)
80005674:	00a12423          	sw	x10,8(x2)
80005678:	00112e23          	sw	x1,28(x2)
8000567c:	374000ef          	jal	x1,800059f0 <__sinit>
80005680:	00c12583          	lw	x11,12(x2)
80005684:	00812503          	lw	x10,8(x2)
80005688:	00c59783          	lh	x15,12(x11)
8000568c:	02079463          	bne	x15,x0,800056b4 <fflush+0x74>
80005690:	01c12083          	lw	x1,28(x2)
80005694:	00000513          	addi	x10,x0,0
80005698:	02010113          	addi	x2,x2,32
8000569c:	00008067          	jalr	x0,0(x1)
800056a0:	800055b7          	lui	x11,0x80005
800056a4:	52818613          	addi	x12,x3,1320 # 800121f8 <__sglue>
800056a8:	5d458593          	addi	x11,x11,1492 # 800055d4 <_fflush_r>
800056ac:	40818513          	addi	x10,x3,1032 # 800120d8 <_impure_data>
800056b0:	0590006f          	jal	x0,80005f08 <_fwalk_sglue>
800056b4:	01c12083          	lw	x1,28(x2)
800056b8:	02010113          	addi	x2,x2,32
800056bc:	cbdff06f          	jal	x0,80005378 <__sflush_r>

800056c0 <__fp_lock>:
800056c0:	00000513          	addi	x10,x0,0
800056c4:	00008067          	jalr	x0,0(x1)

800056c8 <stdio_exit_handler>:
800056c8:	8000a5b7          	lui	x11,0x8000a
800056cc:	52818613          	addi	x12,x3,1320 # 800121f8 <__sglue>
800056d0:	7d858593          	addi	x11,x11,2008 # 8000a7d8 <_fclose_r>
800056d4:	40818513          	addi	x10,x3,1032 # 800120d8 <_impure_data>
800056d8:	0310006f          	jal	x0,80005f08 <_fwalk_sglue>

800056dc <cleanup_stdio>:
800056dc:	00452583          	lw	x11,4(x10)
800056e0:	ff010113          	addi	x2,x2,-16
800056e4:	800127b7          	lui	x15,0x80012
800056e8:	00812423          	sw	x8,8(x2)
800056ec:	00112623          	sw	x1,12(x2)
800056f0:	3a878793          	addi	x15,x15,936 # 800123a8 <__sf>
800056f4:	00050413          	addi	x8,x10,0
800056f8:	00f58463          	beq	x11,x15,80005700 <cleanup_stdio+0x24>
800056fc:	0dc050ef          	jal	x1,8000a7d8 <_fclose_r>
80005700:	00842583          	lw	x11,8(x8)
80005704:	800127b7          	lui	x15,0x80012
80005708:	41078793          	addi	x15,x15,1040 # 80012410 <__sf+0x68>
8000570c:	00f58663          	beq	x11,x15,80005718 <cleanup_stdio+0x3c>
80005710:	00040513          	addi	x10,x8,0
80005714:	0c4050ef          	jal	x1,8000a7d8 <_fclose_r>
80005718:	00c42583          	lw	x11,12(x8)
8000571c:	800127b7          	lui	x15,0x80012
80005720:	47878793          	addi	x15,x15,1144 # 80012478 <__sf+0xd0>
80005724:	00f58c63          	beq	x11,x15,8000573c <cleanup_stdio+0x60>
80005728:	00040513          	addi	x10,x8,0
8000572c:	00812403          	lw	x8,8(x2)
80005730:	00c12083          	lw	x1,12(x2)
80005734:	01010113          	addi	x2,x2,16
80005738:	0a00506f          	jal	x0,8000a7d8 <_fclose_r>
8000573c:	00c12083          	lw	x1,12(x2)
80005740:	00812403          	lw	x8,8(x2)
80005744:	01010113          	addi	x2,x2,16
80005748:	00008067          	jalr	x0,0(x1)

8000574c <__fp_unlock>:
8000574c:	00000513          	addi	x10,x0,0
80005750:	00008067          	jalr	x0,0(x1)

80005754 <global_stdio_init.part.0>:
80005754:	fe010113          	addi	x2,x2,-32
80005758:	800057b7          	lui	x15,0x80005
8000575c:	00812c23          	sw	x8,24(x2)
80005760:	80012737          	lui	x14,0x80012
80005764:	6c878793          	addi	x15,x15,1736 # 800056c8 <stdio_exit_handler>
80005768:	80012437          	lui	x8,0x80012
8000576c:	80012537          	lui	x10,0x80012
80005770:	3a840413          	addi	x8,x8,936 # 800123a8 <__sf>
80005774:	00112e23          	sw	x1,28(x2)
80005778:	00912a23          	sw	x9,20(x2)
8000577c:	01212823          	sw	x18,16(x2)
80005780:	01312623          	sw	x19,12(x2)
80005784:	01412423          	sw	x20,8(x2)
80005788:	4ef72623          	sw	x15,1260(x14) # 800124ec <__stdio_exit_handler>
8000578c:	00800613          	addi	x12,x0,8
80005790:	00400793          	addi	x15,x0,4
80005794:	00000593          	addi	x11,x0,0
80005798:	40450513          	addi	x10,x10,1028 # 80012404 <__sf+0x5c>
8000579c:	00f42623          	sw	x15,12(x8)
800057a0:	00042023          	sw	x0,0(x8)
800057a4:	00042223          	sw	x0,4(x8)
800057a8:	00042423          	sw	x0,8(x8)
800057ac:	06042223          	sw	x0,100(x8)
800057b0:	00042823          	sw	x0,16(x8)
800057b4:	00042a23          	sw	x0,20(x8)
800057b8:	00042c23          	sw	x0,24(x8)
800057bc:	7d1000ef          	jal	x1,8000678c <memset>
800057c0:	80006a37          	lui	x20,0x80006
800057c4:	800069b7          	lui	x19,0x80006
800057c8:	80006937          	lui	x18,0x80006
800057cc:	800064b7          	lui	x9,0x80006
800057d0:	80012537          	lui	x10,0x80012
800057d4:	000107b7          	lui	x15,0x10
800057d8:	fbca0a13          	addi	x20,x20,-68 # 80005fbc <__sread>
800057dc:	02098993          	addi	x19,x19,32 # 80006020 <__swrite>
800057e0:	0a890913          	addi	x18,x18,168 # 800060a8 <__sseek>
800057e4:	10c48493          	addi	x9,x9,268 # 8000610c <__sclose>
800057e8:	00978793          	addi	x15,x15,9 # 10009 <_start-0x7ffefff7>
800057ec:	00800613          	addi	x12,x0,8
800057f0:	00000593          	addi	x11,x0,0
800057f4:	46c50513          	addi	x10,x10,1132 # 8001246c <__sf+0xc4>
800057f8:	06f42a23          	sw	x15,116(x8)
800057fc:	03442023          	sw	x20,32(x8)
80005800:	03342223          	sw	x19,36(x8)
80005804:	03242423          	sw	x18,40(x8)
80005808:	02942623          	sw	x9,44(x8)
8000580c:	00842e23          	sw	x8,28(x8)
80005810:	06042423          	sw	x0,104(x8)
80005814:	06042623          	sw	x0,108(x8)
80005818:	06042823          	sw	x0,112(x8)
8000581c:	0c042623          	sw	x0,204(x8)
80005820:	06042c23          	sw	x0,120(x8)
80005824:	06042e23          	sw	x0,124(x8)
80005828:	08042023          	sw	x0,128(x8)
8000582c:	761000ef          	jal	x1,8000678c <memset>
80005830:	80012737          	lui	x14,0x80012
80005834:	80012537          	lui	x10,0x80012
80005838:	000207b7          	lui	x15,0x20
8000583c:	01278793          	addi	x15,x15,18 # 20012 <_start-0x7ffdffee>
80005840:	41070713          	addi	x14,x14,1040 # 80012410 <__sf+0x68>
80005844:	4d450513          	addi	x10,x10,1236 # 800124d4 <__sf+0x12c>
80005848:	00800613          	addi	x12,x0,8
8000584c:	00000593          	addi	x11,x0,0
80005850:	09442423          	sw	x20,136(x8)
80005854:	09342623          	sw	x19,140(x8)
80005858:	09242823          	sw	x18,144(x8)
8000585c:	08942a23          	sw	x9,148(x8)
80005860:	0cf42e23          	sw	x15,220(x8)
80005864:	0c042823          	sw	x0,208(x8)
80005868:	0c042a23          	sw	x0,212(x8)
8000586c:	0c042c23          	sw	x0,216(x8)
80005870:	12042a23          	sw	x0,308(x8)
80005874:	0e042023          	sw	x0,224(x8)
80005878:	0e042223          	sw	x0,228(x8)
8000587c:	0e042423          	sw	x0,232(x8)
80005880:	08e42223          	sw	x14,132(x8)
80005884:	709000ef          	jal	x1,8000678c <memset>
80005888:	800127b7          	lui	x15,0x80012
8000588c:	47878793          	addi	x15,x15,1144 # 80012478 <__sf+0xd0>
80005890:	0f442823          	sw	x20,240(x8)
80005894:	0f342a23          	sw	x19,244(x8)
80005898:	0f242c23          	sw	x18,248(x8)
8000589c:	0e942e23          	sw	x9,252(x8)
800058a0:	01c12083          	lw	x1,28(x2)
800058a4:	0ef42623          	sw	x15,236(x8)
800058a8:	01812403          	lw	x8,24(x2)
800058ac:	01412483          	lw	x9,20(x2)
800058b0:	01012903          	lw	x18,16(x2)
800058b4:	00c12983          	lw	x19,12(x2)
800058b8:	00812a03          	lw	x20,8(x2)
800058bc:	02010113          	addi	x2,x2,32
800058c0:	00008067          	jalr	x0,0(x1)

800058c4 <__sfp>:
800058c4:	800127b7          	lui	x15,0x80012
800058c8:	4ec7a783          	lw	x15,1260(x15) # 800124ec <__stdio_exit_handler>
800058cc:	fe010113          	addi	x2,x2,-32
800058d0:	00912a23          	sw	x9,20(x2)
800058d4:	00112e23          	sw	x1,28(x2)
800058d8:	00812c23          	sw	x8,24(x2)
800058dc:	00050493          	addi	x9,x10,0
800058e0:	0e078c63          	beq	x15,x0,800059d8 <__sfp+0x114>
800058e4:	52818813          	addi	x16,x3,1320 # 800121f8 <__sglue>
800058e8:	fff00693          	addi	x13,x0,-1
800058ec:	00482783          	lw	x15,4(x16)
800058f0:	fff78793          	addi	x15,x15,-1
800058f4:	0807c063          	blt	x15,x0,80005974 <__sfp+0xb0>
800058f8:	00882403          	lw	x8,8(x16)
800058fc:	00c0006f          	jal	x0,80005908 <__sfp+0x44>
80005900:	06840413          	addi	x8,x8,104
80005904:	06d78863          	beq	x15,x13,80005974 <__sfp+0xb0>
80005908:	00c41703          	lh	x14,12(x8)
8000590c:	fff78793          	addi	x15,x15,-1
80005910:	fe0718e3          	bne	x14,x0,80005900 <__sfp+0x3c>
80005914:	ffff07b7          	lui	x15,0xffff0
80005918:	00178793          	addi	x15,x15,1 # ffff0001 <_stack_top+0x77ff0001>
8000591c:	00f42623          	sw	x15,12(x8)
80005920:	06042223          	sw	x0,100(x8)
80005924:	00042023          	sw	x0,0(x8)
80005928:	00042423          	sw	x0,8(x8)
8000592c:	00042223          	sw	x0,4(x8)
80005930:	00042823          	sw	x0,16(x8)
80005934:	00042a23          	sw	x0,20(x8)
80005938:	00042c23          	sw	x0,24(x8)
8000593c:	00800613          	addi	x12,x0,8
80005940:	00000593          	addi	x11,x0,0
80005944:	05c40513          	addi	x10,x8,92
80005948:	645000ef          	jal	x1,8000678c <memset>
8000594c:	02042823          	sw	x0,48(x8)
80005950:	02042a23          	sw	x0,52(x8)
80005954:	04042223          	sw	x0,68(x8)
80005958:	04042423          	sw	x0,72(x8)
8000595c:	01c12083          	lw	x1,28(x2)
80005960:	00040513          	addi	x10,x8,0
80005964:	01812403          	lw	x8,24(x2)
80005968:	01412483          	lw	x9,20(x2)
8000596c:	02010113          	addi	x2,x2,32
80005970:	00008067          	jalr	x0,0(x1)
80005974:	00082403          	lw	x8,0(x16)
80005978:	00040663          	beq	x8,x0,80005984 <__sfp+0xc0>
8000597c:	00040813          	addi	x16,x8,0
80005980:	f6dff06f          	jal	x0,800058ec <__sfp+0x28>
80005984:	1ac00593          	addi	x11,x0,428
80005988:	00048513          	addi	x10,x9,0
8000598c:	01012623          	sw	x16,12(x2)
80005990:	f9cfb0ef          	jal	x1,8000112c <_malloc_r>
80005994:	00c12803          	lw	x16,12(x2)
80005998:	00050413          	addi	x8,x10,0
8000599c:	04050263          	beq	x10,x0,800059e0 <__sfp+0x11c>
800059a0:	00400793          	addi	x15,x0,4
800059a4:	00f52223          	sw	x15,4(x10)
800059a8:	00c50513          	addi	x10,x10,12
800059ac:	00042023          	sw	x0,0(x8)
800059b0:	00a42423          	sw	x10,8(x8)
800059b4:	1a000613          	addi	x12,x0,416
800059b8:	00000593          	addi	x11,x0,0
800059bc:	01012623          	sw	x16,12(x2)
800059c0:	5cd000ef          	jal	x1,8000678c <memset>
800059c4:	00c12803          	lw	x16,12(x2)
800059c8:	fff00693          	addi	x13,x0,-1
800059cc:	00882023          	sw	x8,0(x16)
800059d0:	00040813          	addi	x16,x8,0
800059d4:	f19ff06f          	jal	x0,800058ec <__sfp+0x28>
800059d8:	d7dff0ef          	jal	x1,80005754 <global_stdio_init.part.0>
800059dc:	f09ff06f          	jal	x0,800058e4 <__sfp+0x20>
800059e0:	00082023          	sw	x0,0(x16)
800059e4:	00c00793          	addi	x15,x0,12
800059e8:	00f4a023          	sw	x15,0(x9)
800059ec:	f71ff06f          	jal	x0,8000595c <__sfp+0x98>

800059f0 <__sinit>:
800059f0:	03452783          	lw	x15,52(x10)
800059f4:	00078463          	beq	x15,x0,800059fc <__sinit+0xc>
800059f8:	00008067          	jalr	x0,0(x1)
800059fc:	80012737          	lui	x14,0x80012
80005a00:	800057b7          	lui	x15,0x80005
80005a04:	4ec72703          	lw	x14,1260(x14) # 800124ec <__stdio_exit_handler>
80005a08:	6dc78793          	addi	x15,x15,1756 # 800056dc <cleanup_stdio>
80005a0c:	02f52a23          	sw	x15,52(x10)
80005a10:	fe0714e3          	bne	x14,x0,800059f8 <__sinit+0x8>
80005a14:	d41ff06f          	jal	x0,80005754 <global_stdio_init.part.0>

80005a18 <__sfp_lock_acquire>:
80005a18:	00008067          	jalr	x0,0(x1)

80005a1c <__sfp_lock_release>:
80005a1c:	00008067          	jalr	x0,0(x1)

80005a20 <__fp_lock_all>:
80005a20:	800055b7          	lui	x11,0x80005
80005a24:	52818613          	addi	x12,x3,1320 # 800121f8 <__sglue>
80005a28:	6c058593          	addi	x11,x11,1728 # 800056c0 <__fp_lock>
80005a2c:	00000513          	addi	x10,x0,0
80005a30:	4d80006f          	jal	x0,80005f08 <_fwalk_sglue>

80005a34 <__fp_unlock_all>:
80005a34:	800055b7          	lui	x11,0x80005
80005a38:	52818613          	addi	x12,x3,1320 # 800121f8 <__sglue>
80005a3c:	74c58593          	addi	x11,x11,1868 # 8000574c <__fp_unlock>
80005a40:	00000513          	addi	x10,x0,0
80005a44:	4c40006f          	jal	x0,80005f08 <_fwalk_sglue>

80005a48 <__sfvwrite_r>:
80005a48:	00862783          	lw	x15,8(x12)
80005a4c:	22078c63          	beq	x15,x0,80005c84 <__sfvwrite_r+0x23c>
80005a50:	00c59683          	lh	x13,12(x11)
80005a54:	fc010113          	addi	x2,x2,-64
80005a58:	02812c23          	sw	x8,56(x2)
80005a5c:	03412423          	sw	x20,40(x2)
80005a60:	03512223          	sw	x21,36(x2)
80005a64:	02112e23          	sw	x1,60(x2)
80005a68:	0086f793          	andi	x15,x13,8
80005a6c:	00058413          	addi	x8,x11,0
80005a70:	00050a93          	addi	x21,x10,0
80005a74:	00060a13          	addi	x20,x12,0
80005a78:	0a078463          	beq	x15,x0,80005b20 <__sfvwrite_r+0xd8>
80005a7c:	0105a783          	lw	x15,16(x11)
80005a80:	0a078063          	beq	x15,x0,80005b20 <__sfvwrite_r+0xd8>
80005a84:	02912a23          	sw	x9,52(x2)
80005a88:	03212823          	sw	x18,48(x2)
80005a8c:	03312623          	sw	x19,44(x2)
80005a90:	03612023          	sw	x22,32(x2)
80005a94:	0026f793          	andi	x15,x13,2
80005a98:	000a2483          	lw	x9,0(x20)
80005a9c:	0a078a63          	beq	x15,x0,80005b50 <__sfvwrite_r+0x108>
80005aa0:	80000b37          	lui	x22,0x80000
80005aa4:	c00b0b13          	addi	x22,x22,-1024 # 7ffffc00 <_start-0x400>
80005aa8:	00000993          	addi	x19,x0,0
80005aac:	00000913          	addi	x18,x0,0
80005ab0:	00098613          	addi	x12,x19,0
80005ab4:	000a8513          	addi	x10,x21,0
80005ab8:	1a090e63          	beq	x18,x0,80005c74 <__sfvwrite_r+0x22c>
80005abc:	00090693          	addi	x13,x18,0
80005ac0:	012b7663          	bgeu	x22,x18,80005acc <__sfvwrite_r+0x84>
80005ac4:	800006b7          	lui	x13,0x80000
80005ac8:	c0068693          	addi	x13,x13,-1024 # 7ffffc00 <_start-0x400>
80005acc:	02442783          	lw	x15,36(x8)
80005ad0:	01c42583          	lw	x11,28(x8)
80005ad4:	000780e7          	jalr	x1,0(x15)
80005ad8:	40a05863          	bge	x0,x10,80005ee8 <__sfvwrite_r+0x4a0>
80005adc:	008a2783          	lw	x15,8(x20)
80005ae0:	00a989b3          	add	x19,x19,x10
80005ae4:	40a90933          	sub	x18,x18,x10
80005ae8:	40a787b3          	sub	x15,x15,x10
80005aec:	00fa2423          	sw	x15,8(x20)
80005af0:	fc0790e3          	bne	x15,x0,80005ab0 <__sfvwrite_r+0x68>
80005af4:	03412483          	lw	x9,52(x2)
80005af8:	03012903          	lw	x18,48(x2)
80005afc:	02c12983          	lw	x19,44(x2)
80005b00:	02012b03          	lw	x22,32(x2)
80005b04:	00000513          	addi	x10,x0,0
80005b08:	03c12083          	lw	x1,60(x2)
80005b0c:	03812403          	lw	x8,56(x2)
80005b10:	02812a03          	lw	x20,40(x2)
80005b14:	02412a83          	lw	x21,36(x2)
80005b18:	04010113          	addi	x2,x2,64
80005b1c:	00008067          	jalr	x0,0(x1)
80005b20:	00040593          	addi	x11,x8,0
80005b24:	000a8513          	addi	x10,x21,0
80005b28:	5ec000ef          	jal	x1,80006114 <__swsetup_r>
80005b2c:	26051663          	bne	x10,x0,80005d98 <__sfvwrite_r+0x350>
80005b30:	00c41683          	lh	x13,12(x8)
80005b34:	02912a23          	sw	x9,52(x2)
80005b38:	03212823          	sw	x18,48(x2)
80005b3c:	03312623          	sw	x19,44(x2)
80005b40:	03612023          	sw	x22,32(x2)
80005b44:	0026f793          	andi	x15,x13,2
80005b48:	000a2483          	lw	x9,0(x20)
80005b4c:	f4079ae3          	bne	x15,x0,80005aa0 <__sfvwrite_r+0x58>
80005b50:	01712e23          	sw	x23,28(x2)
80005b54:	01812c23          	sw	x24,24(x2)
80005b58:	0016f793          	andi	x15,x13,1
80005b5c:	12079863          	bne	x15,x0,80005c8c <__sfvwrite_r+0x244>
80005b60:	00042783          	lw	x15,0(x8)
80005b64:	80000737          	lui	x14,0x80000
80005b68:	fff70c13          	addi	x24,x14,-1 # 7fffffff <_start-0x1>
80005b6c:	00000b13          	addi	x22,x0,0
80005b70:	00000993          	addi	x19,x0,0
80005b74:	0e098863          	beq	x19,x0,80005c64 <__sfvwrite_r+0x21c>
80005b78:	2006f713          	andi	x14,x13,512
80005b7c:	00842903          	lw	x18,8(x8)
80005b80:	00078513          	addi	x10,x15,0
80005b84:	20070e63          	beq	x14,x0,80005da0 <__sfvwrite_r+0x358>
80005b88:	00090b93          	addi	x23,x18,0
80005b8c:	2d29e063          	bltu	x19,x18,80005e4c <__sfvwrite_r+0x404>
80005b90:	4806f713          	andi	x14,x13,1152
80005b94:	08070c63          	beq	x14,x0,80005c2c <__sfvwrite_r+0x1e4>
80005b98:	01442603          	lw	x12,20(x8)
80005b9c:	01042583          	lw	x11,16(x8)
80005ba0:	00161713          	slli	x14,x12,0x1
80005ba4:	00c70733          	add	x14,x14,x12
80005ba8:	01f75913          	srli	x18,x14,0x1f
80005bac:	40b78bb3          	sub	x23,x15,x11
80005bb0:	00e90933          	add	x18,x18,x14
80005bb4:	001b8793          	addi	x15,x23,1
80005bb8:	40195913          	srai	x18,x18,0x1
80005bbc:	013787b3          	add	x15,x15,x19
80005bc0:	00090613          	addi	x12,x18,0
80005bc4:	00f97663          	bgeu	x18,x15,80005bd0 <__sfvwrite_r+0x188>
80005bc8:	00078913          	addi	x18,x15,0
80005bcc:	00078613          	addi	x12,x15,0
80005bd0:	4006f693          	andi	x13,x13,1024
80005bd4:	2c068263          	beq	x13,x0,80005e98 <__sfvwrite_r+0x450>
80005bd8:	00060593          	addi	x11,x12,0
80005bdc:	000a8513          	addi	x10,x21,0
80005be0:	d4cfb0ef          	jal	x1,8000112c <_malloc_r>
80005be4:	30050663          	beq	x10,x0,80005ef0 <__sfvwrite_r+0x4a8>
80005be8:	01042583          	lw	x11,16(x8)
80005bec:	000b8613          	addi	x12,x23,0
80005bf0:	00a12623          	sw	x10,12(x2)
80005bf4:	475000ef          	jal	x1,80006868 <memcpy>
80005bf8:	00c45783          	lhu	x15,12(x8)
80005bfc:	00c12703          	lw	x14,12(x2)
80005c00:	b7f7f793          	andi	x15,x15,-1153
80005c04:	0807e793          	ori	x15,x15,128
80005c08:	00f41623          	sh	x15,12(x8)
80005c0c:	417907b3          	sub	x15,x18,x23
80005c10:	01770533          	add	x10,x14,x23
80005c14:	01242a23          	sw	x18,20(x8)
80005c18:	00e42823          	sw	x14,16(x8)
80005c1c:	00a42023          	sw	x10,0(x8)
80005c20:	00f42423          	sw	x15,8(x8)
80005c24:	00098913          	addi	x18,x19,0
80005c28:	00098b93          	addi	x23,x19,0
80005c2c:	000b0593          	addi	x11,x22,0
80005c30:	000b8613          	addi	x12,x23,0
80005c34:	231000ef          	jal	x1,80006664 <memmove>
80005c38:	00842703          	lw	x14,8(x8)
80005c3c:	00042783          	lw	x15,0(x8)
80005c40:	41270733          	sub	x14,x14,x18
80005c44:	00e42423          	sw	x14,8(x8)
80005c48:	008a2703          	lw	x14,8(x20)
80005c4c:	017787b3          	add	x15,x15,x23
80005c50:	00f42023          	sw	x15,0(x8)
80005c54:	41370733          	sub	x14,x14,x19
80005c58:	00ea2423          	sw	x14,8(x20)
80005c5c:	28070063          	beq	x14,x0,80005edc <__sfvwrite_r+0x494>
80005c60:	00c41683          	lh	x13,12(x8)
80005c64:	0004ab03          	lw	x22,0(x9)
80005c68:	0044a983          	lw	x19,4(x9)
80005c6c:	00848493          	addi	x9,x9,8
80005c70:	f05ff06f          	jal	x0,80005b74 <__sfvwrite_r+0x12c>
80005c74:	0004a983          	lw	x19,0(x9)
80005c78:	0044a903          	lw	x18,4(x9)
80005c7c:	00848493          	addi	x9,x9,8
80005c80:	e31ff06f          	jal	x0,80005ab0 <__sfvwrite_r+0x68>
80005c84:	00000513          	addi	x10,x0,0
80005c88:	00008067          	jalr	x0,0(x1)
80005c8c:	00000b13          	addi	x22,x0,0
80005c90:	00000b93          	addi	x23,x0,0
80005c94:	00000513          	addi	x10,x0,0
80005c98:	00000c13          	addi	x24,x0,0
80005c9c:	060b0e63          	beq	x22,x0,80005d18 <__sfvwrite_r+0x2d0>
80005ca0:	08050663          	beq	x10,x0,80005d2c <__sfvwrite_r+0x2e4>
80005ca4:	000b8793          	addi	x15,x23,0
80005ca8:	000b0993          	addi	x19,x22,0
80005cac:	0167f463          	bgeu	x15,x22,80005cb4 <__sfvwrite_r+0x26c>
80005cb0:	00078993          	addi	x19,x15,0
80005cb4:	01442683          	lw	x13,20(x8)
80005cb8:	00842903          	lw	x18,8(x8)
80005cbc:	00042503          	lw	x10,0(x8)
80005cc0:	01042783          	lw	x15,16(x8)
80005cc4:	01268933          	add	x18,x13,x18
80005cc8:	00a7f463          	bgeu	x15,x10,80005cd0 <__sfvwrite_r+0x288>
80005ccc:	09394063          	blt	x18,x19,80005d4c <__sfvwrite_r+0x304>
80005cd0:	18d9ce63          	blt	x19,x13,80005e6c <__sfvwrite_r+0x424>
80005cd4:	02442783          	lw	x15,36(x8)
80005cd8:	01c42583          	lw	x11,28(x8)
80005cdc:	000c0613          	addi	x12,x24,0
80005ce0:	000a8513          	addi	x10,x21,0
80005ce4:	000780e7          	jalr	x1,0(x15)
80005ce8:	00050913          	addi	x18,x10,0
80005cec:	08a05463          	bge	x0,x10,80005d74 <__sfvwrite_r+0x32c>
80005cf0:	412b8bb3          	sub	x23,x23,x18
80005cf4:	00100513          	addi	x10,x0,1
80005cf8:	160b8063          	beq	x23,x0,80005e58 <__sfvwrite_r+0x410>
80005cfc:	008a2783          	lw	x15,8(x20)
80005d00:	412787b3          	sub	x15,x15,x18
80005d04:	00fa2423          	sw	x15,8(x20)
80005d08:	1c078a63          	beq	x15,x0,80005edc <__sfvwrite_r+0x494>
80005d0c:	412b0b33          	sub	x22,x22,x18
80005d10:	012c0c33          	add	x24,x24,x18
80005d14:	f80b16e3          	bne	x22,x0,80005ca0 <__sfvwrite_r+0x258>
80005d18:	0044ab03          	lw	x22,4(x9)
80005d1c:	00048793          	addi	x15,x9,0
80005d20:	00848493          	addi	x9,x9,8
80005d24:	fe0b0ae3          	beq	x22,x0,80005d18 <__sfvwrite_r+0x2d0>
80005d28:	0007ac03          	lw	x24,0(x15)
80005d2c:	000b0613          	addi	x12,x22,0
80005d30:	00a00593          	addi	x11,x0,10
80005d34:	000c0513          	addi	x10,x24,0
80005d38:	540000ef          	jal	x1,80006278 <memchr>
80005d3c:	18050a63          	beq	x10,x0,80005ed0 <__sfvwrite_r+0x488>
80005d40:	00150513          	addi	x10,x10,1
80005d44:	41850bb3          	sub	x23,x10,x24
80005d48:	f5dff06f          	jal	x0,80005ca4 <__sfvwrite_r+0x25c>
80005d4c:	000c0593          	addi	x11,x24,0
80005d50:	00090613          	addi	x12,x18,0
80005d54:	111000ef          	jal	x1,80006664 <memmove>
80005d58:	00042783          	lw	x15,0(x8)
80005d5c:	00040593          	addi	x11,x8,0
80005d60:	000a8513          	addi	x10,x21,0
80005d64:	012787b3          	add	x15,x15,x18
80005d68:	00f42023          	sw	x15,0(x8)
80005d6c:	869ff0ef          	jal	x1,800055d4 <_fflush_r>
80005d70:	f80500e3          	beq	x10,x0,80005cf0 <__sfvwrite_r+0x2a8>
80005d74:	00c41783          	lh	x15,12(x8)
80005d78:	01c12b83          	lw	x23,28(x2)
80005d7c:	01812c03          	lw	x24,24(x2)
80005d80:	03412483          	lw	x9,52(x2)
80005d84:	03012903          	lw	x18,48(x2)
80005d88:	02c12983          	lw	x19,44(x2)
80005d8c:	02012b03          	lw	x22,32(x2)
80005d90:	0407e793          	ori	x15,x15,64
80005d94:	00f41623          	sh	x15,12(x8)
80005d98:	fff00513          	addi	x10,x0,-1
80005d9c:	d6dff06f          	jal	x0,80005b08 <__sfvwrite_r+0xc0>
80005da0:	01042703          	lw	x14,16(x8)
80005da4:	06f76063          	bltu	x14,x15,80005e04 <__sfvwrite_r+0x3bc>
80005da8:	01442703          	lw	x14,20(x8)
80005dac:	04e9ec63          	bltu	x19,x14,80005e04 <__sfvwrite_r+0x3bc>
80005db0:	00098693          	addi	x13,x19,0
80005db4:	013c7463          	bgeu	x24,x19,80005dbc <__sfvwrite_r+0x374>
80005db8:	000c0693          	addi	x13,x24,0
80005dbc:	02e6e733          	rem	x14,x13,x14
80005dc0:	02442783          	lw	x15,36(x8)
80005dc4:	01c42583          	lw	x11,28(x8)
80005dc8:	000b0613          	addi	x12,x22,0
80005dcc:	000a8513          	addi	x10,x21,0
80005dd0:	40e686b3          	sub	x13,x13,x14
80005dd4:	000780e7          	jalr	x1,0(x15)
80005dd8:	f8a05ee3          	bge	x0,x10,80005d74 <__sfvwrite_r+0x32c>
80005ddc:	00050913          	addi	x18,x10,0
80005de0:	008a2783          	lw	x15,8(x20)
80005de4:	412989b3          	sub	x19,x19,x18
80005de8:	412787b3          	sub	x15,x15,x18
80005dec:	00fa2423          	sw	x15,8(x20)
80005df0:	0e078663          	beq	x15,x0,80005edc <__sfvwrite_r+0x494>
80005df4:	00c41683          	lh	x13,12(x8)
80005df8:	00042783          	lw	x15,0(x8)
80005dfc:	012b0b33          	add	x22,x22,x18
80005e00:	d75ff06f          	jal	x0,80005b74 <__sfvwrite_r+0x12c>
80005e04:	0129f463          	bgeu	x19,x18,80005e0c <__sfvwrite_r+0x3c4>
80005e08:	00098913          	addi	x18,x19,0
80005e0c:	00078513          	addi	x10,x15,0
80005e10:	00090613          	addi	x12,x18,0
80005e14:	000b0593          	addi	x11,x22,0
80005e18:	04d000ef          	jal	x1,80006664 <memmove>
80005e1c:	00042783          	lw	x15,0(x8)
80005e20:	00842703          	lw	x14,8(x8)
80005e24:	012787b3          	add	x15,x15,x18
80005e28:	41270733          	sub	x14,x14,x18
80005e2c:	00f42023          	sw	x15,0(x8)
80005e30:	00e42423          	sw	x14,8(x8)
80005e34:	fa0716e3          	bne	x14,x0,80005de0 <__sfvwrite_r+0x398>
80005e38:	00040593          	addi	x11,x8,0
80005e3c:	000a8513          	addi	x10,x21,0
80005e40:	f94ff0ef          	jal	x1,800055d4 <_fflush_r>
80005e44:	f8050ee3          	beq	x10,x0,80005de0 <__sfvwrite_r+0x398>
80005e48:	f2dff06f          	jal	x0,80005d74 <__sfvwrite_r+0x32c>
80005e4c:	00098913          	addi	x18,x19,0
80005e50:	00098b93          	addi	x23,x19,0
80005e54:	dd9ff06f          	jal	x0,80005c2c <__sfvwrite_r+0x1e4>
80005e58:	00040593          	addi	x11,x8,0
80005e5c:	000a8513          	addi	x10,x21,0
80005e60:	f74ff0ef          	jal	x1,800055d4 <_fflush_r>
80005e64:	e8050ce3          	beq	x10,x0,80005cfc <__sfvwrite_r+0x2b4>
80005e68:	f0dff06f          	jal	x0,80005d74 <__sfvwrite_r+0x32c>
80005e6c:	00098613          	addi	x12,x19,0
80005e70:	000c0593          	addi	x11,x24,0
80005e74:	7f0000ef          	jal	x1,80006664 <memmove>
80005e78:	00842703          	lw	x14,8(x8)
80005e7c:	00042783          	lw	x15,0(x8)
80005e80:	00098913          	addi	x18,x19,0
80005e84:	41370733          	sub	x14,x14,x19
80005e88:	013787b3          	add	x15,x15,x19
80005e8c:	00e42423          	sw	x14,8(x8)
80005e90:	00f42023          	sw	x15,0(x8)
80005e94:	e5dff06f          	jal	x0,80005cf0 <__sfvwrite_r+0x2a8>
80005e98:	000a8513          	addi	x10,x21,0
80005e9c:	314040ef          	jal	x1,8000a1b0 <_realloc_r>
80005ea0:	00050713          	addi	x14,x10,0
80005ea4:	d60514e3          	bne	x10,x0,80005c0c <__sfvwrite_r+0x1c4>
80005ea8:	01042583          	lw	x11,16(x8)
80005eac:	000a8513          	addi	x10,x21,0
80005eb0:	8d8fc0ef          	jal	x1,80001f88 <_free_r>
80005eb4:	00c45783          	lhu	x15,12(x8)
80005eb8:	00c00713          	addi	x14,x0,12
80005ebc:	01c12b83          	lw	x23,28(x2)
80005ec0:	01812c03          	lw	x24,24(x2)
80005ec4:	00eaa023          	sw	x14,0(x21)
80005ec8:	f7f7f793          	andi	x15,x15,-129
80005ecc:	eb5ff06f          	jal	x0,80005d80 <__sfvwrite_r+0x338>
80005ed0:	001b0793          	addi	x15,x22,1
80005ed4:	00078b93          	addi	x23,x15,0
80005ed8:	dd1ff06f          	jal	x0,80005ca8 <__sfvwrite_r+0x260>
80005edc:	01c12b83          	lw	x23,28(x2)
80005ee0:	01812c03          	lw	x24,24(x2)
80005ee4:	c11ff06f          	jal	x0,80005af4 <__sfvwrite_r+0xac>
80005ee8:	00c41783          	lh	x15,12(x8)
80005eec:	e95ff06f          	jal	x0,80005d80 <__sfvwrite_r+0x338>
80005ef0:	00c00793          	addi	x15,x0,12
80005ef4:	00faa023          	sw	x15,0(x21)
80005ef8:	01c12b83          	lw	x23,28(x2)
80005efc:	00c41783          	lh	x15,12(x8)
80005f00:	01812c03          	lw	x24,24(x2)
80005f04:	e7dff06f          	jal	x0,80005d80 <__sfvwrite_r+0x338>

80005f08 <_fwalk_sglue>:
80005f08:	fd010113          	addi	x2,x2,-48
80005f0c:	03212023          	sw	x18,32(x2)
80005f10:	01312e23          	sw	x19,28(x2)
80005f14:	01412c23          	sw	x20,24(x2)
80005f18:	01512a23          	sw	x21,20(x2)
80005f1c:	01612823          	sw	x22,16(x2)
80005f20:	01712623          	sw	x23,12(x2)
80005f24:	02112623          	sw	x1,44(x2)
80005f28:	02812423          	sw	x8,40(x2)
80005f2c:	02912223          	sw	x9,36(x2)
80005f30:	00060a93          	addi	x21,x12,0
80005f34:	00050b13          	addi	x22,x10,0
80005f38:	00058b93          	addi	x23,x11,0
80005f3c:	00000a13          	addi	x20,x0,0
80005f40:	00100993          	addi	x19,x0,1
80005f44:	fff00913          	addi	x18,x0,-1
80005f48:	004aa483          	lw	x9,4(x21)
80005f4c:	fff48493          	addi	x9,x9,-1
80005f50:	0204ca63          	blt	x9,x0,80005f84 <_fwalk_sglue+0x7c>
80005f54:	008aa403          	lw	x8,8(x21)
80005f58:	00c45783          	lhu	x15,12(x8)
80005f5c:	00f9fe63          	bgeu	x19,x15,80005f78 <_fwalk_sglue+0x70>
80005f60:	00e41783          	lh	x15,14(x8)
80005f64:	00040593          	addi	x11,x8,0
80005f68:	000b0513          	addi	x10,x22,0
80005f6c:	01278663          	beq	x15,x18,80005f78 <_fwalk_sglue+0x70>
80005f70:	000b80e7          	jalr	x1,0(x23)
80005f74:	00aa6a33          	or	x20,x20,x10
80005f78:	fff48493          	addi	x9,x9,-1
80005f7c:	06840413          	addi	x8,x8,104
80005f80:	fd249ce3          	bne	x9,x18,80005f58 <_fwalk_sglue+0x50>
80005f84:	000aaa83          	lw	x21,0(x21)
80005f88:	fc0a90e3          	bne	x21,x0,80005f48 <_fwalk_sglue+0x40>
80005f8c:	02c12083          	lw	x1,44(x2)
80005f90:	02812403          	lw	x8,40(x2)
80005f94:	02412483          	lw	x9,36(x2)
80005f98:	02012903          	lw	x18,32(x2)
80005f9c:	01c12983          	lw	x19,28(x2)
80005fa0:	01412a83          	lw	x21,20(x2)
80005fa4:	01012b03          	lw	x22,16(x2)
80005fa8:	00c12b83          	lw	x23,12(x2)
80005fac:	000a0513          	addi	x10,x20,0
80005fb0:	01812a03          	lw	x20,24(x2)
80005fb4:	03010113          	addi	x2,x2,48
80005fb8:	00008067          	jalr	x0,0(x1)

80005fbc <__sread>:
80005fbc:	ff010113          	addi	x2,x2,-16
80005fc0:	00812423          	sw	x8,8(x2)
80005fc4:	00058413          	addi	x8,x11,0
80005fc8:	00e59583          	lh	x11,14(x11)
80005fcc:	00112623          	sw	x1,12(x2)
80005fd0:	5bc000ef          	jal	x1,8000658c <_read_r>
80005fd4:	02054063          	blt	x10,x0,80005ff4 <__sread+0x38>
80005fd8:	05042783          	lw	x15,80(x8)
80005fdc:	00c12083          	lw	x1,12(x2)
80005fe0:	00a787b3          	add	x15,x15,x10
80005fe4:	04f42823          	sw	x15,80(x8)
80005fe8:	00812403          	lw	x8,8(x2)
80005fec:	01010113          	addi	x2,x2,16
80005ff0:	00008067          	jalr	x0,0(x1)
80005ff4:	00c45783          	lhu	x15,12(x8)
80005ff8:	fffff737          	lui	x14,0xfffff
80005ffc:	fff70713          	addi	x14,x14,-1 # ffffefff <_stack_top+0x77ffefff>
80006000:	00e7f7b3          	and	x15,x15,x14
80006004:	00c12083          	lw	x1,12(x2)
80006008:	00f41623          	sh	x15,12(x8)
8000600c:	00812403          	lw	x8,8(x2)
80006010:	01010113          	addi	x2,x2,16
80006014:	00008067          	jalr	x0,0(x1)

80006018 <__seofread>:
80006018:	00000513          	addi	x10,x0,0
8000601c:	00008067          	jalr	x0,0(x1)

80006020 <__swrite>:
80006020:	00c59783          	lh	x15,12(x11)
80006024:	fe010113          	addi	x2,x2,-32
80006028:	00068313          	addi	x6,x13,0
8000602c:	00112e23          	sw	x1,28(x2)
80006030:	1007f693          	andi	x13,x15,256
80006034:	00058713          	addi	x14,x11,0
80006038:	00060893          	addi	x17,x12,0
8000603c:	00050813          	addi	x16,x10,0
80006040:	02069863          	bne	x13,x0,80006070 <__swrite+0x50>
80006044:	fffff6b7          	lui	x13,0xfffff
80006048:	fff68693          	addi	x13,x13,-1 # ffffefff <_stack_top+0x77ffefff>
8000604c:	01c12083          	lw	x1,28(x2)
80006050:	00d7f7b3          	and	x15,x15,x13
80006054:	00e71583          	lh	x11,14(x14)
80006058:	00f71623          	sh	x15,12(x14)
8000605c:	00030693          	addi	x13,x6,0
80006060:	00088613          	addi	x12,x17,0
80006064:	00080513          	addi	x10,x16,0
80006068:	02010113          	addi	x2,x2,32
8000606c:	58c0006f          	jal	x0,800065f8 <_write_r>
80006070:	00e59583          	lh	x11,14(x11)
80006074:	00c12423          	sw	x12,8(x2)
80006078:	00200693          	addi	x13,x0,2
8000607c:	00000613          	addi	x12,x0,0
80006080:	00612623          	sw	x6,12(x2)
80006084:	00e12023          	sw	x14,0(x2)
80006088:	00a12223          	sw	x10,4(x2)
8000608c:	494000ef          	jal	x1,80006520 <_lseek_r>
80006090:	00012703          	lw	x14,0(x2)
80006094:	00c12303          	lw	x6,12(x2)
80006098:	00812883          	lw	x17,8(x2)
8000609c:	00c71783          	lh	x15,12(x14)
800060a0:	00412803          	lw	x16,4(x2)
800060a4:	fa1ff06f          	jal	x0,80006044 <__swrite+0x24>

800060a8 <__sseek>:
800060a8:	ff010113          	addi	x2,x2,-16
800060ac:	00812423          	sw	x8,8(x2)
800060b0:	00058413          	addi	x8,x11,0
800060b4:	00e59583          	lh	x11,14(x11)
800060b8:	00112623          	sw	x1,12(x2)
800060bc:	464000ef          	jal	x1,80006520 <_lseek_r>
800060c0:	fff00713          	addi	x14,x0,-1
800060c4:	00c41783          	lh	x15,12(x8)
800060c8:	02e50263          	beq	x10,x14,800060ec <__sseek+0x44>
800060cc:	00001737          	lui	x14,0x1
800060d0:	00e7e7b3          	or	x15,x15,x14
800060d4:	00c12083          	lw	x1,12(x2)
800060d8:	04a42823          	sw	x10,80(x8)
800060dc:	00f41623          	sh	x15,12(x8)
800060e0:	00812403          	lw	x8,8(x2)
800060e4:	01010113          	addi	x2,x2,16
800060e8:	00008067          	jalr	x0,0(x1)
800060ec:	80050713          	addi	x14,x10,-2048
800060f0:	80070713          	addi	x14,x14,-2048 # 800 <_start-0x7ffff800>
800060f4:	00e7f7b3          	and	x15,x15,x14
800060f8:	00c12083          	lw	x1,12(x2)
800060fc:	00f41623          	sh	x15,12(x8)
80006100:	00812403          	lw	x8,8(x2)
80006104:	01010113          	addi	x2,x2,16
80006108:	00008067          	jalr	x0,0(x1)

8000610c <__sclose>:
8000610c:	00e59583          	lh	x11,14(x11)
80006110:	2cc0006f          	jal	x0,800063dc <_close_r>

80006114 <__swsetup_r>:
80006114:	6ac1a703          	lw	x14,1708(x3) # 8001237c <_impure_ptr>
80006118:	fe010113          	addi	x2,x2,-32
8000611c:	00112e23          	sw	x1,28(x2)
80006120:	00050613          	addi	x12,x10,0
80006124:	00058793          	addi	x15,x11,0
80006128:	00070663          	beq	x14,x0,80006134 <__swsetup_r+0x20>
8000612c:	03472683          	lw	x13,52(x14)
80006130:	10068a63          	beq	x13,x0,80006244 <__swsetup_r+0x130>
80006134:	00c79703          	lh	x14,12(x15)
80006138:	00877693          	andi	x13,x14,8
8000613c:	02068e63          	beq	x13,x0,80006178 <__swsetup_r+0x64>
80006140:	0107a683          	lw	x13,16(x15)
80006144:	04068a63          	beq	x13,x0,80006198 <__swsetup_r+0x84>
80006148:	00c79703          	lh	x14,12(x15)
8000614c:	00177613          	andi	x12,x14,1
80006150:	06060e63          	beq	x12,x0,800061cc <__swsetup_r+0xb8>
80006154:	0147a603          	lw	x12,20(x15)
80006158:	0007a423          	sw	x0,8(x15)
8000615c:	00000513          	addi	x10,x0,0
80006160:	40c00633          	sub	x12,x0,x12
80006164:	00c7ac23          	sw	x12,24(x15)
80006168:	08068063          	beq	x13,x0,800061e8 <__swsetup_r+0xd4>
8000616c:	01c12083          	lw	x1,28(x2)
80006170:	02010113          	addi	x2,x2,32
80006174:	00008067          	jalr	x0,0(x1)
80006178:	01077693          	andi	x13,x14,16
8000617c:	0e068263          	beq	x13,x0,80006260 <__swsetup_r+0x14c>
80006180:	00477693          	andi	x13,x14,4
80006184:	06069e63          	bne	x13,x0,80006200 <__swsetup_r+0xec>
80006188:	0107a683          	lw	x13,16(x15)
8000618c:	00876713          	ori	x14,x14,8
80006190:	00e79623          	sh	x14,12(x15)
80006194:	fa069ae3          	bne	x13,x0,80006148 <__swsetup_r+0x34>
80006198:	00c7a703          	lw	x14,12(x15)
8000619c:	20000593          	addi	x11,x0,512
800061a0:	28077713          	andi	x14,x14,640
800061a4:	fab702e3          	beq	x14,x11,80006148 <__swsetup_r+0x34>
800061a8:	00060513          	addi	x10,x12,0
800061ac:	00078593          	addi	x11,x15,0
800061b0:	00f12423          	sw	x15,8(x2)
800061b4:	738040ef          	jal	x1,8000a8ec <__smakebuf_r>
800061b8:	00812783          	lw	x15,8(x2)
800061bc:	00c79703          	lh	x14,12(x15)
800061c0:	0107a683          	lw	x13,16(x15)
800061c4:	00177613          	andi	x12,x14,1
800061c8:	f80616e3          	bne	x12,x0,80006154 <__swsetup_r+0x40>
800061cc:	00277613          	andi	x12,x14,2
800061d0:	00000593          	addi	x11,x0,0
800061d4:	00061463          	bne	x12,x0,800061dc <__swsetup_r+0xc8>
800061d8:	0147a583          	lw	x11,20(x15)
800061dc:	00b7a423          	sw	x11,8(x15)
800061e0:	00000513          	addi	x10,x0,0
800061e4:	f80694e3          	bne	x13,x0,8000616c <__swsetup_r+0x58>
800061e8:	08077693          	andi	x13,x14,128
800061ec:	f80680e3          	beq	x13,x0,8000616c <__swsetup_r+0x58>
800061f0:	04076713          	ori	x14,x14,64
800061f4:	00e79623          	sh	x14,12(x15)
800061f8:	fff00513          	addi	x10,x0,-1
800061fc:	f71ff06f          	jal	x0,8000616c <__swsetup_r+0x58>
80006200:	0307a583          	lw	x11,48(x15)
80006204:	02058663          	beq	x11,x0,80006230 <__swsetup_r+0x11c>
80006208:	04078693          	addi	x13,x15,64
8000620c:	02d58063          	beq	x11,x13,8000622c <__swsetup_r+0x118>
80006210:	00060513          	addi	x10,x12,0
80006214:	00f12623          	sw	x15,12(x2)
80006218:	00c12423          	sw	x12,8(x2)
8000621c:	d6dfb0ef          	jal	x1,80001f88 <_free_r>
80006220:	00c12783          	lw	x15,12(x2)
80006224:	00812603          	lw	x12,8(x2)
80006228:	00c79703          	lh	x14,12(x15)
8000622c:	0207a823          	sw	x0,48(x15)
80006230:	0107a683          	lw	x13,16(x15)
80006234:	fdb77713          	andi	x14,x14,-37
80006238:	0007a223          	sw	x0,4(x15)
8000623c:	00d7a023          	sw	x13,0(x15)
80006240:	f4dff06f          	jal	x0,8000618c <__swsetup_r+0x78>
80006244:	00a12423          	sw	x10,8(x2)
80006248:	00070513          	addi	x10,x14,0
8000624c:	00b12623          	sw	x11,12(x2)
80006250:	fa0ff0ef          	jal	x1,800059f0 <__sinit>
80006254:	00c12783          	lw	x15,12(x2)
80006258:	00812603          	lw	x12,8(x2)
8000625c:	ed9ff06f          	jal	x0,80006134 <__swsetup_r+0x20>
80006260:	00900693          	addi	x13,x0,9
80006264:	04076713          	ori	x14,x14,64
80006268:	00d62023          	sw	x13,0(x12)
8000626c:	00e79623          	sh	x14,12(x15)
80006270:	fff00513          	addi	x10,x0,-1
80006274:	ef9ff06f          	jal	x0,8000616c <__swsetup_r+0x58>

80006278 <memchr>:
80006278:	00357793          	andi	x15,x10,3
8000627c:	0ff5f713          	andi	x14,x11,255
80006280:	02078063          	beq	x15,x0,800062a0 <memchr+0x28>
80006284:	08060863          	beq	x12,x0,80006314 <memchr+0x9c>
80006288:	00054783          	lbu	x15,0(x10)
8000628c:	fff60613          	addi	x12,x12,-1
80006290:	08e78063          	beq	x15,x14,80006310 <memchr+0x98>
80006294:	00150513          	addi	x10,x10,1
80006298:	00357793          	andi	x15,x10,3
8000629c:	fe0794e3          	bne	x15,x0,80006284 <memchr+0xc>
800062a0:	00300813          	addi	x16,x0,3
800062a4:	04c87863          	bgeu	x16,x12,800062f4 <memchr+0x7c>
800062a8:	0ff5f593          	andi	x11,x11,255
800062ac:	00859793          	slli	x15,x11,0x8
800062b0:	00b785b3          	add	x11,x15,x11
800062b4:	01059793          	slli	x15,x11,0x10
800062b8:	feff0337          	lui	x6,0xfeff0
800062bc:	808088b7          	lui	x17,0x80808
800062c0:	00f585b3          	add	x11,x11,x15
800062c4:	eff30313          	addi	x6,x6,-257 # fefefeff <_stack_top+0x76fefeff>
800062c8:	08088893          	addi	x17,x17,128 # 80808080 <__BSS_END__+0x7f5b88>
800062cc:	00052783          	lw	x15,0(x10)
800062d0:	00f5c7b3          	xor	x15,x11,x15
800062d4:	006786b3          	add	x13,x15,x6
800062d8:	fff7c793          	xori	x15,x15,-1
800062dc:	00f6f7b3          	and	x15,x13,x15
800062e0:	0117f7b3          	and	x15,x15,x17
800062e4:	00079a63          	bne	x15,x0,800062f8 <memchr+0x80>
800062e8:	ffc60613          	addi	x12,x12,-4
800062ec:	00450513          	addi	x10,x10,4
800062f0:	fcc86ee3          	bltu	x16,x12,800062cc <memchr+0x54>
800062f4:	02060063          	beq	x12,x0,80006314 <memchr+0x9c>
800062f8:	00c50633          	add	x12,x10,x12
800062fc:	00c0006f          	jal	x0,80006308 <memchr+0x90>
80006300:	00150513          	addi	x10,x10,1
80006304:	00c50863          	beq	x10,x12,80006314 <memchr+0x9c>
80006308:	00054783          	lbu	x15,0(x10)
8000630c:	fee79ae3          	bne	x15,x14,80006300 <memchr+0x88>
80006310:	00008067          	jalr	x0,0(x1)
80006314:	00000513          	addi	x10,x0,0
80006318:	00008067          	jalr	x0,0(x1)

8000631c <strncpy>:
8000631c:	00a5e7b3          	or	x15,x11,x10
80006320:	0037f793          	andi	x15,x15,3
80006324:	00079663          	bne	x15,x0,80006330 <strncpy+0x14>
80006328:	00463793          	sltiu	x15,x12,4
8000632c:	04078663          	beq	x15,x0,80006378 <strncpy+0x5c>
80006330:	00050713          	addi	x14,x10,0
80006334:	01c0006f          	jal	x0,80006350 <strncpy+0x34>
80006338:	fff5c683          	lbu	x13,-1(x11)
8000633c:	fff60813          	addi	x16,x12,-1
80006340:	fed78fa3          	sb	x13,-1(x15)
80006344:	00068e63          	beq	x13,x0,80006360 <strncpy+0x44>
80006348:	00078713          	addi	x14,x15,0
8000634c:	00080613          	addi	x12,x16,0
80006350:	00158593          	addi	x11,x11,1
80006354:	00170793          	addi	x15,x14,1
80006358:	fe0610e3          	bne	x12,x0,80006338 <strncpy+0x1c>
8000635c:	00008067          	jalr	x0,0(x1)
80006360:	00c70733          	add	x14,x14,x12
80006364:	04080e63          	beq	x16,x0,800063c0 <strncpy+0xa4>
80006368:	00178793          	addi	x15,x15,1
8000636c:	fe078fa3          	sb	x0,-1(x15)
80006370:	fee79ce3          	bne	x15,x14,80006368 <strncpy+0x4c>
80006374:	00008067          	jalr	x0,0(x1)
80006378:	feff0337          	lui	x6,0xfeff0
8000637c:	808088b7          	lui	x17,0x80808
80006380:	eff30313          	addi	x6,x6,-257 # fefefeff <_stack_top+0x76fefeff>
80006384:	08088893          	addi	x17,x17,128 # 80808080 <__BSS_END__+0x7f5b88>
80006388:	00050713          	addi	x14,x10,0
8000638c:	00300e13          	addi	x28,x0,3
80006390:	0005a683          	lw	x13,0(x11)
80006394:	006687b3          	add	x15,x13,x6
80006398:	fff6c813          	xori	x16,x13,-1
8000639c:	0107f7b3          	and	x15,x15,x16
800063a0:	0117f7b3          	and	x15,x15,x17
800063a4:	fa0796e3          	bne	x15,x0,80006350 <strncpy+0x34>
800063a8:	ffc60613          	addi	x12,x12,-4
800063ac:	00d72023          	sw	x13,0(x14)
800063b0:	00470713          	addi	x14,x14,4
800063b4:	00458593          	addi	x11,x11,4
800063b8:	fcce6ce3          	bltu	x28,x12,80006390 <strncpy+0x74>
800063bc:	f95ff06f          	jal	x0,80006350 <strncpy+0x34>
800063c0:	00008067          	jalr	x0,0(x1)

800063c4 <__localeconv_l>:
800063c4:	0f050513          	addi	x10,x10,240
800063c8:	00008067          	jalr	x0,0(x1)

800063cc <_localeconv_r>:
800063cc:	62418513          	addi	x10,x3,1572 # 800122f4 <__global_locale+0xf0>
800063d0:	00008067          	jalr	x0,0(x1)

800063d4 <localeconv>:
800063d4:	62418513          	addi	x10,x3,1572 # 800122f4 <__global_locale+0xf0>
800063d8:	00008067          	jalr	x0,0(x1)

800063dc <_close_r>:
800063dc:	ff010113          	addi	x2,x2,-16
800063e0:	00812423          	sw	x8,8(x2)
800063e4:	00912223          	sw	x9,4(x2)
800063e8:	80012437          	lui	x8,0x80012
800063ec:	00050493          	addi	x9,x10,0
800063f0:	00058513          	addi	x10,x11,0
800063f4:	00112623          	sw	x1,12(x2)
800063f8:	4e042823          	sw	x0,1264(x8) # 800124f0 <errno>
800063fc:	808fa0ef          	jal	x1,80000404 <_close>
80006400:	fff00793          	addi	x15,x0,-1
80006404:	00f50c63          	beq	x10,x15,8000641c <_close_r+0x40>
80006408:	00c12083          	lw	x1,12(x2)
8000640c:	00812403          	lw	x8,8(x2)
80006410:	00412483          	lw	x9,4(x2)
80006414:	01010113          	addi	x2,x2,16
80006418:	00008067          	jalr	x0,0(x1)
8000641c:	4f042783          	lw	x15,1264(x8)
80006420:	fe0784e3          	beq	x15,x0,80006408 <_close_r+0x2c>
80006424:	00c12083          	lw	x1,12(x2)
80006428:	00812403          	lw	x8,8(x2)
8000642c:	00f4a023          	sw	x15,0(x9)
80006430:	00412483          	lw	x9,4(x2)
80006434:	01010113          	addi	x2,x2,16
80006438:	00008067          	jalr	x0,0(x1)

8000643c <_reclaim_reent>:
8000643c:	6ac1a783          	lw	x15,1708(x3) # 8001237c <_impure_ptr>
80006440:	0ca78e63          	beq	x15,x10,8000651c <_reclaim_reent+0xe0>
80006444:	04452583          	lw	x11,68(x10)
80006448:	fe010113          	addi	x2,x2,-32
8000644c:	00912a23          	sw	x9,20(x2)
80006450:	00112e23          	sw	x1,28(x2)
80006454:	00812c23          	sw	x8,24(x2)
80006458:	00050493          	addi	x9,x10,0
8000645c:	04058863          	beq	x11,x0,800064ac <_reclaim_reent+0x70>
80006460:	01212823          	sw	x18,16(x2)
80006464:	01312623          	sw	x19,12(x2)
80006468:	00000913          	addi	x18,x0,0
8000646c:	08000993          	addi	x19,x0,128
80006470:	012587b3          	add	x15,x11,x18
80006474:	0007a403          	lw	x8,0(x15)
80006478:	00040e63          	beq	x8,x0,80006494 <_reclaim_reent+0x58>
8000647c:	00040593          	addi	x11,x8,0
80006480:	00042403          	lw	x8,0(x8)
80006484:	00048513          	addi	x10,x9,0
80006488:	b01fb0ef          	jal	x1,80001f88 <_free_r>
8000648c:	fe0418e3          	bne	x8,x0,8000647c <_reclaim_reent+0x40>
80006490:	0444a583          	lw	x11,68(x9)
80006494:	00490913          	addi	x18,x18,4
80006498:	fd391ce3          	bne	x18,x19,80006470 <_reclaim_reent+0x34>
8000649c:	00048513          	addi	x10,x9,0
800064a0:	ae9fb0ef          	jal	x1,80001f88 <_free_r>
800064a4:	01012903          	lw	x18,16(x2)
800064a8:	00c12983          	lw	x19,12(x2)
800064ac:	0384a583          	lw	x11,56(x9)
800064b0:	00058663          	beq	x11,x0,800064bc <_reclaim_reent+0x80>
800064b4:	00048513          	addi	x10,x9,0
800064b8:	ad1fb0ef          	jal	x1,80001f88 <_free_r>
800064bc:	0404a403          	lw	x8,64(x9)
800064c0:	00040c63          	beq	x8,x0,800064d8 <_reclaim_reent+0x9c>
800064c4:	00040593          	addi	x11,x8,0
800064c8:	00042403          	lw	x8,0(x8)
800064cc:	00048513          	addi	x10,x9,0
800064d0:	ab9fb0ef          	jal	x1,80001f88 <_free_r>
800064d4:	fe0418e3          	bne	x8,x0,800064c4 <_reclaim_reent+0x88>
800064d8:	04c4a583          	lw	x11,76(x9)
800064dc:	00058663          	beq	x11,x0,800064e8 <_reclaim_reent+0xac>
800064e0:	00048513          	addi	x10,x9,0
800064e4:	aa5fb0ef          	jal	x1,80001f88 <_free_r>
800064e8:	0344a783          	lw	x15,52(x9)
800064ec:	00078e63          	beq	x15,x0,80006508 <_reclaim_reent+0xcc>
800064f0:	01812403          	lw	x8,24(x2)
800064f4:	01c12083          	lw	x1,28(x2)
800064f8:	00048513          	addi	x10,x9,0
800064fc:	01412483          	lw	x9,20(x2)
80006500:	02010113          	addi	x2,x2,32
80006504:	00078067          	jalr	x0,0(x15)
80006508:	01c12083          	lw	x1,28(x2)
8000650c:	01812403          	lw	x8,24(x2)
80006510:	01412483          	lw	x9,20(x2)
80006514:	02010113          	addi	x2,x2,32
80006518:	00008067          	jalr	x0,0(x1)
8000651c:	00008067          	jalr	x0,0(x1)

80006520 <_lseek_r>:
80006520:	ff010113          	addi	x2,x2,-16
80006524:	00058793          	addi	x15,x11,0
80006528:	00812423          	sw	x8,8(x2)
8000652c:	00912223          	sw	x9,4(x2)
80006530:	00060593          	addi	x11,x12,0
80006534:	00050493          	addi	x9,x10,0
80006538:	00068613          	addi	x12,x13,0
8000653c:	00078513          	addi	x10,x15,0
80006540:	80012437          	lui	x8,0x80012
80006544:	00112623          	sw	x1,12(x2)
80006548:	4e042823          	sw	x0,1264(x8) # 800124f0 <errno>
8000654c:	938fa0ef          	jal	x1,80000684 <_lseek>
80006550:	fff00793          	addi	x15,x0,-1
80006554:	00f50c63          	beq	x10,x15,8000656c <_lseek_r+0x4c>
80006558:	00c12083          	lw	x1,12(x2)
8000655c:	00812403          	lw	x8,8(x2)
80006560:	00412483          	lw	x9,4(x2)
80006564:	01010113          	addi	x2,x2,16
80006568:	00008067          	jalr	x0,0(x1)
8000656c:	4f042783          	lw	x15,1264(x8)
80006570:	fe0784e3          	beq	x15,x0,80006558 <_lseek_r+0x38>
80006574:	00c12083          	lw	x1,12(x2)
80006578:	00812403          	lw	x8,8(x2)
8000657c:	00f4a023          	sw	x15,0(x9)
80006580:	00412483          	lw	x9,4(x2)
80006584:	01010113          	addi	x2,x2,16
80006588:	00008067          	jalr	x0,0(x1)

8000658c <_read_r>:
8000658c:	ff010113          	addi	x2,x2,-16
80006590:	00058793          	addi	x15,x11,0
80006594:	00812423          	sw	x8,8(x2)
80006598:	00912223          	sw	x9,4(x2)
8000659c:	00060593          	addi	x11,x12,0
800065a0:	00050493          	addi	x9,x10,0
800065a4:	00068613          	addi	x12,x13,0
800065a8:	00078513          	addi	x10,x15,0
800065ac:	80012437          	lui	x8,0x80012
800065b0:	00112623          	sw	x1,12(x2)
800065b4:	4e042823          	sw	x0,1264(x8) # 800124f0 <errno>
800065b8:	998fa0ef          	jal	x1,80000750 <_read>
800065bc:	fff00793          	addi	x15,x0,-1
800065c0:	00f50c63          	beq	x10,x15,800065d8 <_read_r+0x4c>
800065c4:	00c12083          	lw	x1,12(x2)
800065c8:	00812403          	lw	x8,8(x2)
800065cc:	00412483          	lw	x9,4(x2)
800065d0:	01010113          	addi	x2,x2,16
800065d4:	00008067          	jalr	x0,0(x1)
800065d8:	4f042783          	lw	x15,1264(x8)
800065dc:	fe0784e3          	beq	x15,x0,800065c4 <_read_r+0x38>
800065e0:	00c12083          	lw	x1,12(x2)
800065e4:	00812403          	lw	x8,8(x2)
800065e8:	00f4a023          	sw	x15,0(x9)
800065ec:	00412483          	lw	x9,4(x2)
800065f0:	01010113          	addi	x2,x2,16
800065f4:	00008067          	jalr	x0,0(x1)

800065f8 <_write_r>:
800065f8:	ff010113          	addi	x2,x2,-16
800065fc:	00058793          	addi	x15,x11,0
80006600:	00812423          	sw	x8,8(x2)
80006604:	00912223          	sw	x9,4(x2)
80006608:	00060593          	addi	x11,x12,0
8000660c:	00050493          	addi	x9,x10,0
80006610:	00068613          	addi	x12,x13,0
80006614:	00078513          	addi	x10,x15,0
80006618:	80012437          	lui	x8,0x80012
8000661c:	00112623          	sw	x1,12(x2)
80006620:	4e042823          	sw	x0,1264(x8) # 800124f0 <errno>
80006624:	bbcfa0ef          	jal	x1,800009e0 <_write>
80006628:	fff00793          	addi	x15,x0,-1
8000662c:	00f50c63          	beq	x10,x15,80006644 <_write_r+0x4c>
80006630:	00c12083          	lw	x1,12(x2)
80006634:	00812403          	lw	x8,8(x2)
80006638:	00412483          	lw	x9,4(x2)
8000663c:	01010113          	addi	x2,x2,16
80006640:	00008067          	jalr	x0,0(x1)
80006644:	4f042783          	lw	x15,1264(x8)
80006648:	fe0784e3          	beq	x15,x0,80006630 <_write_r+0x38>
8000664c:	00c12083          	lw	x1,12(x2)
80006650:	00812403          	lw	x8,8(x2)
80006654:	00f4a023          	sw	x15,0(x9)
80006658:	00412483          	lw	x9,4(x2)
8000665c:	01010113          	addi	x2,x2,16
80006660:	00008067          	jalr	x0,0(x1)

80006664 <memmove>:
80006664:	02a5f663          	bgeu	x11,x10,80006690 <memmove+0x2c>
80006668:	00c587b3          	add	x15,x11,x12
8000666c:	02f57263          	bgeu	x10,x15,80006690 <memmove+0x2c>
80006670:	04060863          	beq	x12,x0,800066c0 <memmove+0x5c>
80006674:	00c50633          	add	x12,x10,x12
80006678:	fff7c703          	lbu	x14,-1(x15)
8000667c:	fff60613          	addi	x12,x12,-1
80006680:	fff78793          	addi	x15,x15,-1
80006684:	00e60023          	sb	x14,0(x12)
80006688:	fec518e3          	bne	x10,x12,80006678 <memmove+0x14>
8000668c:	00008067          	jalr	x0,0(x1)
80006690:	00f00793          	addi	x15,x0,15
80006694:	02c7e863          	bltu	x15,x12,800066c4 <memmove+0x60>
80006698:	00050793          	addi	x15,x10,0
8000669c:	fff60693          	addi	x13,x12,-1
800066a0:	0e060063          	beq	x12,x0,80006780 <memmove+0x11c>
800066a4:	00168693          	addi	x13,x13,1
800066a8:	00d786b3          	add	x13,x15,x13
800066ac:	0005c703          	lbu	x14,0(x11)
800066b0:	00178793          	addi	x15,x15,1
800066b4:	00158593          	addi	x11,x11,1
800066b8:	fee78fa3          	sb	x14,-1(x15)
800066bc:	fed798e3          	bne	x15,x13,800066ac <memmove+0x48>
800066c0:	00008067          	jalr	x0,0(x1)
800066c4:	00b567b3          	or	x15,x10,x11
800066c8:	0037f793          	andi	x15,x15,3
800066cc:	00058893          	addi	x17,x11,0
800066d0:	0a079263          	bne	x15,x0,80006774 <memmove+0x110>
800066d4:	00465793          	srli	x15,x12,0x4
800066d8:	00479813          	slli	x16,x15,0x4
800066dc:	01050833          	add	x16,x10,x16
800066e0:	fff78793          	addi	x15,x15,-1
800066e4:	00050713          	addi	x14,x10,0
800066e8:	0005a683          	lw	x13,0(x11)
800066ec:	01058593          	addi	x11,x11,16
800066f0:	01070713          	addi	x14,x14,16
800066f4:	fed72823          	sw	x13,-16(x14)
800066f8:	ff45a683          	lw	x13,-12(x11)
800066fc:	fed72a23          	sw	x13,-12(x14)
80006700:	ff85a683          	lw	x13,-8(x11)
80006704:	fed72c23          	sw	x13,-8(x14)
80006708:	ffc5a683          	lw	x13,-4(x11)
8000670c:	fed72e23          	sw	x13,-4(x14)
80006710:	fd071ce3          	bne	x14,x16,800066e8 <memmove+0x84>
80006714:	00479793          	slli	x15,x15,0x4
80006718:	01178733          	add	x14,x15,x17
8000671c:	01070593          	addi	x11,x14,16
80006720:	00f507b3          	add	x15,x10,x15
80006724:	00c67813          	andi	x16,x12,12
80006728:	01078793          	addi	x15,x15,16
8000672c:	00058e13          	addi	x28,x11,0
80006730:	00f67693          	andi	x13,x12,15
80006734:	04080863          	beq	x16,x0,80006784 <memmove+0x120>
80006738:	ffc68693          	addi	x13,x13,-4
8000673c:	ffc6f693          	andi	x13,x13,-4
80006740:	00d70733          	add	x14,x14,x13
80006744:	01470713          	addi	x14,x14,20
80006748:	41150833          	sub	x16,x10,x17
8000674c:	0005a303          	lw	x6,0(x11)
80006750:	010588b3          	add	x17,x11,x16
80006754:	00458593          	addi	x11,x11,4
80006758:	0068a023          	sw	x6,0(x17)
8000675c:	fee598e3          	bne	x11,x14,8000674c <memmove+0xe8>
80006760:	00468713          	addi	x14,x13,4
80006764:	01c705b3          	add	x11,x14,x28
80006768:	00f707b3          	add	x15,x14,x15
8000676c:	00367613          	andi	x12,x12,3
80006770:	f2dff06f          	jal	x0,8000669c <memmove+0x38>
80006774:	fff60693          	addi	x13,x12,-1
80006778:	00050793          	addi	x15,x10,0
8000677c:	f29ff06f          	jal	x0,800066a4 <memmove+0x40>
80006780:	00008067          	jalr	x0,0(x1)
80006784:	00068613          	addi	x12,x13,0
80006788:	f15ff06f          	jal	x0,8000669c <memmove+0x38>

8000678c <memset>:
8000678c:	00f00313          	addi	x6,x0,15
80006790:	00050713          	addi	x14,x10,0
80006794:	02c37e63          	bgeu	x6,x12,800067d0 <memset+0x44>
80006798:	00f77793          	andi	x15,x14,15
8000679c:	0a079063          	bne	x15,x0,8000683c <memset+0xb0>
800067a0:	08059263          	bne	x11,x0,80006824 <memset+0x98>
800067a4:	ff067693          	andi	x13,x12,-16
800067a8:	00f67613          	andi	x12,x12,15
800067ac:	00e686b3          	add	x13,x13,x14
800067b0:	00b72023          	sw	x11,0(x14)
800067b4:	00b72223          	sw	x11,4(x14)
800067b8:	00b72423          	sw	x11,8(x14)
800067bc:	00b72623          	sw	x11,12(x14)
800067c0:	01070713          	addi	x14,x14,16
800067c4:	fed766e3          	bltu	x14,x13,800067b0 <memset+0x24>
800067c8:	00061463          	bne	x12,x0,800067d0 <memset+0x44>
800067cc:	00008067          	jalr	x0,0(x1)
800067d0:	40c306b3          	sub	x13,x6,x12
800067d4:	00269693          	slli	x13,x13,0x2
800067d8:	00000297          	auipc	x5,0x0
800067dc:	005686b3          	add	x13,x13,x5
800067e0:	00c68067          	jalr	x0,12(x13)
800067e4:	00b70723          	sb	x11,14(x14)
800067e8:	00b706a3          	sb	x11,13(x14)
800067ec:	00b70623          	sb	x11,12(x14)
800067f0:	00b705a3          	sb	x11,11(x14)
800067f4:	00b70523          	sb	x11,10(x14)
800067f8:	00b704a3          	sb	x11,9(x14)
800067fc:	00b70423          	sb	x11,8(x14)
80006800:	00b703a3          	sb	x11,7(x14)
80006804:	00b70323          	sb	x11,6(x14)
80006808:	00b702a3          	sb	x11,5(x14)
8000680c:	00b70223          	sb	x11,4(x14)
80006810:	00b701a3          	sb	x11,3(x14)
80006814:	00b70123          	sb	x11,2(x14)
80006818:	00b700a3          	sb	x11,1(x14)
8000681c:	00b70023          	sb	x11,0(x14)
80006820:	00008067          	jalr	x0,0(x1)
80006824:	0ff5f593          	andi	x11,x11,255
80006828:	00859693          	slli	x13,x11,0x8
8000682c:	00d5e5b3          	or	x11,x11,x13
80006830:	01059693          	slli	x13,x11,0x10
80006834:	00d5e5b3          	or	x11,x11,x13
80006838:	f6dff06f          	jal	x0,800067a4 <memset+0x18>
8000683c:	00279693          	slli	x13,x15,0x2
80006840:	00000297          	auipc	x5,0x0
80006844:	005686b3          	add	x13,x13,x5
80006848:	00008293          	addi	x5,x1,0
8000684c:	fa0680e7          	jalr	x1,-96(x13)
80006850:	00028093          	addi	x1,x5,0 # 80006840 <memset+0xb4>
80006854:	ff078793          	addi	x15,x15,-16
80006858:	40f70733          	sub	x14,x14,x15
8000685c:	00f60633          	add	x12,x12,x15
80006860:	f6c378e3          	bgeu	x6,x12,800067d0 <memset+0x44>
80006864:	f3dff06f          	jal	x0,800067a0 <memset+0x14>

80006868 <memcpy>:
80006868:	00a5c7b3          	xor	x15,x11,x10
8000686c:	0037f793          	andi	x15,x15,3
80006870:	00c508b3          	add	x17,x10,x12
80006874:	06079663          	bne	x15,x0,800068e0 <memcpy+0x78>
80006878:	00463613          	sltiu	x12,x12,4
8000687c:	06061263          	bne	x12,x0,800068e0 <memcpy+0x78>
80006880:	00357793          	andi	x15,x10,3
80006884:	00050713          	addi	x14,x10,0
80006888:	0c079a63          	bne	x15,x0,8000695c <memcpy+0xf4>
8000688c:	ffc8f613          	andi	x12,x17,-4
80006890:	40e606b3          	sub	x13,x12,x14
80006894:	02000793          	addi	x15,x0,32
80006898:	06d7c463          	blt	x15,x13,80006900 <memcpy+0x98>
8000689c:	00058693          	addi	x13,x11,0
800068a0:	00070793          	addi	x15,x14,0
800068a4:	02c77a63          	bgeu	x14,x12,800068d8 <memcpy+0x70>
800068a8:	0006a803          	lw	x16,0(x13)
800068ac:	00478793          	addi	x15,x15,4
800068b0:	00468693          	addi	x13,x13,4
800068b4:	ff07ae23          	sw	x16,-4(x15)
800068b8:	fec7e8e3          	bltu	x15,x12,800068a8 <memcpy+0x40>
800068bc:	fff60613          	addi	x12,x12,-1
800068c0:	40e60633          	sub	x12,x12,x14
800068c4:	ffc67613          	andi	x12,x12,-4
800068c8:	00458593          	addi	x11,x11,4
800068cc:	00470713          	addi	x14,x14,4
800068d0:	00c585b3          	add	x11,x11,x12
800068d4:	00c70733          	add	x14,x14,x12
800068d8:	01176863          	bltu	x14,x17,800068e8 <memcpy+0x80>
800068dc:	00008067          	jalr	x0,0(x1)
800068e0:	00050713          	addi	x14,x10,0
800068e4:	ff157ce3          	bgeu	x10,x17,800068dc <memcpy+0x74>
800068e8:	0005c783          	lbu	x15,0(x11)
800068ec:	00170713          	addi	x14,x14,1
800068f0:	00158593          	addi	x11,x11,1
800068f4:	fef70fa3          	sb	x15,-1(x14)
800068f8:	fee898e3          	bne	x17,x14,800068e8 <memcpy+0x80>
800068fc:	00008067          	jalr	x0,0(x1)
80006900:	0005a683          	lw	x13,0(x11)
80006904:	0045a283          	lw	x5,4(x11)
80006908:	0085af83          	lw	x31,8(x11)
8000690c:	00c5af03          	lw	x30,12(x11)
80006910:	0105ae83          	lw	x29,16(x11)
80006914:	0145ae03          	lw	x28,20(x11)
80006918:	0185a303          	lw	x6,24(x11)
8000691c:	01c5a803          	lw	x16,28(x11)
80006920:	00d72023          	sw	x13,0(x14)
80006924:	0205a683          	lw	x13,32(x11)
80006928:	02470713          	addi	x14,x14,36
8000692c:	fe572023          	sw	x5,-32(x14)
80006930:	fed72e23          	sw	x13,-4(x14)
80006934:	fff72223          	sw	x31,-28(x14)
80006938:	40e606b3          	sub	x13,x12,x14
8000693c:	ffe72423          	sw	x30,-24(x14)
80006940:	ffd72623          	sw	x29,-20(x14)
80006944:	ffc72823          	sw	x28,-16(x14)
80006948:	fe672a23          	sw	x6,-12(x14)
8000694c:	ff072c23          	sw	x16,-8(x14)
80006950:	02458593          	addi	x11,x11,36
80006954:	fad7c6e3          	blt	x15,x13,80006900 <memcpy+0x98>
80006958:	f45ff06f          	jal	x0,8000689c <memcpy+0x34>
8000695c:	0005c683          	lbu	x13,0(x11)
80006960:	00170713          	addi	x14,x14,1
80006964:	00377793          	andi	x15,x14,3
80006968:	fed70fa3          	sb	x13,-1(x14)
8000696c:	00158593          	addi	x11,x11,1
80006970:	f0078ee3          	beq	x15,x0,8000688c <memcpy+0x24>
80006974:	0005c683          	lbu	x13,0(x11)
80006978:	00170713          	addi	x14,x14,1
8000697c:	00377793          	andi	x15,x14,3
80006980:	fed70fa3          	sb	x13,-1(x14)
80006984:	00158593          	addi	x11,x11,1
80006988:	fc079ae3          	bne	x15,x0,8000695c <memcpy+0xf4>
8000698c:	f01ff06f          	jal	x0,8000688c <memcpy+0x24>

80006990 <frexpl>:
80006990:	00c5a703          	lw	x14,12(x11)
80006994:	f9010113          	addi	x2,x2,-112
80006998:	0005a883          	lw	x17,0(x11)
8000699c:	0045a803          	lw	x16,4(x11)
800069a0:	0085a683          	lw	x13,8(x11)
800069a4:	06912223          	sw	x9,100(x2)
800069a8:	000084b7          	lui	x9,0x8
800069ac:	06812423          	sw	x8,104(x2)
800069b0:	06112623          	sw	x1,108(x2)
800069b4:	01075793          	srli	x15,x14,0x10
800069b8:	fff48493          	addi	x9,x9,-1 # 7fff <_start-0x7fff8001>
800069bc:	00062023          	sw	x0,0(x12)
800069c0:	04e12e23          	sw	x14,92(x2)
800069c4:	0097f7b3          	and	x15,x15,x9
800069c8:	05112823          	sw	x17,80(x2)
800069cc:	05012a23          	sw	x16,84(x2)
800069d0:	04d12c23          	sw	x13,88(x2)
800069d4:	00050413          	addi	x8,x10,0
800069d8:	10978463          	beq	x15,x9,80006ae0 <frexpl+0x150>
800069dc:	04010513          	addi	x10,x2,64
800069e0:	03010593          	addi	x11,x2,48
800069e4:	07212023          	sw	x18,96(x2)
800069e8:	05112023          	sw	x17,64(x2)
800069ec:	01112c23          	sw	x17,24(x2)
800069f0:	05012223          	sw	x16,68(x2)
800069f4:	01012a23          	sw	x16,20(x2)
800069f8:	04d12423          	sw	x13,72(x2)
800069fc:	00d12823          	sw	x13,16(x2)
80006a00:	04e12623          	sw	x14,76(x2)
80006a04:	00e12623          	sw	x14,12(x2)
80006a08:	00060913          	addi	x18,x12,0
80006a0c:	02012823          	sw	x0,48(x2)
80006a10:	02012a23          	sw	x0,52(x2)
80006a14:	02012c23          	sw	x0,56(x2)
80006a18:	02012e23          	sw	x0,60(x2)
80006a1c:	00f12e23          	sw	x15,28(x2)
80006a20:	709070ef          	jal	x1,8000e928 <__eqtf2>
80006a24:	00c12703          	lw	x14,12(x2)
80006a28:	01012683          	lw	x13,16(x2)
80006a2c:	01412803          	lw	x16,20(x2)
80006a30:	01812883          	lw	x17,24(x2)
80006a34:	0c050a63          	beq	x10,x0,80006b08 <frexpl+0x178>
80006a38:	01c12783          	lw	x15,28(x2)
80006a3c:	00000593          	addi	x11,x0,0
80006a40:	06079263          	bne	x15,x0,80006aa4 <frexpl+0x114>
80006a44:	407107b7          	lui	x15,0x40710
80006a48:	03010593          	addi	x11,x2,48
80006a4c:	02010613          	addi	x12,x2,32
80006a50:	04010513          	addi	x10,x2,64
80006a54:	02d12c23          	sw	x13,56(x2)
80006a58:	02e12e23          	sw	x14,60(x2)
80006a5c:	02f12623          	sw	x15,44(x2)
80006a60:	03112823          	sw	x17,48(x2)
80006a64:	03012a23          	sw	x16,52(x2)
80006a68:	02012023          	sw	x0,32(x2)
80006a6c:	02012223          	sw	x0,36(x2)
80006a70:	02012423          	sw	x0,40(x2)
80006a74:	20c080ef          	jal	x1,8000ec80 <__multf3>
80006a78:	04c12703          	lw	x14,76(x2)
80006a7c:	04012583          	lw	x11,64(x2)
80006a80:	04412603          	lw	x12,68(x2)
80006a84:	04812683          	lw	x13,72(x2)
80006a88:	01075793          	srli	x15,x14,0x10
80006a8c:	04b12823          	sw	x11,80(x2)
80006a90:	04c12a23          	sw	x12,84(x2)
80006a94:	04d12c23          	sw	x13,88(x2)
80006a98:	04e12e23          	sw	x14,92(x2)
80006a9c:	0097f7b3          	and	x15,x15,x9
80006aa0:	f8e00593          	addi	x11,x0,-114
80006aa4:	ffffc6b7          	lui	x13,0xffffc
80006aa8:	00268693          	addi	x13,x13,2 # ffffc002 <_stack_top+0x77ffc002>
80006aac:	05c12703          	lw	x14,92(x2)
80006ab0:	00d787b3          	add	x15,x15,x13
80006ab4:	80010637          	lui	x12,0x80010
80006ab8:	00b787b3          	add	x15,x15,x11
80006abc:	fff60613          	addi	x12,x12,-1 # 8000ffff <__subtf3+0x43f>
80006ac0:	00f92023          	sw	x15,0(x18)
80006ac4:	05012883          	lw	x17,80(x2)
80006ac8:	05412803          	lw	x16,84(x2)
80006acc:	05812683          	lw	x13,88(x2)
80006ad0:	06012903          	lw	x18,96(x2)
80006ad4:	00c77733          	and	x14,x14,x12
80006ad8:	3ffe0637          	lui	x12,0x3ffe0
80006adc:	00c76733          	or	x14,x14,x12
80006ae0:	06c12083          	lw	x1,108(x2)
80006ae4:	01142023          	sw	x17,0(x8)
80006ae8:	01042223          	sw	x16,4(x8)
80006aec:	00d42423          	sw	x13,8(x8)
80006af0:	00e42623          	sw	x14,12(x8)
80006af4:	00040513          	addi	x10,x8,0
80006af8:	06812403          	lw	x8,104(x2)
80006afc:	06412483          	lw	x9,100(x2)
80006b00:	07010113          	addi	x2,x2,112
80006b04:	00008067          	jalr	x0,0(x1)
80006b08:	06012903          	lw	x18,96(x2)
80006b0c:	fd5ff06f          	jal	x0,80006ae0 <frexpl+0x150>

80006b10 <_ldtoa_r>:
80006b10:	b9418893          	addi	x17,x3,-1132 # 80011864 <blanks.1+0x10>
80006b14:	0088a303          	lw	x6,8(x17)
80006b18:	f5010113          	addi	x2,x2,-176
80006b1c:	0008ae83          	lw	x29,0(x17)
80006b20:	0048ae03          	lw	x28,4(x17)
80006b24:	06612223          	sw	x6,100(x2)
80006b28:	00c8a303          	lw	x6,12(x17)
80006b2c:	0108a883          	lw	x17,16(x17)
80006b30:	0a812423          	sw	x8,168(x2)
80006b34:	0a912223          	sw	x9,164(x2)
80006b38:	07112623          	sw	x17,108(x2)
80006b3c:	03852883          	lw	x17,56(x10)
80006b40:	0b212023          	sw	x18,160(x2)
80006b44:	09312e23          	sw	x19,156(x2)
80006b48:	09412c23          	sw	x20,152(x2)
80006b4c:	09512a23          	sw	x21,148(x2)
80006b50:	09612823          	sw	x22,144(x2)
80006b54:	09a12023          	sw	x26,128(x2)
80006b58:	07b12e23          	sw	x27,124(x2)
80006b5c:	0a112623          	sw	x1,172(x2)
80006b60:	09712623          	sw	x23,140(x2)
80006b64:	09812423          	sw	x24,136(x2)
80006b68:	09912223          	sw	x25,132(x2)
80006b6c:	05d12e23          	sw	x29,92(x2)
80006b70:	07c12023          	sw	x28,96(x2)
80006b74:	06612423          	sw	x6,104(x2)
80006b78:	01012e23          	sw	x16,28(x2)
80006b7c:	0005a983          	lw	x19,0(x11)
80006b80:	0045a903          	lw	x18,4(x11)
80006b84:	0085a483          	lw	x9,8(x11)
80006b88:	00c5aa03          	lw	x20,12(x11)
80006b8c:	00050a93          	addi	x21,x10,0
80006b90:	00060d13          	addi	x26,x12,0 # 3ffe0000 <_start-0x40020000>
80006b94:	00068d93          	addi	x27,x13,0
80006b98:	00070b13          	addi	x22,x14,0
80006b9c:	00078413          	addi	x8,x15,0 # 40710000 <_start-0x3f8f0000>
80006ba0:	00088863          	beq	x17,x0,80006bb0 <_ldtoa_r+0xa0>
80006ba4:	00088593          	addi	x11,x17,0
80006ba8:	074020ef          	jal	x1,80008c1c <__freedtoa>
80006bac:	020aac23          	sw	x0,56(x21)
80006bb0:	06812703          	lw	x14,104(x2)
80006bb4:	01fa5693          	srli	x13,x20,0x1f
80006bb8:	00d42023          	sw	x13,0(x8)
80006bbc:	40175793          	srai	x15,x14,0x1
80006bc0:	00d7f7b3          	and	x15,x15,x13
80006bc4:	00e7c7b3          	xor	x15,x15,x14
80006bc8:	06f12423          	sw	x15,104(x2)
80006bcc:	001a1413          	slli	x8,x20,0x1
80006bd0:	010a1b93          	slli	x23,x20,0x10
80006bd4:	ffffc7b7          	lui	x15,0xffffc
80006bd8:	001a1713          	slli	x14,x20,0x1
80006bdc:	00145413          	srli	x8,x8,0x1
80006be0:	010bdb93          	srli	x23,x23,0x10
80006be4:	f9178793          	addi	x15,x15,-111 # ffffbf91 <_stack_top+0x77ffbf91>
80006be8:	01175c13          	srli	x24,x14,0x11
80006bec:	03010513          	addi	x10,x2,48
80006bf0:	02010593          	addi	x11,x2,32
80006bf4:	03312823          	sw	x19,48(x2)
80006bf8:	03212a23          	sw	x18,52(x2)
80006bfc:	02912c23          	sw	x9,56(x2)
80006c00:	03312023          	sw	x19,32(x2)
80006c04:	03212223          	sw	x18,36(x2)
80006c08:	02912423          	sw	x9,40(x2)
80006c0c:	02812e23          	sw	x8,60(x2)
80006c10:	02812623          	sw	x8,44(x2)
80006c14:	05312623          	sw	x19,76(x2)
80006c18:	05212823          	sw	x18,80(x2)
80006c1c:	04912a23          	sw	x9,84(x2)
80006c20:	00fc0cb3          	add	x25,x24,x15
80006c24:	05712c23          	sw	x23,88(x2)
80006c28:	2b00a0ef          	jal	x1,80010ed8 <__unordtf2>
80006c2c:	16051063          	bne	x10,x0,80006d8c <_ldtoa_r+0x27c>
80006c30:	7fff0737          	lui	x14,0x7fff0
80006c34:	fff00793          	addi	x15,x0,-1
80006c38:	fff70713          	addi	x14,x14,-1 # 7ffeffff <_start-0x10001>
80006c3c:	02010593          	addi	x11,x2,32
80006c40:	03010513          	addi	x10,x2,48
80006c44:	02e12623          	sw	x14,44(x2)
80006c48:	02f12023          	sw	x15,32(x2)
80006c4c:	02f12223          	sw	x15,36(x2)
80006c50:	02f12423          	sw	x15,40(x2)
80006c54:	2840a0ef          	jal	x1,80010ed8 <__unordtf2>
80006c58:	08051e63          	bne	x10,x0,80006cf4 <_ldtoa_r+0x1e4>
80006c5c:	02010593          	addi	x11,x2,32
80006c60:	03010513          	addi	x10,x2,48
80006c64:	6e9070ef          	jal	x1,8000eb4c <__letf2>
80006c68:	08a05663          	bge	x0,x10,80006cf4 <_ldtoa_r+0x1e4>
80006c6c:	00300793          	addi	x15,x0,3
80006c70:	04f12423          	sw	x15,72(x2)
80006c74:	01c12783          	lw	x15,28(x2)
80006c78:	04810713          	addi	x14,x2,72
80006c7c:	000d8813          	addi	x16,x27,0
80006c80:	00f12023          	sw	x15,0(x2)
80006c84:	000c8613          	addi	x12,x25,0
80006c88:	000d0793          	addi	x15,x26,0
80006c8c:	000a8513          	addi	x10,x21,0
80006c90:	000b0893          	addi	x17,x22,0
80006c94:	04c10693          	addi	x13,x2,76
80006c98:	05c10593          	addi	x11,x2,92
80006c9c:	1f4000ef          	jal	x1,80006e90 <__gdtoa>
80006ca0:	000b2703          	lw	x14,0(x22)
80006ca4:	ffff87b7          	lui	x15,0xffff8
80006ca8:	00f71863          	bne	x14,x15,80006cb8 <_ldtoa_r+0x1a8>
80006cac:	800007b7          	lui	x15,0x80000
80006cb0:	fff78793          	addi	x15,x15,-1 # 7fffffff <_start-0x1>
80006cb4:	00fb2023          	sw	x15,0(x22)
80006cb8:	0ac12083          	lw	x1,172(x2)
80006cbc:	0a812403          	lw	x8,168(x2)
80006cc0:	0a412483          	lw	x9,164(x2)
80006cc4:	0a012903          	lw	x18,160(x2)
80006cc8:	09c12983          	lw	x19,156(x2)
80006ccc:	09812a03          	lw	x20,152(x2)
80006cd0:	09412a83          	lw	x21,148(x2)
80006cd4:	09012b03          	lw	x22,144(x2)
80006cd8:	08c12b83          	lw	x23,140(x2)
80006cdc:	08812c03          	lw	x24,136(x2)
80006ce0:	08412c83          	lw	x25,132(x2)
80006ce4:	08012d03          	lw	x26,128(x2)
80006ce8:	07c12d83          	lw	x27,124(x2)
80006cec:	0b010113          	addi	x2,x2,176
80006cf0:	00008067          	jalr	x0,0(x1)
80006cf4:	02812e23          	sw	x8,60(x2)
80006cf8:	02010593          	addi	x11,x2,32
80006cfc:	00010437          	lui	x8,0x10
80006d00:	03010513          	addi	x10,x2,48
80006d04:	03312823          	sw	x19,48(x2)
80006d08:	03212a23          	sw	x18,52(x2)
80006d0c:	02912c23          	sw	x9,56(x2)
80006d10:	02012023          	sw	x0,32(x2)
80006d14:	02012223          	sw	x0,36(x2)
80006d18:	02012423          	sw	x0,40(x2)
80006d1c:	02812623          	sw	x8,44(x2)
80006d20:	4f9070ef          	jal	x1,8000ea18 <__getf2>
80006d24:	00054c63          	blt	x10,x0,80006d3c <_ldtoa_r+0x22c>
80006d28:	008bebb3          	or	x23,x23,x8
80006d2c:	00100793          	addi	x15,x0,1
80006d30:	05712c23          	sw	x23,88(x2)
80006d34:	04f12423          	sw	x15,72(x2)
80006d38:	f3dff06f          	jal	x0,80006c74 <_ldtoa_r+0x164>
80006d3c:	02010593          	addi	x11,x2,32
80006d40:	03010513          	addi	x10,x2,48
80006d44:	03312823          	sw	x19,48(x2)
80006d48:	03212a23          	sw	x18,52(x2)
80006d4c:	02912c23          	sw	x9,56(x2)
80006d50:	03412e23          	sw	x20,60(x2)
80006d54:	02012023          	sw	x0,32(x2)
80006d58:	02012223          	sw	x0,36(x2)
80006d5c:	02012423          	sw	x0,40(x2)
80006d60:	02012623          	sw	x0,44(x2)
80006d64:	3c5070ef          	jal	x1,8000e928 <__eqtf2>
80006d68:	00051663          	bne	x10,x0,80006d74 <_ldtoa_r+0x264>
80006d6c:	04012423          	sw	x0,72(x2)
80006d70:	f05ff06f          	jal	x0,80006c74 <_ldtoa_r+0x164>
80006d74:	ffffc7b7          	lui	x15,0xffffc
80006d78:	f9278793          	addi	x15,x15,-110 # ffffbf92 <_stack_top+0x77ffbf92>
80006d7c:	00200713          	addi	x14,x0,2
80006d80:	00fc0cb3          	add	x25,x24,x15
80006d84:	04e12423          	sw	x14,72(x2)
80006d88:	eedff06f          	jal	x0,80006c74 <_ldtoa_r+0x164>
80006d8c:	00400793          	addi	x15,x0,4
80006d90:	04f12423          	sw	x15,72(x2)
80006d94:	ee1ff06f          	jal	x0,80006c74 <_ldtoa_r+0x164>

80006d98 <_ldcheck>:
80006d98:	fc010113          	addi	x2,x2,-64
80006d9c:	02812c23          	sw	x8,56(x2)
80006da0:	00c52403          	lw	x8,12(x10)
80006da4:	03212823          	sw	x18,48(x2)
80006da8:	03312623          	sw	x19,44(x2)
80006dac:	00852903          	lw	x18,8(x10)
80006db0:	00452983          	lw	x19,4(x10)
80006db4:	03412423          	sw	x20,40(x2)
80006db8:	00052a03          	lw	x20,0(x10)
80006dbc:	00141413          	slli	x8,x8,0x1
80006dc0:	00145413          	srli	x8,x8,0x1
80006dc4:	01010513          	addi	x10,x2,16
80006dc8:	00010593          	addi	x11,x2,0
80006dcc:	02112e23          	sw	x1,60(x2)
80006dd0:	00812e23          	sw	x8,28(x2)
80006dd4:	00812623          	sw	x8,12(x2)
80006dd8:	01412823          	sw	x20,16(x2)
80006ddc:	01412023          	sw	x20,0(x2)
80006de0:	01312a23          	sw	x19,20(x2)
80006de4:	01312223          	sw	x19,4(x2)
80006de8:	01212c23          	sw	x18,24(x2)
80006dec:	01212423          	sw	x18,8(x2)
80006df0:	0e80a0ef          	jal	x1,80010ed8 <__unordtf2>
80006df4:	06051e63          	bne	x10,x0,80006e70 <_ldcheck+0xd8>
80006df8:	7fff0737          	lui	x14,0x7fff0
80006dfc:	fff00793          	addi	x15,x0,-1
80006e00:	fff70713          	addi	x14,x14,-1 # 7ffeffff <_start-0x10001>
80006e04:	00010593          	addi	x11,x2,0
80006e08:	01010513          	addi	x10,x2,16
80006e0c:	02912a23          	sw	x9,52(x2)
80006e10:	00e12623          	sw	x14,12(x2)
80006e14:	00f12023          	sw	x15,0(x2)
80006e18:	00f12223          	sw	x15,4(x2)
80006e1c:	00f12423          	sw	x15,8(x2)
80006e20:	00100493          	addi	x9,x0,1
80006e24:	0b40a0ef          	jal	x1,80010ed8 <__unordtf2>
80006e28:	02050863          	beq	x10,x0,80006e58 <_ldcheck+0xc0>
80006e2c:	03c12083          	lw	x1,60(x2)
80006e30:	03812403          	lw	x8,56(x2)
80006e34:	0014c513          	xori	x10,x9,1
80006e38:	0ff57513          	andi	x10,x10,255
80006e3c:	03412483          	lw	x9,52(x2)
80006e40:	03012903          	lw	x18,48(x2)
80006e44:	02c12983          	lw	x19,44(x2)
80006e48:	02812a03          	lw	x20,40(x2)
80006e4c:	00151513          	slli	x10,x10,0x1
80006e50:	04010113          	addi	x2,x2,64
80006e54:	00008067          	jalr	x0,0(x1)
80006e58:	00010593          	addi	x11,x2,0
80006e5c:	01010513          	addi	x10,x2,16
80006e60:	4ed070ef          	jal	x1,8000eb4c <__letf2>
80006e64:	fca054e3          	bge	x0,x10,80006e2c <_ldcheck+0x94>
80006e68:	00000493          	addi	x9,x0,0
80006e6c:	fc1ff06f          	jal	x0,80006e2c <_ldcheck+0x94>
80006e70:	03c12083          	lw	x1,60(x2)
80006e74:	03812403          	lw	x8,56(x2)
80006e78:	03012903          	lw	x18,48(x2)
80006e7c:	02c12983          	lw	x19,44(x2)
80006e80:	02812a03          	lw	x20,40(x2)
80006e84:	00100513          	addi	x10,x0,1
80006e88:	04010113          	addi	x2,x2,64
80006e8c:	00008067          	jalr	x0,0(x1)

80006e90 <__gdtoa>:
80006e90:	f3010113          	addi	x2,x2,-208
80006e94:	0b312e23          	sw	x19,188(x2)
80006e98:	00072983          	lw	x19,0(x14)
80006e9c:	0b912223          	sw	x25,164(x2)
80006ea0:	0c112623          	sw	x1,204(x2)
80006ea4:	fcf9f313          	andi	x6,x19,-49
80006ea8:	00672023          	sw	x6,0(x14)
80006eac:	00300e13          	addi	x28,x0,3
80006eb0:	00f9f313          	andi	x6,x19,15
80006eb4:	00f12023          	sw	x15,0(x2)
80006eb8:	01012423          	sw	x16,8(x2)
80006ebc:	0d012c83          	lw	x25,208(x2)
80006ec0:	39c30c63          	beq	x6,x28,80007258 <__gdtoa+0x3c8>
80006ec4:	0ba12023          	sw	x26,160(x2)
80006ec8:	00c9f813          	andi	x16,x19,12
80006ecc:	00080d13          	addi	x26,x16,0
80006ed0:	2c081863          	bne	x16,x0,800071a0 <__gdtoa+0x310>
80006ed4:	09b12e23          	sw	x27,156(x2)
80006ed8:	01112e23          	sw	x17,28(x2)
80006edc:	00d12a23          	sw	x13,20(x2)
80006ee0:	02c12023          	sw	x12,32(x2)
80006ee4:	02b12623          	sw	x11,44(x2)
80006ee8:	02e12423          	sw	x14,40(x2)
80006eec:	00050d93          	addi	x27,x10,0
80006ef0:	32030463          	beq	x6,x0,80007218 <__gdtoa+0x388>
80006ef4:	0d212023          	sw	x18,192(x2)
80006ef8:	0005a903          	lw	x18,0(x11)
80006efc:	0c812423          	sw	x8,200(x2)
80006f00:	02000793          	addi	x15,x0,32
80006f04:	00000593          	addi	x11,x0,0
80006f08:	0127d863          	bge	x15,x18,80006f18 <__gdtoa+0x88>
80006f0c:	00179793          	slli	x15,x15,0x1
80006f10:	00158593          	addi	x11,x11,1
80006f14:	ff27cce3          	blt	x15,x18,80006f0c <__gdtoa+0x7c>
80006f18:	000d8513          	addi	x10,x27,0
80006f1c:	070020ef          	jal	x1,80008f8c <_Balloc>
80006f20:	00050413          	addi	x8,x10,0
80006f24:	2a050863          	beq	x10,x0,800071d4 <__gdtoa+0x344>
80006f28:	01412703          	lw	x14,20(x2)
80006f2c:	fff90793          	addi	x15,x18,-1
80006f30:	4057d793          	srai	x15,x15,0x5
80006f34:	00279793          	slli	x15,x15,0x2
80006f38:	0c912223          	sw	x9,196(x2)
80006f3c:	00f705b3          	add	x11,x14,x15
80006f40:	01450693          	addi	x13,x10,20
80006f44:	00072603          	lw	x12,0(x14)
80006f48:	00470713          	addi	x14,x14,4
80006f4c:	00468693          	addi	x13,x13,4
80006f50:	fec6ae23          	sw	x12,-4(x13)
80006f54:	fee5f8e3          	bgeu	x11,x14,80006f44 <__gdtoa+0xb4>
80006f58:	01412703          	lw	x14,20(x2)
80006f5c:	00158593          	addi	x11,x11,1
80006f60:	00170713          	addi	x14,x14,1
80006f64:	00e5b5b3          	sltu	x11,x11,x14
80006f68:	fff58593          	addi	x11,x11,-1
80006f6c:	00b7f7b3          	and	x15,x15,x11
80006f70:	00478793          	addi	x15,x15,4
80006f74:	4027d493          	srai	x9,x15,0x2
80006f78:	00f407b3          	add	x15,x8,x15
80006f7c:	00c0006f          	jal	x0,80006f88 <__gdtoa+0xf8>
80006f80:	ffc78793          	addi	x15,x15,-4
80006f84:	2e048e63          	beq	x9,x0,80007280 <__gdtoa+0x3f0>
80006f88:	0107a703          	lw	x14,16(x15)
80006f8c:	00048693          	addi	x13,x9,0
80006f90:	fff48493          	addi	x9,x9,-1
80006f94:	fe0706e3          	beq	x14,x0,80006f80 <__gdtoa+0xf0>
80006f98:	00249793          	slli	x15,x9,0x2
80006f9c:	00f407b3          	add	x15,x8,x15
80006fa0:	0147a503          	lw	x10,20(x15)
80006fa4:	00d42823          	sw	x13,16(x8) # 10010 <_start-0x7ffefff0>
80006fa8:	00d12c23          	sw	x13,24(x2)
80006fac:	338020ef          	jal	x1,800092e4 <__hi0bits>
80006fb0:	01812683          	lw	x13,24(x2)
80006fb4:	00569693          	slli	x13,x13,0x5
80006fb8:	40a684b3          	sub	x9,x13,x10
80006fbc:	00040513          	addi	x10,x8,0
80006fc0:	761010ef          	jal	x1,80008f20 <__trailz_D2A>
80006fc4:	02012783          	lw	x15,32(x2)
80006fc8:	08a12623          	sw	x10,140(x2)
80006fcc:	02f12a23          	sw	x15,52(x2)
80006fd0:	6a051663          	bne	x10,x0,8000767c <__gdtoa+0x7ec>
80006fd4:	01042783          	lw	x15,16(x8)
80006fd8:	22078463          	beq	x15,x0,80007200 <__gdtoa+0x370>
80006fdc:	08c10593          	addi	x11,x2,140
80006fe0:	00040513          	addi	x10,x8,0
80006fe4:	0b512a23          	sw	x21,180(x2)
80006fe8:	0b612823          	sw	x22,176(x2)
80006fec:	0b712623          	sw	x23,172(x2)
80006ff0:	0b812423          	sw	x24,168(x2)
80006ff4:	0b412c23          	sw	x20,184(x2)
80006ff8:	561020ef          	jal	x1,80009d58 <__b2d>
80006ffc:	00c59793          	slli	x15,x11,0xc
80007000:	00c7d793          	srli	x15,x15,0xc
80007004:	3ff00737          	lui	x14,0x3ff00
80007008:	00e7e733          	or	x14,x15,x14
8000700c:	03412803          	lw	x16,52(x2)
80007010:	fa01a603          	lw	x12,-96(x3) # 80011c70 <_end_text+0x4>
80007014:	fa41a683          	lw	x13,-92(x3) # 80011c74 <_end_text+0x8>
80007018:	00980833          	add	x16,x16,x9
8000701c:	00050893          	addi	x17,x10,0
80007020:	00070593          	addi	x11,x14,0 # 3ff00000 <_start-0x40100000>
80007024:	fff80b93          	addi	x23,x16,-1
80007028:	02e12223          	sw	x14,36(x2)
8000702c:	00080c13          	addi	x24,x16,0
80007030:	05112823          	sw	x17,80(x2)
80007034:	04a12023          	sw	x10,64(x2)
80007038:	074070ef          	jal	x1,8000e0ac <__subdf3>
8000703c:	fa81a603          	lw	x12,-88(x3) # 80011c78 <_end_text+0xc>
80007040:	fac1a683          	lw	x13,-84(x3) # 80011c7c <_end_text+0x10>
80007044:	281060ef          	jal	x1,8000dac4 <__muldf3>
80007048:	fb01a603          	lw	x12,-80(x3) # 80011c80 <_end_text+0x14>
8000704c:	fb41a683          	lw	x13,-76(x3) # 80011c84 <_end_text+0x18>
80007050:	241050ef          	jal	x1,8000ca90 <__adddf3>
80007054:	00050a93          	addi	x21,x10,0
80007058:	000b8513          	addi	x10,x23,0
8000705c:	00058b13          	addi	x22,x11,0
80007060:	029070ef          	jal	x1,8000e888 <__floatsidf>
80007064:	fb81a603          	lw	x12,-72(x3) # 80011c88 <_end_text+0x1c>
80007068:	fbc1a683          	lw	x13,-68(x3) # 80011c8c <_end_text+0x20>
8000706c:	259060ef          	jal	x1,8000dac4 <__muldf3>
80007070:	00050613          	addi	x12,x10,0
80007074:	00058693          	addi	x13,x11,0
80007078:	000a8513          	addi	x10,x21,0
8000707c:	000b0593          	addi	x11,x22,0
80007080:	211050ef          	jal	x1,8000ca90 <__adddf3>
80007084:	00050a93          	addi	x21,x10,0
80007088:	00058b13          	addi	x22,x11,0
8000708c:	000b8513          	addi	x10,x23,0
80007090:	000bd663          	bge	x23,x0,8000709c <__gdtoa+0x20c>
80007094:	00100513          	addi	x10,x0,1
80007098:	41850533          	sub	x10,x10,x24
8000709c:	bcb50513          	addi	x10,x10,-1077
800070a0:	02a05863          	bge	x0,x10,800070d0 <__gdtoa+0x240>
800070a4:	7e4070ef          	jal	x1,8000e888 <__floatsidf>
800070a8:	fc01a603          	lw	x12,-64(x3) # 80011c90 <_end_text+0x24>
800070ac:	fc41a683          	lw	x13,-60(x3) # 80011c94 <_end_text+0x28>
800070b0:	215060ef          	jal	x1,8000dac4 <__muldf3>
800070b4:	00050613          	addi	x12,x10,0
800070b8:	00058693          	addi	x13,x11,0
800070bc:	000a8513          	addi	x10,x21,0
800070c0:	000b0593          	addi	x11,x22,0
800070c4:	1cd050ef          	jal	x1,8000ca90 <__adddf3>
800070c8:	00050a93          	addi	x21,x10,0
800070cc:	00058b13          	addi	x22,x11,0
800070d0:	000b0593          	addi	x11,x22,0
800070d4:	000a8513          	addi	x10,x21,0
800070d8:	734070ef          	jal	x1,8000e80c <__fixdfsi>
800070dc:	000b0a13          	addi	x20,x22,0
800070e0:	000a0593          	addi	x11,x20,0
800070e4:	00050b13          	addi	x22,x10,0
800070e8:	00000613          	addi	x12,x0,0
800070ec:	000a8513          	addi	x10,x21,0
800070f0:	00000693          	addi	x13,x0,0
800070f4:	01612c23          	sw	x22,24(x2)
800070f8:	0f5060ef          	jal	x1,8000d9ec <__ledf2>
800070fc:	02055263          	bge	x10,x0,80007120 <__gdtoa+0x290>
80007100:	000b0513          	addi	x10,x22,0
80007104:	784070ef          	jal	x1,8000e888 <__floatsidf>
80007108:	000a8613          	addi	x12,x21,0
8000710c:	000a0693          	addi	x13,x20,0
80007110:	780060ef          	jal	x1,8000d890 <__eqdf2>
80007114:	00a03533          	sltu	x10,x0,x10
80007118:	40ab07b3          	sub	x15,x22,x10
8000711c:	00f12c23          	sw	x15,24(x2)
80007120:	02412703          	lw	x14,36(x2)
80007124:	014b9793          	slli	x15,x23,0x14
80007128:	00e78a33          	add	x20,x15,x14
8000712c:	41748733          	sub	x14,x9,x23
80007130:	fff70693          	addi	x13,x14,-1
80007134:	02d12823          	sw	x13,48(x2)
80007138:	01812683          	lw	x13,24(x2)
8000713c:	01600793          	addi	x15,x0,22
80007140:	14d7e463          	bltu	x15,x13,80007288 <__gdtoa+0x3f8>
80007144:	01812783          	lw	x15,24(x2)
80007148:	c0818893          	addi	x17,x3,-1016 # 800118d8 <__mprec_tens>
8000714c:	00379793          	slli	x15,x15,0x3
80007150:	00f887b3          	add	x15,x17,x15
80007154:	04012603          	lw	x12,64(x2)
80007158:	0007a503          	lw	x10,0(x15)
8000715c:	0047a583          	lw	x11,4(x15)
80007160:	000a0693          	addi	x13,x20,0
80007164:	02e12223          	sw	x14,36(x2)
80007168:	7ac060ef          	jal	x1,8000d914 <__gedf2>
8000716c:	02412703          	lw	x14,36(x2)
80007170:	56a04063          	blt	x0,x10,800076d0 <__gdtoa+0x840>
80007174:	00e04463          	blt	x0,x14,8000717c <__gdtoa+0x2ec>
80007178:	0c00106f          	jal	x0,80008238 <__gdtoa+0x13a8>
8000717c:	03012783          	lw	x15,48(x2)
80007180:	01812703          	lw	x14,24(x2)
80007184:	04012623          	sw	x0,76(x2)
80007188:	02012c23          	sw	x0,56(x2)
8000718c:	00e787b3          	add	x15,x15,x14
80007190:	02f12823          	sw	x15,48(x2)
80007194:	04e12223          	sw	x14,68(x2)
80007198:	02012e23          	sw	x0,60(x2)
8000719c:	1240006f          	jal	x0,800072c0 <__gdtoa+0x430>
800071a0:	00400793          	addi	x15,x0,4
800071a4:	02f31e63          	bne	x6,x15,800071e0 <__gdtoa+0x350>
800071a8:	0a012d03          	lw	x26,160(x2)
800071ac:	0cc12083          	lw	x1,204(x2)
800071b0:	0bc12983          	lw	x19,188(x2)
800071b4:	ffff87b7          	lui	x15,0xffff8
800071b8:	000c8613          	addi	x12,x25,0
800071bc:	0a412c83          	lw	x25,164(x2)
800071c0:	00f8a023          	sw	x15,0(x17)
800071c4:	000e0693          	addi	x13,x28,0
800071c8:	8b018593          	addi	x11,x3,-1872 # 80011580 <__clz_tab+0x154>
800071cc:	0d010113          	addi	x2,x2,208
800071d0:	1990106f          	jal	x0,80008b68 <__nrv_alloc_D2A>
800071d4:	0c812403          	lw	x8,200(x2)
800071d8:	0c012903          	lw	x18,192(x2)
800071dc:	09c12d83          	lw	x27,156(x2)
800071e0:	00000793          	addi	x15,x0,0
800071e4:	0cc12083          	lw	x1,204(x2)
800071e8:	0a012d03          	lw	x26,160(x2)
800071ec:	0bc12983          	lw	x19,188(x2)
800071f0:	0a412c83          	lw	x25,164(x2)
800071f4:	00078513          	addi	x10,x15,0 # ffff8000 <_stack_top+0x77ff8000>
800071f8:	0d010113          	addi	x2,x2,208
800071fc:	00008067          	jalr	x0,0(x1)
80007200:	00040593          	addi	x11,x8,0
80007204:	000d8513          	addi	x10,x27,0
80007208:	631010ef          	jal	x1,80009038 <_Bfree>
8000720c:	0c812403          	lw	x8,200(x2)
80007210:	0c412483          	lw	x9,196(x2)
80007214:	0c012903          	lw	x18,192(x2)
80007218:	01c12783          	lw	x15,28(x2)
8000721c:	00100693          	addi	x13,x0,1
80007220:	000c8613          	addi	x12,x25,0
80007224:	000d8513          	addi	x10,x27,0
80007228:	00d7a023          	sw	x13,0(x15)
8000722c:	8a018593          	addi	x11,x3,-1888 # 80011570 <__clz_tab+0x144>
80007230:	139010ef          	jal	x1,80008b68 <__nrv_alloc_D2A>
80007234:	0cc12083          	lw	x1,204(x2)
80007238:	00050793          	addi	x15,x10,0
8000723c:	09c12d83          	lw	x27,156(x2)
80007240:	0a012d03          	lw	x26,160(x2)
80007244:	0bc12983          	lw	x19,188(x2)
80007248:	0a412c83          	lw	x25,164(x2)
8000724c:	00078513          	addi	x10,x15,0
80007250:	0d010113          	addi	x2,x2,208
80007254:	00008067          	jalr	x0,0(x1)
80007258:	0cc12083          	lw	x1,204(x2)
8000725c:	0bc12983          	lw	x19,188(x2)
80007260:	ffff87b7          	lui	x15,0xffff8
80007264:	000c8613          	addi	x12,x25,0
80007268:	0a412c83          	lw	x25,164(x2)
8000726c:	00f8a023          	sw	x15,0(x17)
80007270:	8a418593          	addi	x11,x3,-1884 # 80011574 <__clz_tab+0x148>
80007274:	00800693          	addi	x13,x0,8
80007278:	0d010113          	addi	x2,x2,208
8000727c:	0ed0106f          	jal	x0,80008b68 <__nrv_alloc_D2A>
80007280:	00042823          	sw	x0,16(x8)
80007284:	d39ff06f          	jal	x0,80006fbc <__gdtoa+0x12c>
80007288:	00100793          	addi	x15,x0,1
8000728c:	04f12623          	sw	x15,76(x2)
80007290:	03012783          	lw	x15,48(x2)
80007294:	02012c23          	sw	x0,56(x2)
80007298:	4207c263          	blt	x15,x0,800076bc <__gdtoa+0x82c>
8000729c:	01812783          	lw	x15,24(x2)
800072a0:	4007d063          	bge	x15,x0,800076a0 <__gdtoa+0x810>
800072a4:	03812783          	lw	x15,56(x2)
800072a8:	01812703          	lw	x14,24(x2)
800072ac:	04012223          	sw	x0,68(x2)
800072b0:	40e787b3          	sub	x15,x15,x14
800072b4:	02f12c23          	sw	x15,56(x2)
800072b8:	40e007b3          	sub	x15,x0,x14
800072bc:	02f12e23          	sw	x15,60(x2)
800072c0:	00012703          	lw	x14,0(x2)
800072c4:	00900793          	addi	x15,x0,9
800072c8:	56e7e663          	bltu	x15,x14,80007834 <__gdtoa+0x9a4>
800072cc:	00012783          	lw	x15,0(x2)
800072d0:	00500713          	addi	x14,x0,5
800072d4:	08f75ee3          	bge	x14,x15,80007b70 <__gdtoa+0xce0>
800072d8:	ffc78793          	addi	x15,x15,-4 # ffff7ffc <_stack_top+0x77ff7ffc>
800072dc:	00f12023          	sw	x15,0(x2)
800072e0:	00012683          	lw	x13,0(x2)
800072e4:	00400793          	addi	x15,x0,4
800072e8:	58f68c63          	beq	x13,x15,80007880 <__gdtoa+0x9f0>
800072ec:	66e682e3          	beq	x13,x14,80008150 <__gdtoa+0x12c0>
800072f0:	00200793          	addi	x15,x0,2
800072f4:	04012c23          	sw	x0,88(x2)
800072f8:	00000a93          	addi	x21,x0,0
800072fc:	58f68863          	beq	x13,x15,8000788c <__gdtoa+0x9fc>
80007300:	00300793          	addi	x15,x0,3
80007304:	00f12023          	sw	x15,0(x2)
80007308:	00812783          	lw	x15,8(x2)
8000730c:	01812703          	lw	x14,24(x2)
80007310:	00e787b3          	add	x15,x15,x14
80007314:	04f12423          	sw	x15,72(x2)
80007318:	00178793          	addi	x15,x15,1
8000731c:	02f12223          	sw	x15,36(x2)
80007320:	3cf05263          	bge	x0,x15,800076e4 <__gdtoa+0x854>
80007324:	00078593          	addi	x11,x15,0
80007328:	000d8513          	addi	x10,x27,0
8000732c:	08f12623          	sw	x15,140(x2)
80007330:	7cc010ef          	jal	x1,80008afc <__rv_alloc_D2A>
80007334:	00050793          	addi	x15,x10,0
80007338:	000508e3          	beq	x10,x0,80007b48 <__gdtoa+0xcb8>
8000733c:	02c12703          	lw	x14,44(x2)
80007340:	00c72803          	lw	x16,12(x14)
80007344:	fff80813          	addi	x16,x16,-1
80007348:	00080e63          	beq	x16,x0,80007364 <__gdtoa+0x4d4>
8000734c:	00085463          	bge	x16,x0,80007354 <__gdtoa+0x4c4>
80007350:	00200813          	addi	x16,x0,2
80007354:	1009f993          	andi	x19,x19,256
80007358:	42098c63          	beq	x19,x0,80007790 <__gdtoa+0x900>
8000735c:	00300713          	addi	x14,x0,3
80007360:	41070833          	sub	x16,x14,x16
80007364:	02412703          	lw	x14,36(x2)
80007368:	00f73713          	sltiu	x14,x14,15
8000736c:	42070263          	beq	x14,x0,80007790 <__gdtoa+0x900>
80007370:	420a8063          	beq	x21,x0,80007790 <__gdtoa+0x900>
80007374:	01812703          	lw	x14,24(x2)
80007378:	00e86733          	or	x14,x16,x14
8000737c:	40071a63          	bne	x14,x0,80007790 <__gdtoa+0x900>
80007380:	04012703          	lw	x14,64(x2)
80007384:	04c12683          	lw	x13,76(x2)
80007388:	08012623          	sw	x0,140(x2)
8000738c:	04e12e23          	sw	x14,92(x2)
80007390:	07412423          	sw	x20,104(x2)
80007394:	02068663          	beq	x13,x0,800073c0 <__gdtoa+0x530>
80007398:	fd01a603          	lw	x12,-48(x3) # 80011ca0 <_end_text+0x34>
8000739c:	fd41a683          	lw	x13,-44(x3) # 80011ca4 <_end_text+0x38>
800073a0:	00070513          	addi	x10,x14,0
800073a4:	000a0593          	addi	x11,x20,0
800073a8:	04f12023          	sw	x15,64(x2)
800073ac:	06e12023          	sw	x14,96(x2)
800073b0:	63c060ef          	jal	x1,8000d9ec <__ledf2>
800073b4:	04012783          	lw	x15,64(x2)
800073b8:	00055463          	bge	x10,x0,800073c0 <__gdtoa+0x530>
800073bc:	13c0106f          	jal	x0,800084f8 <__gdtoa+0x1668>
800073c0:	04f12023          	sw	x15,64(x2)
800073c4:	05c12783          	lw	x15,92(x2)
800073c8:	00078613          	addi	x12,x15,0
800073cc:	00078513          	addi	x10,x15,0
800073d0:	06812783          	lw	x15,104(x2)
800073d4:	00078693          	addi	x13,x15,0
800073d8:	00078593          	addi	x11,x15,0
800073dc:	6b4050ef          	jal	x1,8000ca90 <__adddf3>
800073e0:	fe81a603          	lw	x12,-24(x3) # 80011cb8 <_end_text+0x4c>
800073e4:	fec1a683          	lw	x13,-20(x3) # 80011cbc <_end_text+0x50>
800073e8:	6a8050ef          	jal	x1,8000ca90 <__adddf3>
800073ec:	fcc00737          	lui	x14,0xfcc00
800073f0:	00b70333          	add	x6,x14,x11
800073f4:	02412703          	lw	x14,36(x2)
800073f8:	04012783          	lw	x15,64(x2)
800073fc:	00050993          	addi	x19,x10,0
80007400:	32070063          	beq	x14,x0,80007720 <__gdtoa+0x890>
80007404:	02412703          	lw	x14,36(x2)
80007408:	05c12a83          	lw	x21,92(x2)
8000740c:	06812b03          	lw	x22,104(x2)
80007410:	06012623          	sw	x0,108(x2)
80007414:	04e12023          	sw	x14,64(x2)
80007418:	04012703          	lw	x14,64(x2)
8000741c:	c0818893          	addi	x17,x3,-1016 # 800118d8 <__mprec_tens>
80007420:	00371693          	slli	x13,x14,0x3
80007424:	05812703          	lw	x14,88(x2)
80007428:	00d886b3          	add	x13,x17,x13
8000742c:	ff86a603          	lw	x12,-8(x13)
80007430:	ffc6a683          	lw	x13,-4(x13)
80007434:	100700e3          	beq	x14,x0,80007d34 <__gdtoa+0xea4>
80007438:	ff81a503          	lw	x10,-8(x3) # 80011cc8 <_end_text+0x5c>
8000743c:	ffc1a583          	lw	x11,-4(x3) # 80011ccc <_end_text+0x60>
80007440:	06612823          	sw	x6,112(x2)
80007444:	04f12823          	sw	x15,80(x2)
80007448:	07112a23          	sw	x17,116(x2)
8000744c:	07312023          	sw	x19,96(x2)
80007450:	00178993          	addi	x19,x15,1
80007454:	589050ef          	jal	x1,8000d1dc <__divdf3>
80007458:	06012603          	lw	x12,96(x2)
8000745c:	07012683          	lw	x13,112(x2)
80007460:	000a8b93          	addi	x23,x21,0
80007464:	000b0a13          	addi	x20,x22,0
80007468:	445060ef          	jal	x1,8000e0ac <__subdf3>
8000746c:	00050613          	addi	x12,x10,0
80007470:	00058693          	addi	x13,x11,0
80007474:	000a8513          	addi	x10,x21,0
80007478:	000b0593          	addi	x11,x22,0
8000747c:	00068a93          	addi	x21,x13,0
80007480:	00060b13          	addi	x22,x12,0
80007484:	388070ef          	jal	x1,8000e80c <__fixdfsi>
80007488:	00050c13          	addi	x24,x10,0
8000748c:	3fc070ef          	jal	x1,8000e888 <__floatsidf>
80007490:	00050613          	addi	x12,x10,0
80007494:	00058693          	addi	x13,x11,0
80007498:	000b8513          	addi	x10,x23,0
8000749c:	000a0593          	addi	x11,x20,0
800074a0:	40d060ef          	jal	x1,8000e0ac <__subdf3>
800074a4:	05012783          	lw	x15,80(x2)
800074a8:	030c0713          	addi	x14,x24,48
800074ac:	00050613          	addi	x12,x10,0
800074b0:	00058693          	addi	x13,x11,0
800074b4:	00e78023          	sb	x14,0(x15)
800074b8:	00050a13          	addi	x20,x10,0
800074bc:	00058b93          	addi	x23,x11,0
800074c0:	000b0513          	addi	x10,x22,0
800074c4:	000a8593          	addi	x11,x21,0
800074c8:	44c060ef          	jal	x1,8000d914 <__gedf2>
800074cc:	05012783          	lw	x15,80(x2)
800074d0:	00a05463          	bge	x0,x10,800074d8 <__gdtoa+0x648>
800074d4:	2dc0106f          	jal	x0,800087b0 <__gdtoa+0x1920>
800074d8:	fd41a703          	lw	x14,-44(x3) # 80011ca4 <_end_text+0x38>
800074dc:	fd01a683          	lw	x13,-48(x3) # 80011ca0 <_end_text+0x34>
800074e0:	06e12223          	sw	x14,100(x2)
800074e4:	06d12023          	sw	x13,96(x2)
800074e8:	fdc1a703          	lw	x14,-36(x3) # 80011cac <_end_text+0x40>
800074ec:	fd81a683          	lw	x13,-40(x3) # 80011ca8 <_end_text+0x3c>
800074f0:	00040c13          	addi	x24,x8,0
800074f4:	07212c23          	sw	x18,120(x2)
800074f8:	06912e23          	sw	x9,124(x2)
800074fc:	04d12823          	sw	x13,80(x2)
80007500:	04e12a23          	sw	x14,84(x2)
80007504:	06f12823          	sw	x15,112(x2)
80007508:	000a0413          	addi	x8,x20,0
8000750c:	000b0493          	addi	x9,x22,0
80007510:	000a8913          	addi	x18,x21,0
80007514:	08c0006f          	jal	x0,800075a0 <__gdtoa+0x710>
80007518:	08c12783          	lw	x15,140(x2)
8000751c:	04012703          	lw	x14,64(x2)
80007520:	00178793          	addi	x15,x15,1
80007524:	08f12623          	sw	x15,140(x2)
80007528:	00e7c463          	blt	x15,x14,80007530 <__gdtoa+0x6a0>
8000752c:	3680106f          	jal	x0,80008894 <__gdtoa+0x1a04>
80007530:	594060ef          	jal	x1,8000dac4 <__muldf3>
80007534:	05012603          	lw	x12,80(x2)
80007538:	05412683          	lw	x13,84(x2)
8000753c:	00050493          	addi	x9,x10,0
80007540:	00058913          	addi	x18,x11,0
80007544:	00040513          	addi	x10,x8,0
80007548:	000b8593          	addi	x11,x23,0
8000754c:	578060ef          	jal	x1,8000dac4 <__muldf3>
80007550:	00058a93          	addi	x21,x11,0
80007554:	00050a13          	addi	x20,x10,0
80007558:	2b4070ef          	jal	x1,8000e80c <__fixdfsi>
8000755c:	00050413          	addi	x8,x10,0
80007560:	328070ef          	jal	x1,8000e888 <__floatsidf>
80007564:	00050613          	addi	x12,x10,0
80007568:	00058693          	addi	x13,x11,0
8000756c:	000a0513          	addi	x10,x20,0
80007570:	000a8593          	addi	x11,x21,0
80007574:	339060ef          	jal	x1,8000e0ac <__subdf3>
80007578:	03040793          	addi	x15,x8,48
8000757c:	00048613          	addi	x12,x9,0
80007580:	00090693          	addi	x13,x18,0
80007584:	00f98023          	sb	x15,0(x19)
80007588:	00198993          	addi	x19,x19,1
8000758c:	00050413          	addi	x8,x10,0
80007590:	00058b93          	addi	x23,x11,0
80007594:	458060ef          	jal	x1,8000d9ec <__ledf2>
80007598:	00055463          	bge	x10,x0,800075a0 <__gdtoa+0x710>
8000759c:	2080106f          	jal	x0,800087a4 <__gdtoa+0x1914>
800075a0:	06012503          	lw	x10,96(x2)
800075a4:	06412583          	lw	x11,100(x2)
800075a8:	00040613          	addi	x12,x8,0
800075ac:	000b8693          	addi	x13,x23,0
800075b0:	2fd060ef          	jal	x1,8000e0ac <__subdf3>
800075b4:	00048613          	addi	x12,x9,0
800075b8:	00090693          	addi	x13,x18,0
800075bc:	430060ef          	jal	x1,8000d9ec <__ledf2>
800075c0:	00050793          	addi	x15,x10,0
800075c4:	05012603          	lw	x12,80(x2)
800075c8:	05412683          	lw	x13,84(x2)
800075cc:	00048513          	addi	x10,x9,0
800075d0:	00090593          	addi	x11,x18,0
800075d4:	f407d2e3          	bge	x15,x0,80007518 <__gdtoa+0x688>
800075d8:	07012783          	lw	x15,112(x2)
800075dc:	fff9c903          	lbu	x18,-1(x19)
800075e0:	000c0413          	addi	x8,x24,0
800075e4:	03900613          	addi	x12,x0,57
800075e8:	0140006f          	jal	x0,800075fc <__gdtoa+0x76c>
800075ec:	00d79463          	bne	x15,x13,800075f4 <__gdtoa+0x764>
800075f0:	7fd0006f          	jal	x0,800085ec <__gdtoa+0x175c>
800075f4:	fff6c903          	lbu	x18,-1(x13)
800075f8:	00068993          	addi	x19,x13,0
800075fc:	fff98693          	addi	x13,x19,-1
80007600:	fec906e3          	beq	x18,x12,800075ec <__gdtoa+0x75c>
80007604:	00190913          	addi	x18,x18,1
80007608:	06c12703          	lw	x14,108(x2)
8000760c:	01268023          	sb	x18,0(x13)
80007610:	02000d13          	addi	x26,x0,32
80007614:	00170c13          	addi	x24,x14,1 # fcc00001 <_stack_top+0x74c00001>
80007618:	00040593          	addi	x11,x8,0
8000761c:	000d8513          	addi	x10,x27,0
80007620:	00f12023          	sw	x15,0(x2)
80007624:	215010ef          	jal	x1,80009038 <_Bfree>
80007628:	01c12783          	lw	x15,28(x2)
8000762c:	00098023          	sb	x0,0(x19)
80007630:	0187a023          	sw	x24,0(x15)
80007634:	00012783          	lw	x15,0(x2)
80007638:	000c8463          	beq	x25,x0,80007640 <__gdtoa+0x7b0>
8000763c:	013ca023          	sw	x19,0(x25)
80007640:	02812703          	lw	x14,40(x2)
80007644:	02812683          	lw	x13,40(x2)
80007648:	0c812403          	lw	x8,200(x2)
8000764c:	00072703          	lw	x14,0(x14)
80007650:	0c412483          	lw	x9,196(x2)
80007654:	0c012903          	lw	x18,192(x2)
80007658:	01a76733          	or	x14,x14,x26
8000765c:	0b812a03          	lw	x20,184(x2)
80007660:	0b412a83          	lw	x21,180(x2)
80007664:	0b012b03          	lw	x22,176(x2)
80007668:	0ac12b83          	lw	x23,172(x2)
8000766c:	0a812c03          	lw	x24,168(x2)
80007670:	09c12d83          	lw	x27,156(x2)
80007674:	00e6a023          	sw	x14,0(x13)
80007678:	b6dff06f          	jal	x0,800071e4 <__gdtoa+0x354>
8000767c:	00050593          	addi	x11,x10,0
80007680:	00040513          	addi	x10,x8,0
80007684:	7b8010ef          	jal	x1,80008e3c <__rshift_D2A>
80007688:	08c12783          	lw	x15,140(x2)
8000768c:	02012703          	lw	x14,32(x2)
80007690:	40f484b3          	sub	x9,x9,x15
80007694:	00e787b3          	add	x15,x15,x14
80007698:	02f12a23          	sw	x15,52(x2)
8000769c:	939ff06f          	jal	x0,80006fd4 <__gdtoa+0x144>
800076a0:	03012783          	lw	x15,48(x2)
800076a4:	01812703          	lw	x14,24(x2)
800076a8:	02012e23          	sw	x0,60(x2)
800076ac:	00e787b3          	add	x15,x15,x14
800076b0:	02f12823          	sw	x15,48(x2)
800076b4:	04e12223          	sw	x14,68(x2)
800076b8:	c09ff06f          	jal	x0,800072c0 <__gdtoa+0x430>
800076bc:	00100793          	addi	x15,x0,1
800076c0:	40e787b3          	sub	x15,x15,x14
800076c4:	02f12c23          	sw	x15,56(x2)
800076c8:	02012823          	sw	x0,48(x2)
800076cc:	bd1ff06f          	jal	x0,8000729c <__gdtoa+0x40c>
800076d0:	01812783          	lw	x15,24(x2)
800076d4:	04012623          	sw	x0,76(x2)
800076d8:	fff78793          	addi	x15,x15,-1
800076dc:	00f12c23          	sw	x15,24(x2)
800076e0:	bb1ff06f          	jal	x0,80007290 <__gdtoa+0x400>
800076e4:	00100793          	addi	x15,x0,1
800076e8:	c3dff06f          	jal	x0,80007324 <__gdtoa+0x494>
800076ec:	00070613          	addi	x12,x14,0
800076f0:	00070513          	addi	x10,x14,0
800076f4:	000a0693          	addi	x13,x20,0
800076f8:	000a0593          	addi	x11,x20,0
800076fc:	04f12023          	sw	x15,64(x2)
80007700:	390050ef          	jal	x1,8000ca90 <__adddf3>
80007704:	fe81a603          	lw	x12,-24(x3) # 80011cb8 <_end_text+0x4c>
80007708:	fec1a683          	lw	x13,-20(x3) # 80011cbc <_end_text+0x50>
8000770c:	384050ef          	jal	x1,8000ca90 <__adddf3>
80007710:	04012783          	lw	x15,64(x2)
80007714:	fcc00737          	lui	x14,0xfcc00
80007718:	00050993          	addi	x19,x10,0
8000771c:	00b70333          	add	x6,x14,x11
80007720:	ff01a603          	lw	x12,-16(x3) # 80011cc0 <_end_text+0x54>
80007724:	05c12503          	lw	x10,92(x2)
80007728:	ff41a683          	lw	x13,-12(x3) # 80011cc4 <_end_text+0x58>
8000772c:	06812583          	lw	x11,104(x2)
80007730:	04f12023          	sw	x15,64(x2)
80007734:	04612823          	sw	x6,80(x2)
80007738:	175060ef          	jal	x1,8000e0ac <__subdf3>
8000773c:	05012683          	lw	x13,80(x2)
80007740:	00098613          	addi	x12,x19,0
80007744:	00050a13          	addi	x20,x10,0
80007748:	00058a93          	addi	x21,x11,0
8000774c:	1c8060ef          	jal	x1,8000d914 <__gedf2>
80007750:	04012783          	lw	x15,64(x2)
80007754:	6aa046e3          	blt	x0,x10,80008600 <__gdtoa+0x1770>
80007758:	05012303          	lw	x6,80(x2)
8000775c:	800006b7          	lui	x13,0x80000
80007760:	00098613          	addi	x12,x19,0
80007764:	00d34733          	xor	x14,x6,x13
80007768:	00070693          	addi	x13,x14,0 # fcc00000 <_stack_top+0x74c00000>
8000776c:	000a0513          	addi	x10,x20,0
80007770:	000a8593          	addi	x11,x21,0
80007774:	278060ef          	jal	x1,8000d9ec <__ledf2>
80007778:	04012783          	lw	x15,64(x2)
8000777c:	160542e3          	blt	x10,x0,800080e0 <__gdtoa+0x1250>
80007780:	05c12703          	lw	x14,92(x2)
80007784:	06812a03          	lw	x20,104(x2)
80007788:	00000813          	addi	x16,x0,0
8000778c:	04e12823          	sw	x14,80(x2)
80007790:	03412703          	lw	x14,52(x2)
80007794:	10074c63          	blt	x14,x0,800078ac <__gdtoa+0xa1c>
80007798:	01812703          	lw	x14,24(x2)
8000779c:	00f72713          	slti	x14,x14,15
800077a0:	10070663          	beq	x14,x0,800078ac <__gdtoa+0xa1c>
800077a4:	c0818893          	addi	x17,x3,-1016 # 800118d8 <__mprec_tens>
800077a8:	01812703          	lw	x14,24(x2)
800077ac:	00371713          	slli	x14,x14,0x3
800077b0:	00e888b3          	add	x17,x17,x14
800077b4:	0048a703          	lw	x14,4(x17)
800077b8:	0008a683          	lw	x13,0(x17)
800077bc:	00e12223          	sw	x14,4(x2)
800077c0:	00812703          	lw	x14,8(x2)
800077c4:	00d12023          	sw	x13,0(x2)
800077c8:	3e075863          	bge	x14,x0,80007bb8 <__gdtoa+0xd28>
800077cc:	02412703          	lw	x14,36(x2)
800077d0:	3ee04463          	blt	x0,x14,80007bb8 <__gdtoa+0xd28>
800077d4:	100716e3          	bne	x14,x0,800080e0 <__gdtoa+0x1250>
800077d8:	ff01a603          	lw	x12,-16(x3) # 80011cc0 <_end_text+0x54>
800077dc:	ff41a683          	lw	x13,-12(x3) # 80011cc4 <_end_text+0x58>
800077e0:	00012503          	lw	x10,0(x2)
800077e4:	00412583          	lw	x11,4(x2)
800077e8:	00f12a23          	sw	x15,20(x2)
800077ec:	2d8060ef          	jal	x1,8000dac4 <__muldf3>
800077f0:	05012603          	lw	x12,80(x2)
800077f4:	000a0693          	addi	x13,x20,0
800077f8:	11c060ef          	jal	x1,8000d914 <__gedf2>
800077fc:	01412783          	lw	x15,20(x2)
80007800:	0e0550e3          	bge	x10,x0,800080e0 <__gdtoa+0x1250>
80007804:	03100713          	addi	x14,x0,49
80007808:	00e78023          	sb	x14,0(x15)
8000780c:	00000593          	addi	x11,x0,0
80007810:	000d8513          	addi	x10,x27,0
80007814:	00178993          	addi	x19,x15,1
80007818:	00f12023          	sw	x15,0(x2)
8000781c:	01d010ef          	jal	x1,80009038 <_Bfree>
80007820:	01812783          	lw	x15,24(x2)
80007824:	02000d13          	addi	x26,x0,32
80007828:	00278c13          	addi	x24,x15,2
8000782c:	00012783          	lw	x15,0(x2)
80007830:	de9ff06f          	jal	x0,80007618 <__gdtoa+0x788>
80007834:	3fdc0793          	addi	x15,x24,1021
80007838:	7f87ba93          	sltiu	x21,x15,2040
8000783c:	00012023          	sw	x0,0(x2)
80007840:	00090513          	addi	x10,x18,0
80007844:	044070ef          	jal	x1,8000e888 <__floatsidf>
80007848:	fc81a603          	lw	x12,-56(x3) # 80011c98 <_end_text+0x2c>
8000784c:	fcc1a683          	lw	x13,-52(x3) # 80011c9c <_end_text+0x30>
80007850:	274060ef          	jal	x1,8000dac4 <__muldf3>
80007854:	7b9060ef          	jal	x1,8000e80c <__fixdfsi>
80007858:	fff00713          	addi	x14,x0,-1
8000785c:	fff00793          	addi	x15,x0,-1
80007860:	00350593          	addi	x11,x10,3
80007864:	02e12223          	sw	x14,36(x2)
80007868:	00100713          	addi	x14,x0,1
8000786c:	04f12423          	sw	x15,72(x2)
80007870:	00012423          	sw	x0,8(x2)
80007874:	00058793          	addi	x15,x11,0
80007878:	04e12c23          	sw	x14,88(x2)
8000787c:	aadff06f          	jal	x0,80007328 <__gdtoa+0x498>
80007880:	00100793          	addi	x15,x0,1
80007884:	00000a93          	addi	x21,x0,0
80007888:	04f12c23          	sw	x15,88(x2)
8000788c:	00812583          	lw	x11,8(x2)
80007890:	00b04463          	blt	x0,x11,80007898 <__gdtoa+0xa08>
80007894:	00100593          	addi	x11,x0,1
80007898:	00058793          	addi	x15,x11,0
8000789c:	04b12423          	sw	x11,72(x2)
800078a0:	02b12223          	sw	x11,36(x2)
800078a4:	00b12423          	sw	x11,8(x2)
800078a8:	a81ff06f          	jal	x0,80007328 <__gdtoa+0x498>
800078ac:	05812703          	lw	x14,88(x2)
800078b0:	5e070263          	beq	x14,x0,80007e94 <__gdtoa+0x1004>
800078b4:	02c12703          	lw	x14,44(x2)
800078b8:	03412603          	lw	x12,52(x2)
800078bc:	40990933          	sub	x18,x18,x9
800078c0:	00472703          	lw	x14,4(x14)
800078c4:	00190693          	addi	x13,x18,1
800078c8:	08d12623          	sw	x13,140(x2)
800078cc:	41260933          	sub	x18,x12,x18
800078d0:	1ce956e3          	bge	x18,x14,8000829c <__gdtoa+0x140c>
800078d4:	00012683          	lw	x13,0(x2)
800078d8:	ffd68693          	addi	x13,x13,-3 # 7ffffffd <_start-0x3>
800078dc:	ffd6f693          	andi	x13,x13,-3
800078e0:	080684e3          	beq	x13,x0,80008168 <__gdtoa+0x12d8>
800078e4:	00012683          	lw	x13,0(x2)
800078e8:	40e60733          	sub	x14,x12,x14
800078ec:	02412603          	lw	x12,36(x2)
800078f0:	0026a693          	slti	x13,x13,2
800078f4:	00170713          	addi	x14,x14,1
800078f8:	0016b693          	sltiu	x13,x13,1
800078fc:	00c02633          	slt	x12,x0,x12
80007900:	08e12623          	sw	x14,140(x2)
80007904:	00c6f6b3          	and	x13,x13,x12
80007908:	00068863          	beq	x13,x0,80007918 <__gdtoa+0xa88>
8000790c:	02412683          	lw	x13,36(x2)
80007910:	00e6d463          	bge	x13,x14,80007918 <__gdtoa+0xa88>
80007914:	0ac0106f          	jal	x0,800089c0 <__gdtoa+0x1b30>
80007918:	03012683          	lw	x13,48(x2)
8000791c:	03c12a03          	lw	x20,60(x2)
80007920:	00e686b3          	add	x13,x13,x14
80007924:	02d12823          	sw	x13,48(x2)
80007928:	03812683          	lw	x13,56(x2)
8000792c:	00d709b3          	add	x19,x14,x13
80007930:	00100593          	addi	x11,x0,1
80007934:	000d8513          	addi	x10,x27,0
80007938:	04f12023          	sw	x15,64(x2)
8000793c:	03012a23          	sw	x16,52(x2)
80007940:	349010ef          	jal	x1,80009488 <__i2b>
80007944:	00050913          	addi	x18,x10,0
80007948:	20050063          	beq	x10,x0,80007b48 <__gdtoa+0xcb8>
8000794c:	03812703          	lw	x14,56(x2)
80007950:	03412803          	lw	x16,52(x2)
80007954:	04012783          	lw	x15,64(x2)
80007958:	04070063          	beq	x14,x0,80007998 <__gdtoa+0xb08>
8000795c:	03012703          	lw	x14,48(x2)
80007960:	02e05c63          	bge	x0,x14,80007998 <__gdtoa+0xb08>
80007964:	03812683          	lw	x13,56(x2)
80007968:	03012603          	lw	x12,48(x2)
8000796c:	00068713          	addi	x14,x13,0
80007970:	00d65463          	bge	x12,x13,80007978 <__gdtoa+0xae8>
80007974:	00060713          	addi	x14,x12,0
80007978:	03812683          	lw	x13,56(x2)
8000797c:	08e12623          	sw	x14,140(x2)
80007980:	40e989b3          	sub	x19,x19,x14
80007984:	40e686b3          	sub	x13,x13,x14
80007988:	02d12c23          	sw	x13,56(x2)
8000798c:	03012683          	lw	x13,48(x2)
80007990:	40e68733          	sub	x14,x13,x14
80007994:	02e12823          	sw	x14,48(x2)
80007998:	03c12703          	lw	x14,60(x2)
8000799c:	02070863          	beq	x14,x0,800079cc <__gdtoa+0xb3c>
800079a0:	2e0a18e3          	bne	x20,x0,80008490 <__gdtoa+0x1600>
800079a4:	03c12603          	lw	x12,60(x2)
800079a8:	00040593          	addi	x11,x8,0
800079ac:	000d8513          	addi	x10,x27,0
800079b0:	04f12023          	sw	x15,64(x2)
800079b4:	03012a23          	sw	x16,52(x2)
800079b8:	5dd010ef          	jal	x1,80009794 <__pow5mult>
800079bc:	03412803          	lw	x16,52(x2)
800079c0:	04012783          	lw	x15,64(x2)
800079c4:	00050413          	addi	x8,x10,0
800079c8:	18050063          	beq	x10,x0,80007b48 <__gdtoa+0xcb8>
800079cc:	00100593          	addi	x11,x0,1
800079d0:	000d8513          	addi	x10,x27,0
800079d4:	02f12e23          	sw	x15,60(x2)
800079d8:	03012a23          	sw	x16,52(x2)
800079dc:	2ad010ef          	jal	x1,80009488 <__i2b>
800079e0:	00050313          	addi	x6,x10,0
800079e4:	16050263          	beq	x10,x0,80007b48 <__gdtoa+0xcb8>
800079e8:	04412703          	lw	x14,68(x2)
800079ec:	03412803          	lw	x16,52(x2)
800079f0:	03c12783          	lw	x15,60(x2)
800079f4:	7a071663          	bne	x14,x0,800081a0 <__gdtoa+0x1310>
800079f8:	00012703          	lw	x14,0(x2)
800079fc:	00272713          	slti	x14,x14,2
80007a00:	00070663          	beq	x14,x0,80007a0c <__gdtoa+0xb7c>
80007a04:	fff48493          	addi	x9,x9,-1
80007a08:	0e048663          	beq	x9,x0,80007af4 <__gdtoa+0xc64>
80007a0c:	01f00513          	addi	x10,x0,31
80007a10:	03012703          	lw	x14,48(x2)
80007a14:	40e504b3          	sub	x9,x10,x14
80007a18:	ffc48493          	addi	x9,x9,-4
80007a1c:	01f4f493          	andi	x9,x9,31
80007a20:	08912623          	sw	x9,140(x2)
80007a24:	01348633          	add	x12,x9,x19
80007a28:	00048713          	addi	x14,x9,0
80007a2c:	6ec04863          	blt	x0,x12,8000811c <__gdtoa+0x128c>
80007a30:	03012683          	lw	x13,48(x2)
80007a34:	00e68633          	add	x12,x13,x14
80007a38:	0ec04663          	blt	x0,x12,80007b24 <__gdtoa+0xc94>
80007a3c:	04c12703          	lw	x14,76(x2)
80007a40:	080712e3          	bne	x14,x0,800082c4 <__gdtoa+0x1434>
80007a44:	02412703          	lw	x14,36(x2)
80007a48:	48e04e63          	blt	x0,x14,80007ee4 <__gdtoa+0x1054>
80007a4c:	00012703          	lw	x14,0(x2)
80007a50:	00372713          	slti	x14,x14,3
80007a54:	48071863          	bne	x14,x0,80007ee4 <__gdtoa+0x1054>
80007a58:	00030593          	addi	x11,x6,0
80007a5c:	00000693          	addi	x13,x0,0
80007a60:	00500613          	addi	x12,x0,5
80007a64:	000d8513          	addi	x10,x27,0
80007a68:	00f12023          	sw	x15,0(x2)
80007a6c:	5f0010ef          	jal	x1,8000905c <__multadd>
80007a70:	00050593          	addi	x11,x10,0
80007a74:	0c050a63          	beq	x10,x0,80007b48 <__gdtoa+0xcb8>
80007a78:	02412703          	lw	x14,36(x2)
80007a7c:	00012783          	lw	x15,0(x2)
80007a80:	1a0712e3          	bne	x14,x0,80008424 <__gdtoa+0x1594>
80007a84:	00a12023          	sw	x10,0(x2)
80007a88:	00040513          	addi	x10,x8,0
80007a8c:	00f12a23          	sw	x15,20(x2)
80007a90:	7e1010ef          	jal	x1,80009a70 <__mcmp>
80007a94:	00012583          	lw	x11,0(x2)
80007a98:	01412783          	lw	x15,20(x2)
80007a9c:	18a054e3          	bge	x0,x10,80008424 <__gdtoa+0x1594>
80007aa0:	03100713          	addi	x14,x0,49
80007aa4:	00e78023          	sb	x14,0(x15)
80007aa8:	01812703          	lw	x14,24(x2)
80007aac:	00178993          	addi	x19,x15,1
80007ab0:	02000d13          	addi	x26,x0,32
80007ab4:	00170713          	addi	x14,x14,1
80007ab8:	00e12c23          	sw	x14,24(x2)
80007abc:	000d8513          	addi	x10,x27,0
80007ac0:	00f12023          	sw	x15,0(x2)
80007ac4:	574010ef          	jal	x1,80009038 <_Bfree>
80007ac8:	00012783          	lw	x15,0(x2)
80007acc:	00091463          	bne	x18,x0,80007ad4 <__gdtoa+0xc44>
80007ad0:	0040106f          	jal	x0,80008ad4 <__gdtoa+0x1c44>
80007ad4:	00090593          	addi	x11,x18,0
80007ad8:	000d8513          	addi	x10,x27,0
80007adc:	00f12023          	sw	x15,0(x2)
80007ae0:	558010ef          	jal	x1,80009038 <_Bfree>
80007ae4:	01812783          	lw	x15,24(x2)
80007ae8:	00178c13          	addi	x24,x15,1
80007aec:	00012783          	lw	x15,0(x2)
80007af0:	b29ff06f          	jal	x0,80007618 <__gdtoa+0x788>
80007af4:	02c12703          	lw	x14,44(x2)
80007af8:	02012683          	lw	x13,32(x2)
80007afc:	00472703          	lw	x14,4(x14)
80007b00:	00170713          	addi	x14,x14,1
80007b04:	f0d754e3          	bge	x14,x13,80007a0c <__gdtoa+0xb7c>
80007b08:	03012703          	lw	x14,48(x2)
80007b0c:	00198993          	addi	x19,x19,1
80007b10:	00170713          	addi	x14,x14,1
80007b14:	02e12823          	sw	x14,48(x2)
80007b18:	00100713          	addi	x14,x0,1
80007b1c:	04e12223          	sw	x14,68(x2)
80007b20:	eedff06f          	jal	x0,80007a0c <__gdtoa+0xb7c>
80007b24:	00030593          	addi	x11,x6,0
80007b28:	000d8513          	addi	x10,x27,0
80007b2c:	02f12623          	sw	x15,44(x2)
80007b30:	03012023          	sw	x16,32(x2)
80007b34:	5bd010ef          	jal	x1,800098f0 <__lshift>
80007b38:	02012803          	lw	x16,32(x2)
80007b3c:	02c12783          	lw	x15,44(x2)
80007b40:	00050313          	addi	x6,x10,0
80007b44:	ee051ce3          	bne	x10,x0,80007a3c <__gdtoa+0xbac>
80007b48:	0c812403          	lw	x8,200(x2)
80007b4c:	0c412483          	lw	x9,196(x2)
80007b50:	0c012903          	lw	x18,192(x2)
80007b54:	0b812a03          	lw	x20,184(x2)
80007b58:	0b412a83          	lw	x21,180(x2)
80007b5c:	0b012b03          	lw	x22,176(x2)
80007b60:	0ac12b83          	lw	x23,172(x2)
80007b64:	0a812c03          	lw	x24,168(x2)
80007b68:	09c12d83          	lw	x27,156(x2)
80007b6c:	e74ff06f          	jal	x0,800071e0 <__gdtoa+0x350>
80007b70:	3fdc0793          	addi	x15,x24,1021
80007b74:	7f87ba93          	sltiu	x21,x15,2040
80007b78:	00012783          	lw	x15,0(x2)
80007b7c:	00400693          	addi	x13,x0,4
80007b80:	0cd782e3          	beq	x15,x13,80008444 <__gdtoa+0x15b4>
80007b84:	5ce78863          	beq	x15,x14,80008154 <__gdtoa+0x12c4>
80007b88:	00012703          	lw	x14,0(x2)
80007b8c:	00200793          	addi	x15,x0,2
80007b90:	0af706e3          	beq	x14,x15,8000843c <__gdtoa+0x15ac>
80007b94:	00300793          	addi	x15,x0,3
80007b98:	04012c23          	sw	x0,88(x2)
80007b9c:	f6f70663          	beq	x14,x15,80007308 <__gdtoa+0x478>
80007ba0:	ca1ff06f          	jal	x0,80007840 <__gdtoa+0x9b0>
80007ba4:	c081a683          	lw	x13,-1016(x3) # 800118d8 <__mprec_tens>
80007ba8:	c0c1a703          	lw	x14,-1012(x3) # 800118dc <__mprec_tens+0x4>
80007bac:	00000813          	addi	x16,x0,0
80007bb0:	00d12023          	sw	x13,0(x2)
80007bb4:	00e12223          	sw	x14,4(x2)
80007bb8:	05012903          	lw	x18,80(x2)
80007bbc:	000a0993          	addi	x19,x20,0
80007bc0:	00412a83          	lw	x21,4(x2)
80007bc4:	000a0593          	addi	x11,x20,0
80007bc8:	00012a03          	lw	x20,0(x2)
80007bcc:	00100713          	addi	x14,x0,1
80007bd0:	000a8693          	addi	x13,x21,0
80007bd4:	000a0613          	addi	x12,x20,0
80007bd8:	00090513          	addi	x10,x18,0
80007bdc:	00f12423          	sw	x15,8(x2)
80007be0:	01012a23          	sw	x16,20(x2)
80007be4:	08e12623          	sw	x14,140(x2)
80007be8:	5f4050ef          	jal	x1,8000d1dc <__divdf3>
80007bec:	421060ef          	jal	x1,8000e80c <__fixdfsi>
80007bf0:	00050493          	addi	x9,x10,0
80007bf4:	495060ef          	jal	x1,8000e888 <__floatsidf>
80007bf8:	000a0613          	addi	x12,x20,0
80007bfc:	000a8693          	addi	x13,x21,0
80007c00:	6c5050ef          	jal	x1,8000dac4 <__muldf3>
80007c04:	00050613          	addi	x12,x10,0
80007c08:	00058693          	addi	x13,x11,0
80007c0c:	00090513          	addi	x10,x18,0
80007c10:	00098593          	addi	x11,x19,0
80007c14:	498060ef          	jal	x1,8000e0ac <__subdf3>
80007c18:	00812783          	lw	x15,8(x2)
80007c1c:	03048713          	addi	x14,x9,48
80007c20:	00000613          	addi	x12,x0,0
80007c24:	00e78023          	sb	x14,0(x15)
80007c28:	00178993          	addi	x19,x15,1
80007c2c:	01812783          	lw	x15,24(x2)
80007c30:	00000693          	addi	x13,x0,0
80007c34:	00050a13          	addi	x20,x10,0
80007c38:	00178c13          	addi	x24,x15,1
80007c3c:	00058913          	addi	x18,x11,0
80007c40:	451050ef          	jal	x1,8000d890 <__eqdf2>
80007c44:	00812783          	lw	x15,8(x2)
80007c48:	9c0508e3          	beq	x10,x0,80007618 <__gdtoa+0x788>
80007c4c:	fdc1a703          	lw	x14,-36(x3) # 80011cac <_end_text+0x40>
80007c50:	01412803          	lw	x16,20(x2)
80007c54:	fd81a683          	lw	x13,-40(x3) # 80011ca8 <_end_text+0x3c>
80007c58:	00812a23          	sw	x8,20(x2)
80007c5c:	00e12623          	sw	x14,12(x2)
80007c60:	00d12423          	sw	x13,8(x2)
80007c64:	03012623          	sw	x16,44(x2)
80007c68:	02f12023          	sw	x15,32(x2)
80007c6c:	000a0413          	addi	x8,x20,0
80007c70:	0780006f          	jal	x0,80007ce8 <__gdtoa+0xe58>
80007c74:	09012623          	sw	x16,140(x2)
80007c78:	64d050ef          	jal	x1,8000dac4 <__muldf3>
80007c7c:	00012a03          	lw	x20,0(x2)
80007c80:	00412a83          	lw	x21,4(x2)
80007c84:	00050b13          	addi	x22,x10,0
80007c88:	000a0613          	addi	x12,x20,0
80007c8c:	000a8693          	addi	x13,x21,0
80007c90:	00058b93          	addi	x23,x11,0
80007c94:	548050ef          	jal	x1,8000d1dc <__divdf3>
80007c98:	375060ef          	jal	x1,8000e80c <__fixdfsi>
80007c9c:	00050493          	addi	x9,x10,0
80007ca0:	3e9060ef          	jal	x1,8000e888 <__floatsidf>
80007ca4:	000a0613          	addi	x12,x20,0
80007ca8:	000a8693          	addi	x13,x21,0
80007cac:	619050ef          	jal	x1,8000dac4 <__muldf3>
80007cb0:	00050613          	addi	x12,x10,0
80007cb4:	00058693          	addi	x13,x11,0
80007cb8:	000b0513          	addi	x10,x22,0
80007cbc:	000b8593          	addi	x11,x23,0
80007cc0:	3ec060ef          	jal	x1,8000e0ac <__subdf3>
80007cc4:	00198993          	addi	x19,x19,1
80007cc8:	03048793          	addi	x15,x9,48
80007ccc:	fef98fa3          	sb	x15,-1(x19)
80007cd0:	00000613          	addi	x12,x0,0
80007cd4:	00000693          	addi	x13,x0,0
80007cd8:	00050413          	addi	x8,x10,0
80007cdc:	00058913          	addi	x18,x11,0
80007ce0:	3b1050ef          	jal	x1,8000d890 <__eqdf2>
80007ce4:	72050a63          	beq	x10,x0,80008418 <__gdtoa+0x1588>
80007ce8:	08c12703          	lw	x14,140(x2)
80007cec:	02412783          	lw	x15,36(x2)
80007cf0:	00812603          	lw	x12,8(x2)
80007cf4:	00c12683          	lw	x13,12(x2)
80007cf8:	00040513          	addi	x10,x8,0
80007cfc:	00090593          	addi	x11,x18,0
80007d00:	00170813          	addi	x16,x14,1
80007d04:	f6f718e3          	bne	x14,x15,80007c74 <__gdtoa+0xde4>
80007d08:	02c12803          	lw	x16,44(x2)
80007d0c:	02012783          	lw	x15,32(x2)
80007d10:	01412403          	lw	x8,20(x2)
80007d14:	10080ce3          	beq	x16,x0,8000862c <__gdtoa+0x179c>
80007d18:	00100693          	addi	x13,x0,1
80007d1c:	01000d13          	addi	x26,x0,16
80007d20:	8ed81ce3          	bne	x16,x13,80007618 <__gdtoa+0x788>
80007d24:	01812703          	lw	x14,24(x2)
80007d28:	06e12623          	sw	x14,108(x2)
80007d2c:	fff9c903          	lbu	x18,-1(x19)
80007d30:	8b5ff06f          	jal	x0,800075e4 <__gdtoa+0x754>
80007d34:	00098513          	addi	x10,x19,0
80007d38:	00030593          	addi	x11,x6,0
80007d3c:	07012823          	sw	x16,112(x2)
80007d40:	06f12023          	sw	x15,96(x2)
80007d44:	581050ef          	jal	x1,8000dac4 <__muldf3>
80007d48:	fd81a783          	lw	x15,-40(x3) # 80011ca8 <_end_text+0x3c>
80007d4c:	fdc1a803          	lw	x16,-36(x3) # 80011cac <_end_text+0x40>
80007d50:	05012883          	lw	x17,80(x2)
80007d54:	000a0e93          	addi	x29,x20,0
80007d58:	00100713          	addi	x14,x0,1
80007d5c:	00040a13          	addi	x20,x8,0
80007d60:	04912823          	sw	x9,80(x2)
80007d64:	06012983          	lw	x19,96(x2)
80007d68:	00050b93          	addi	x23,x10,0
80007d6c:	00058c13          	addi	x24,x11,0
80007d70:	00078a93          	addi	x21,x15,0
80007d74:	00080b13          	addi	x22,x16,0
80007d78:	08e12623          	sw	x14,140(x2)
80007d7c:	00088413          	addi	x8,x17,0
80007d80:	000e8493          	addi	x9,x29,0
80007d84:	0140006f          	jal	x0,80007d98 <__gdtoa+0xf08>
80007d88:	08e12623          	sw	x14,140(x2)
80007d8c:	539050ef          	jal	x1,8000dac4 <__muldf3>
80007d90:	00050413          	addi	x8,x10,0
80007d94:	00058493          	addi	x9,x11,0
80007d98:	00040513          	addi	x10,x8,0
80007d9c:	00048593          	addi	x11,x9,0
80007da0:	26d060ef          	jal	x1,8000e80c <__fixdfsi>
80007da4:	00050913          	addi	x18,x10,0
80007da8:	02050263          	beq	x10,x0,80007dcc <__gdtoa+0xf3c>
80007dac:	2dd060ef          	jal	x1,8000e888 <__floatsidf>
80007db0:	00050613          	addi	x12,x10,0
80007db4:	00058693          	addi	x13,x11,0
80007db8:	00040513          	addi	x10,x8,0
80007dbc:	00048593          	addi	x11,x9,0
80007dc0:	2ec060ef          	jal	x1,8000e0ac <__subdf3>
80007dc4:	00050413          	addi	x8,x10,0
80007dc8:	00058493          	addi	x9,x11,0
80007dcc:	03090913          	addi	x18,x18,48
80007dd0:	0ff97913          	andi	x18,x18,255
80007dd4:	01298023          	sb	x18,0(x19)
80007dd8:	08c12783          	lw	x15,140(x2)
80007ddc:	04012803          	lw	x16,64(x2)
80007de0:	00198993          	addi	x19,x19,1
80007de4:	00040513          	addi	x10,x8,0
80007de8:	00048593          	addi	x11,x9,0
80007dec:	000a8613          	addi	x12,x21,0
80007df0:	000b0693          	addi	x13,x22,0
80007df4:	00178713          	addi	x14,x15,1
80007df8:	f90798e3          	bne	x15,x16,80007d88 <__gdtoa+0xef8>
80007dfc:	06012783          	lw	x15,96(x2)
80007e00:	ff81a603          	lw	x12,-8(x3) # 80011cc8 <_end_text+0x5c>
80007e04:	ffc1a683          	lw	x13,-4(x3) # 80011ccc <_end_text+0x60>
80007e08:	000b8513          	addi	x10,x23,0
80007e0c:	000c0593          	addi	x11,x24,0
80007e10:	06f12a23          	sw	x15,116(x2)
80007e14:	06812023          	sw	x8,96(x2)
80007e18:	04912023          	sw	x9,64(x2)
80007e1c:	475040ef          	jal	x1,8000ca90 <__adddf3>
80007e20:	06012883          	lw	x17,96(x2)
80007e24:	04012683          	lw	x13,64(x2)
80007e28:	05012483          	lw	x9,80(x2)
80007e2c:	00088613          	addi	x12,x17,0
80007e30:	05112823          	sw	x17,80(x2)
80007e34:	3b9050ef          	jal	x1,8000d9ec <__ledf2>
80007e38:	07412783          	lw	x15,116(x2)
80007e3c:	000a0413          	addi	x8,x20,0
80007e40:	fa054263          	blt	x10,x0,800075e4 <__gdtoa+0x754>
80007e44:	ff81a503          	lw	x10,-8(x3) # 80011cc8 <_end_text+0x5c>
80007e48:	ffc1a583          	lw	x11,-4(x3) # 80011ccc <_end_text+0x60>
80007e4c:	000b8613          	addi	x12,x23,0
80007e50:	000c0693          	addi	x13,x24,0
80007e54:	06f12023          	sw	x15,96(x2)
80007e58:	254060ef          	jal	x1,8000e0ac <__subdf3>
80007e5c:	05012603          	lw	x12,80(x2)
80007e60:	04012683          	lw	x13,64(x2)
80007e64:	2b1050ef          	jal	x1,8000d914 <__gedf2>
80007e68:	04012e83          	lw	x29,64(x2)
80007e6c:	05012883          	lw	x17,80(x2)
80007e70:	06012783          	lw	x15,96(x2)
80007e74:	07012803          	lw	x16,112(x2)
80007e78:	24a048e3          	blt	x0,x10,800088c8 <__gdtoa+0x1a38>
80007e7c:	05c12703          	lw	x14,92(x2)
80007e80:	06812a03          	lw	x20,104(x2)
80007e84:	04e12823          	sw	x14,80(x2)
80007e88:	03412703          	lw	x14,52(x2)
80007e8c:	d0075ce3          	bge	x14,x0,80007ba4 <__gdtoa+0xd14>
80007e90:	00000813          	addi	x16,x0,0
80007e94:	03812703          	lw	x14,56(x2)
80007e98:	3c070263          	beq	x14,x0,8000825c <__gdtoa+0x13cc>
80007e9c:	03012703          	lw	x14,48(x2)
80007ea0:	3a070e63          	beq	x14,x0,8000825c <__gdtoa+0x13cc>
80007ea4:	03812683          	lw	x13,56(x2)
80007ea8:	03012603          	lw	x12,48(x2)
80007eac:	00068713          	addi	x14,x13,0
80007eb0:	00d65463          	bge	x12,x13,80007eb8 <__gdtoa+0x1028>
80007eb4:	00060713          	addi	x14,x12,0
80007eb8:	03812683          	lw	x13,56(x2)
80007ebc:	08e12623          	sw	x14,140(x2)
80007ec0:	40e689b3          	sub	x19,x13,x14
80007ec4:	03012683          	lw	x13,48(x2)
80007ec8:	40e68733          	sub	x14,x13,x14
80007ecc:	02e12823          	sw	x14,48(x2)
80007ed0:	03c12703          	lw	x14,60(x2)
80007ed4:	38071a63          	bne	x14,x0,80008268 <__gdtoa+0x13d8>
80007ed8:	03312c23          	sw	x19,56(x2)
80007edc:	00000913          	addi	x18,x0,0
80007ee0:	aedff06f          	jal	x0,800079cc <__gdtoa+0xb3c>
80007ee4:	05812703          	lw	x14,88(x2)
80007ee8:	46070a63          	beq	x14,x0,8000835c <__gdtoa+0x14cc>
80007eec:	03812703          	lw	x14,56(x2)
80007ef0:	00e48633          	add	x12,x9,x14
80007ef4:	6cc04063          	blt	x0,x12,800085b4 <__gdtoa+0x1724>
80007ef8:	04412703          	lw	x14,68(x2)
80007efc:	00090a13          	addi	x20,x18,0
80007f00:	7a071e63          	bne	x14,x0,800086bc <__gdtoa+0x182c>
80007f04:	ffe80713          	addi	x14,x16,-2
80007f08:	02e12623          	sw	x14,44(x2)
80007f0c:	00100693          	addi	x13,x0,1
80007f10:	01012423          	sw	x16,8(x2)
80007f14:	000a0993          	addi	x19,x20,0
80007f18:	00078b13          	addi	x22,x15,0
80007f1c:	00030b93          	addi	x23,x6,0
80007f20:	02f12823          	sw	x15,48(x2)
80007f24:	000b8593          	addi	x11,x23,0
80007f28:	00040513          	addi	x10,x8,0
80007f2c:	08d12623          	sw	x13,140(x2)
80007f30:	505000ef          	jal	x1,80008c34 <__quorem_D2A>
80007f34:	00090593          	addi	x11,x18,0
80007f38:	00050a93          	addi	x21,x10,0
80007f3c:	00050c13          	addi	x24,x10,0
80007f40:	00040513          	addi	x10,x8,0
80007f44:	32d010ef          	jal	x1,80009a70 <__mcmp>
80007f48:	000b8593          	addi	x11,x23,0
80007f4c:	00050493          	addi	x9,x10,0
80007f50:	00098613          	addi	x12,x19,0
80007f54:	000d8513          	addi	x10,x27,0
80007f58:	371010ef          	jal	x1,80009ac8 <__mdiff>
80007f5c:	00050593          	addi	x11,x10,0
80007f60:	be0504e3          	beq	x10,x0,80007b48 <__gdtoa+0xcb8>
80007f64:	00c52783          	lw	x15,12(x10)
80007f68:	030a8a93          	addi	x21,x21,48
80007f6c:	0a078e63          	beq	x15,x0,80008028 <__gdtoa+0x1198>
80007f70:	000d8513          	addi	x10,x27,0
80007f74:	0c4010ef          	jal	x1,80009038 <_Bfree>
80007f78:	00100593          	addi	x11,x0,1
80007f7c:	0604c2e3          	blt	x9,x0,800087e0 <__gdtoa+0x1950>
80007f80:	00012783          	lw	x15,0(x2)
80007f84:	00f4e4b3          	or	x9,x9,x15
80007f88:	00049a63          	bne	x9,x0,80007f9c <__gdtoa+0x110c>
80007f8c:	01412783          	lw	x15,20(x2)
80007f90:	0007a783          	lw	x15,0(x15)
80007f94:	0017f793          	andi	x15,x15,1
80007f98:	040784e3          	beq	x15,x0,800087e0 <__gdtoa+0x1950>
80007f9c:	001b0493          	addi	x9,x22,1
80007fa0:	00048693          	addi	x13,x9,0
80007fa4:	00b05663          	bge	x0,x11,80007fb0 <__gdtoa+0x1120>
80007fa8:	02c12783          	lw	x15,44(x2)
80007fac:	160796e3          	bne	x15,x0,80008918 <__gdtoa+0x1a88>
80007fb0:	ff548fa3          	sb	x21,-1(x9)
80007fb4:	08c12783          	lw	x15,140(x2)
80007fb8:	02412703          	lw	x14,36(x2)
80007fbc:	12e78ce3          	beq	x15,x14,800088f4 <__gdtoa+0x1a64>
80007fc0:	00040593          	addi	x11,x8,0
80007fc4:	00000693          	addi	x13,x0,0
80007fc8:	00a00613          	addi	x12,x0,10
80007fcc:	000d8513          	addi	x10,x27,0
80007fd0:	08c010ef          	jal	x1,8000905c <__multadd>
80007fd4:	00050413          	addi	x8,x10,0
80007fd8:	b60508e3          	beq	x10,x0,80007b48 <__gdtoa+0xcb8>
80007fdc:	00090593          	addi	x11,x18,0
80007fe0:	00000693          	addi	x13,x0,0
80007fe4:	00a00613          	addi	x12,x0,10
80007fe8:	000d8513          	addi	x10,x27,0
80007fec:	11390e63          	beq	x18,x19,80008108 <__gdtoa+0x1278>
80007ff0:	06c010ef          	jal	x1,8000905c <__multadd>
80007ff4:	00050913          	addi	x18,x10,0
80007ff8:	b40508e3          	beq	x10,x0,80007b48 <__gdtoa+0xcb8>
80007ffc:	00098593          	addi	x11,x19,0
80008000:	00000693          	addi	x13,x0,0
80008004:	00a00613          	addi	x12,x0,10
80008008:	000d8513          	addi	x10,x27,0
8000800c:	050010ef          	jal	x1,8000905c <__multadd>
80008010:	00050993          	addi	x19,x10,0
80008014:	b2050ae3          	beq	x10,x0,80007b48 <__gdtoa+0xcb8>
80008018:	08c12683          	lw	x13,140(x2)
8000801c:	00048b13          	addi	x22,x9,0
80008020:	00168693          	addi	x13,x13,1
80008024:	f01ff06f          	jal	x0,80007f24 <__gdtoa+0x1094>
80008028:	02a12023          	sw	x10,32(x2)
8000802c:	00040513          	addi	x10,x8,0
80008030:	241010ef          	jal	x1,80009a70 <__mcmp>
80008034:	02012583          	lw	x11,32(x2)
80008038:	00050a13          	addi	x20,x10,0
8000803c:	000d8513          	addi	x10,x27,0
80008040:	7f9000ef          	jal	x1,80009038 <_Bfree>
80008044:	00012703          	lw	x14,0(x2)
80008048:	00ea65b3          	or	x11,x20,x14
8000804c:	58059c63          	bne	x11,x0,800085e4 <__gdtoa+0x1754>
80008050:	01412783          	lw	x15,20(x2)
80008054:	00812703          	lw	x14,8(x2)
80008058:	0007a783          	lw	x15,0(x15)
8000805c:	0017f793          	andi	x15,x15,1
80008060:	00e7e7b3          	or	x15,x15,x14
80008064:	f0079ce3          	bne	x15,x0,80007f7c <__gdtoa+0x10ec>
80008068:	03900693          	addi	x13,x0,57
8000806c:	00098a13          	addi	x20,x19,0
80008070:	03012783          	lw	x15,48(x2)
80008074:	000a8993          	addi	x19,x21,0
80008078:	000b0713          	addi	x14,x22,0
8000807c:	000b8313          	addi	x6,x23,0
80008080:	4eda8863          	beq	x21,x13,80008570 <__gdtoa+0x16e0>
80008084:	229058e3          	bge	x0,x9,80008ab4 <__gdtoa+0x1c24>
80008088:	031c0993          	addi	x19,x24,49
8000808c:	02000d13          	addi	x26,x0,32
80008090:	00090893          	addi	x17,x18,0
80008094:	01370023          	sb	x19,0(x14)
80008098:	000a0913          	addi	x18,x20,0
8000809c:	00170993          	addi	x19,x14,1
800080a0:	00030593          	addi	x11,x6,0
800080a4:	000d8513          	addi	x10,x27,0
800080a8:	00f12423          	sw	x15,8(x2)
800080ac:	01112023          	sw	x17,0(x2)
800080b0:	789000ef          	jal	x1,80009038 <_Bfree>
800080b4:	00012883          	lw	x17,0(x2)
800080b8:	00812783          	lw	x15,8(x2)
800080bc:	20090ce3          	beq	x18,x0,80008ad4 <__gdtoa+0x1c44>
800080c0:	a0088ae3          	beq	x17,x0,80007ad4 <__gdtoa+0xc44>
800080c4:	a12888e3          	beq	x17,x18,80007ad4 <__gdtoa+0xc44>
800080c8:	00088593          	addi	x11,x17,0
800080cc:	000d8513          	addi	x10,x27,0
800080d0:	00f12023          	sw	x15,0(x2)
800080d4:	765000ef          	jal	x1,80009038 <_Bfree>
800080d8:	00012783          	lw	x15,0(x2)
800080dc:	9f9ff06f          	jal	x0,80007ad4 <__gdtoa+0xc44>
800080e0:	00000593          	addi	x11,x0,0
800080e4:	000d8513          	addi	x10,x27,0
800080e8:	00f12023          	sw	x15,0(x2)
800080ec:	74d000ef          	jal	x1,80009038 <_Bfree>
800080f0:	00812783          	lw	x15,8(x2)
800080f4:	01000d13          	addi	x26,x0,16
800080f8:	40f00c33          	sub	x24,x0,x15
800080fc:	00012783          	lw	x15,0(x2)
80008100:	00078993          	addi	x19,x15,0
80008104:	d14ff06f          	jal	x0,80007618 <__gdtoa+0x788>
80008108:	755000ef          	jal	x1,8000905c <__multadd>
8000810c:	00050913          	addi	x18,x10,0
80008110:	a2050ce3          	beq	x10,x0,80007b48 <__gdtoa+0xcb8>
80008114:	00050993          	addi	x19,x10,0
80008118:	f01ff06f          	jal	x0,80008018 <__gdtoa+0x1188>
8000811c:	00040593          	addi	x11,x8,0
80008120:	000d8513          	addi	x10,x27,0
80008124:	02f12a23          	sw	x15,52(x2)
80008128:	02612623          	sw	x6,44(x2)
8000812c:	03012023          	sw	x16,32(x2)
80008130:	7c0010ef          	jal	x1,800098f0 <__lshift>
80008134:	00050413          	addi	x8,x10,0
80008138:	a00508e3          	beq	x10,x0,80007b48 <__gdtoa+0xcb8>
8000813c:	08c12703          	lw	x14,140(x2)
80008140:	03412783          	lw	x15,52(x2)
80008144:	02c12303          	lw	x6,44(x2)
80008148:	02012803          	lw	x16,32(x2)
8000814c:	8e5ff06f          	jal	x0,80007a30 <__gdtoa+0xba0>
80008150:	00000a93          	addi	x21,x0,0
80008154:	00500793          	addi	x15,x0,5
80008158:	00f12023          	sw	x15,0(x2)
8000815c:	00100793          	addi	x15,x0,1
80008160:	04f12c23          	sw	x15,88(x2)
80008164:	9a4ff06f          	jal	x0,80007308 <__gdtoa+0x478>
80008168:	02412703          	lw	x14,36(x2)
8000816c:	03c12683          	lw	x13,60(x2)
80008170:	fff70713          	addi	x14,x14,-1
80008174:	2ce6ce63          	blt	x13,x14,80008450 <__gdtoa+0x15c0>
80008178:	40e68a33          	sub	x20,x13,x14
8000817c:	02412703          	lw	x14,36(x2)
80008180:	0c0750e3          	bge	x14,x0,80008a40 <__gdtoa+0x1bb0>
80008184:	03812703          	lw	x14,56(x2)
80008188:	02412683          	lw	x13,36(x2)
8000818c:	08012623          	sw	x0,140(x2)
80008190:	00070993          	addi	x19,x14,0
80008194:	40d70733          	sub	x14,x14,x13
80008198:	02e12c23          	sw	x14,56(x2)
8000819c:	f94ff06f          	jal	x0,80007930 <__gdtoa+0xaa0>
800081a0:	00050593          	addi	x11,x10,0
800081a4:	00070613          	addi	x12,x14,0
800081a8:	000d8513          	addi	x10,x27,0
800081ac:	5e8010ef          	jal	x1,80009794 <__pow5mult>
800081b0:	00050313          	addi	x6,x10,0
800081b4:	98050ae3          	beq	x10,x0,80007b48 <__gdtoa+0xcb8>
800081b8:	00012783          	lw	x15,0(x2)
800081bc:	03412803          	lw	x16,52(x2)
800081c0:	0027a713          	slti	x14,x15,2
800081c4:	03c12783          	lw	x15,60(x2)
800081c8:	00070663          	beq	x14,x0,800081d4 <__gdtoa+0x1344>
800081cc:	fff48493          	addi	x9,x9,-1
800081d0:	02048c63          	beq	x9,x0,80008208 <__gdtoa+0x1378>
800081d4:	04012223          	sw	x0,68(x2)
800081d8:	01032703          	lw	x14,16(x6)
800081dc:	02f12a23          	sw	x15,52(x2)
800081e0:	03012623          	sw	x16,44(x2)
800081e4:	00271713          	slli	x14,x14,0x2
800081e8:	00e30733          	add	x14,x6,x14
800081ec:	01072503          	lw	x10,16(x14)
800081f0:	02612023          	sw	x6,32(x2)
800081f4:	0f0010ef          	jal	x1,800092e4 <__hi0bits>
800081f8:	03412783          	lw	x15,52(x2)
800081fc:	02c12803          	lw	x16,44(x2)
80008200:	02012303          	lw	x6,32(x2)
80008204:	80dff06f          	jal	x0,80007a10 <__gdtoa+0xb80>
80008208:	02c12703          	lw	x14,44(x2)
8000820c:	02012683          	lw	x13,32(x2)
80008210:	00472703          	lw	x14,4(x14)
80008214:	00170713          	addi	x14,x14,1
80008218:	fad75ee3          	bge	x14,x13,800081d4 <__gdtoa+0x1344>
8000821c:	03012703          	lw	x14,48(x2)
80008220:	00198993          	addi	x19,x19,1
80008224:	00170713          	addi	x14,x14,1
80008228:	02e12823          	sw	x14,48(x2)
8000822c:	00100713          	addi	x14,x0,1
80008230:	04e12223          	sw	x14,68(x2)
80008234:	fa5ff06f          	jal	x0,800081d8 <__gdtoa+0x1348>
80008238:	00100793          	addi	x15,x0,1
8000823c:	40e787b3          	sub	x15,x15,x14
80008240:	02f12c23          	sw	x15,56(x2)
80008244:	01812783          	lw	x15,24(x2)
80008248:	04012623          	sw	x0,76(x2)
8000824c:	02012e23          	sw	x0,60(x2)
80008250:	02f12823          	sw	x15,48(x2)
80008254:	04f12223          	sw	x15,68(x2)
80008258:	868ff06f          	jal	x0,800072c0 <__gdtoa+0x430>
8000825c:	03c12703          	lw	x14,60(x2)
80008260:	03812983          	lw	x19,56(x2)
80008264:	c6070ce3          	beq	x14,x0,80007edc <__gdtoa+0x104c>
80008268:	03c12603          	lw	x12,60(x2)
8000826c:	00040593          	addi	x11,x8,0
80008270:	000d8513          	addi	x10,x27,0
80008274:	04f12023          	sw	x15,64(x2)
80008278:	03012a23          	sw	x16,52(x2)
8000827c:	518010ef          	jal	x1,80009794 <__pow5mult>
80008280:	00050413          	addi	x8,x10,0
80008284:	8c0502e3          	beq	x10,x0,80007b48 <__gdtoa+0xcb8>
80008288:	04012783          	lw	x15,64(x2)
8000828c:	03412803          	lw	x16,52(x2)
80008290:	03312c23          	sw	x19,56(x2)
80008294:	00000913          	addi	x18,x0,0
80008298:	f34ff06f          	jal	x0,800079cc <__gdtoa+0xb3c>
8000829c:	00012603          	lw	x12,0(x2)
800082a0:	00100713          	addi	x14,x0,1
800082a4:	ecc742e3          	blt	x14,x12,80008168 <__gdtoa+0x12d8>
800082a8:	03012703          	lw	x14,48(x2)
800082ac:	03c12a03          	lw	x20,60(x2)
800082b0:	00d70733          	add	x14,x14,x13
800082b4:	02e12823          	sw	x14,48(x2)
800082b8:	03812703          	lw	x14,56(x2)
800082bc:	00e689b3          	add	x19,x13,x14
800082c0:	e70ff06f          	jal	x0,80007930 <__gdtoa+0xaa0>
800082c4:	00030593          	addi	x11,x6,0
800082c8:	00040513          	addi	x10,x8,0
800082cc:	02f12823          	sw	x15,48(x2)
800082d0:	03012623          	sw	x16,44(x2)
800082d4:	02612023          	sw	x6,32(x2)
800082d8:	798010ef          	jal	x1,80009a70 <__mcmp>
800082dc:	02012303          	lw	x6,32(x2)
800082e0:	02c12803          	lw	x16,44(x2)
800082e4:	03012783          	lw	x15,48(x2)
800082e8:	f4055e63          	bge	x10,x0,80007a44 <__gdtoa+0xbb4>
800082ec:	00040593          	addi	x11,x8,0
800082f0:	00000693          	addi	x13,x0,0
800082f4:	00a00613          	addi	x12,x0,10
800082f8:	000d8513          	addi	x10,x27,0
800082fc:	02f12623          	sw	x15,44(x2)
80008300:	02612223          	sw	x6,36(x2)
80008304:	03012023          	sw	x16,32(x2)
80008308:	555000ef          	jal	x1,8000905c <__multadd>
8000830c:	00050413          	addi	x8,x10,0
80008310:	82050ce3          	beq	x10,x0,80007b48 <__gdtoa+0xcb8>
80008314:	01812783          	lw	x15,24(x2)
80008318:	05812703          	lw	x14,88(x2)
8000831c:	02012803          	lw	x16,32(x2)
80008320:	fff78793          	addi	x15,x15,-1
80008324:	00f12c23          	sw	x15,24(x2)
80008328:	02412303          	lw	x6,36(x2)
8000832c:	02c12783          	lw	x15,44(x2)
80008330:	6c071463          	bne	x14,x0,800089f8 <__gdtoa+0x1b68>
80008334:	04812703          	lw	x14,72(x2)
80008338:	00e04e63          	blt	x0,x14,80008354 <__gdtoa+0x14c4>
8000833c:	00012703          	lw	x14,0(x2)
80008340:	00372713          	slti	x14,x14,3
80008344:	00071863          	bne	x14,x0,80008354 <__gdtoa+0x14c4>
80008348:	04812703          	lw	x14,72(x2)
8000834c:	02e12223          	sw	x14,36(x2)
80008350:	f08ff06f          	jal	x0,80007a58 <__gdtoa+0xbc8>
80008354:	04812703          	lw	x14,72(x2)
80008358:	02e12223          	sw	x14,36(x2)
8000835c:	00090b13          	addi	x22,x18,0
80008360:	00078493          	addi	x9,x15,0
80008364:	02412903          	lw	x18,36(x2)
80008368:	00100713          	addi	x14,x0,1
8000836c:	00080a93          	addi	x21,x16,0
80008370:	00030a13          	addi	x20,x6,0
80008374:	00078b93          	addi	x23,x15,0
80008378:	0200006f          	jal	x0,80008398 <__gdtoa+0x1508>
8000837c:	00040593          	addi	x11,x8,0
80008380:	000d8513          	addi	x10,x27,0
80008384:	4d9000ef          	jal	x1,8000905c <__multadd>
80008388:	00050413          	addi	x8,x10,0
8000838c:	fa050e63          	beq	x10,x0,80007b48 <__gdtoa+0xcb8>
80008390:	08c12703          	lw	x14,140(x2)
80008394:	00170713          	addi	x14,x14,1
80008398:	000a0593          	addi	x11,x20,0
8000839c:	00040513          	addi	x10,x8,0
800083a0:	08e12623          	sw	x14,140(x2)
800083a4:	091000ef          	jal	x1,80008c34 <__quorem_D2A>
800083a8:	00148493          	addi	x9,x9,1
800083ac:	03050993          	addi	x19,x10,48
800083b0:	ff348fa3          	sb	x19,-1(x9)
800083b4:	08c12783          	lw	x15,140(x2)
800083b8:	00000693          	addi	x13,x0,0
800083bc:	00a00613          	addi	x12,x0,10
800083c0:	fb27cee3          	blt	x15,x18,8000837c <__gdtoa+0x14ec>
800083c4:	000a8813          	addi	x16,x21,0
800083c8:	000b0913          	addi	x18,x22,0
800083cc:	000a0313          	addi	x6,x20,0
800083d0:	000b8793          	addi	x15,x23,0
800083d4:	00000893          	addi	x17,x0,0
800083d8:	36080063          	beq	x16,x0,80008738 <__gdtoa+0x18a8>
800083dc:	00200713          	addi	x14,x0,2
800083e0:	3ae80063          	beq	x16,x14,80008780 <__gdtoa+0x18f0>
800083e4:	01042683          	lw	x13,16(x8)
800083e8:	00100713          	addi	x14,x0,1
800083ec:	18d74e63          	blt	x14,x13,80008588 <__gdtoa+0x16f8>
800083f0:	01442703          	lw	x14,20(x8)
800083f4:	18071a63          	bne	x14,x0,80008588 <__gdtoa+0x16f8>
800083f8:	00e03733          	sltu	x14,x0,x14
800083fc:	00471d13          	slli	x26,x14,0x4
80008400:	03000613          	addi	x12,x0,48
80008404:	00048993          	addi	x19,x9,0
80008408:	fff4c703          	lbu	x14,-1(x9)
8000840c:	fff48493          	addi	x9,x9,-1
80008410:	fec70ae3          	beq	x14,x12,80008404 <__gdtoa+0x1574>
80008414:	c8dff06f          	jal	x0,800080a0 <__gdtoa+0x1210>
80008418:	01412403          	lw	x8,20(x2)
8000841c:	02012783          	lw	x15,32(x2)
80008420:	9f8ff06f          	jal	x0,80007618 <__gdtoa+0x788>
80008424:	00812703          	lw	x14,8(x2)
80008428:	00078993          	addi	x19,x15,0
8000842c:	01000d13          	addi	x26,x0,16
80008430:	fff74713          	xori	x14,x14,-1
80008434:	00e12c23          	sw	x14,24(x2)
80008438:	e84ff06f          	jal	x0,80007abc <__gdtoa+0xc2c>
8000843c:	04012c23          	sw	x0,88(x2)
80008440:	c4cff06f          	jal	x0,8000788c <__gdtoa+0x9fc>
80008444:	00100793          	addi	x15,x0,1
80008448:	04f12c23          	sw	x15,88(x2)
8000844c:	c40ff06f          	jal	x0,8000788c <__gdtoa+0x9fc>
80008450:	03c12683          	lw	x13,60(x2)
80008454:	04412603          	lw	x12,68(x2)
80008458:	02e12e23          	sw	x14,60(x2)
8000845c:	40d706b3          	sub	x13,x14,x13
80008460:	00d606b3          	add	x13,x12,x13
80008464:	04d12223          	sw	x13,68(x2)
80008468:	02412683          	lw	x13,36(x2)
8000846c:	02412603          	lw	x12,36(x2)
80008470:	03812703          	lw	x14,56(x2)
80008474:	08d12623          	sw	x13,140(x2)
80008478:	03012683          	lw	x13,48(x2)
8000847c:	00c709b3          	add	x19,x14,x12
80008480:	00000a13          	addi	x20,x0,0
80008484:	00c686b3          	add	x13,x13,x12
80008488:	02d12823          	sw	x13,48(x2)
8000848c:	ca4ff06f          	jal	x0,80007930 <__gdtoa+0xaa0>
80008490:	00090593          	addi	x11,x18,0
80008494:	000a0613          	addi	x12,x20,0
80008498:	000d8513          	addi	x10,x27,0
8000849c:	04f12023          	sw	x15,64(x2)
800084a0:	03012a23          	sw	x16,52(x2)
800084a4:	2f0010ef          	jal	x1,80009794 <__pow5mult>
800084a8:	00050913          	addi	x18,x10,0
800084ac:	e8050e63          	beq	x10,x0,80007b48 <__gdtoa+0xcb8>
800084b0:	00050593          	addi	x11,x10,0
800084b4:	00040613          	addi	x12,x8,0
800084b8:	000d8513          	addi	x10,x27,0
800084bc:	094010ef          	jal	x1,80009550 <__multiply>
800084c0:	e8050463          	beq	x10,x0,80007b48 <__gdtoa+0xcb8>
800084c4:	00040593          	addi	x11,x8,0
800084c8:	04a12823          	sw	x10,80(x2)
800084cc:	000d8513          	addi	x10,x27,0
800084d0:	369000ef          	jal	x1,80009038 <_Bfree>
800084d4:	03c12703          	lw	x14,60(x2)
800084d8:	05012403          	lw	x8,80(x2)
800084dc:	03412803          	lw	x16,52(x2)
800084e0:	414707b3          	sub	x15,x14,x20
800084e4:	02f12e23          	sw	x15,60(x2)
800084e8:	00078713          	addi	x14,x15,0
800084ec:	04012783          	lw	x15,64(x2)
800084f0:	cc070e63          	beq	x14,x0,800079cc <__gdtoa+0xb3c>
800084f4:	cb0ff06f          	jal	x0,800079a4 <__gdtoa+0xb14>
800084f8:	02412683          	lw	x13,36(x2)
800084fc:	06012703          	lw	x14,96(x2)
80008500:	9e068663          	beq	x13,x0,800076ec <__gdtoa+0x85c>
80008504:	04812683          	lw	x13,72(x2)
80008508:	a6d05c63          	bge	x0,x13,80007780 <__gdtoa+0x8f0>
8000850c:	00070513          	addi	x10,x14,0
80008510:	fd81a603          	lw	x12,-40(x3) # 80011ca8 <_end_text+0x3c>
80008514:	fdc1a683          	lw	x13,-36(x3) # 80011cac <_end_text+0x40>
80008518:	000a0593          	addi	x11,x20,0
8000851c:	06f12023          	sw	x15,96(x2)
80008520:	5a4050ef          	jal	x1,8000dac4 <__muldf3>
80008524:	fe01a603          	lw	x12,-32(x3) # 80011cb0 <_end_text+0x44>
80008528:	fe41a683          	lw	x13,-28(x3) # 80011cb4 <_end_text+0x48>
8000852c:	00050a93          	addi	x21,x10,0
80008530:	00058b13          	addi	x22,x11,0
80008534:	04a12823          	sw	x10,80(x2)
80008538:	00058a13          	addi	x20,x11,0
8000853c:	588050ef          	jal	x1,8000dac4 <__muldf3>
80008540:	fe81a603          	lw	x12,-24(x3) # 80011cb8 <_end_text+0x4c>
80008544:	fec1a683          	lw	x13,-20(x3) # 80011cbc <_end_text+0x50>
80008548:	548040ef          	jal	x1,8000ca90 <__adddf3>
8000854c:	04812783          	lw	x15,72(x2)
80008550:	fcc00737          	lui	x14,0xfcc00
80008554:	00b70333          	add	x6,x14,x11
80008558:	04f12023          	sw	x15,64(x2)
8000855c:	fff00793          	addi	x15,x0,-1
80008560:	06f12623          	sw	x15,108(x2)
80008564:	00050993          	addi	x19,x10,0
80008568:	06012783          	lw	x15,96(x2)
8000856c:	eadfe06f          	jal	x0,80007418 <__gdtoa+0x588>
80008570:	00170613          	addi	x12,x14,1 # fcc00001 <_stack_top+0x74c00001>
80008574:	03900693          	addi	x13,x0,57
80008578:	00090893          	addi	x17,x18,0
8000857c:	00060493          	addi	x9,x12,0
80008580:	000a0913          	addi	x18,x20,0
80008584:	00d70023          	sb	x13,0(x14)
80008588:	03900613          	addi	x12,x0,57
8000858c:	0080006f          	jal	x0,80008594 <__gdtoa+0x1704>
80008590:	18978663          	beq	x15,x9,8000871c <__gdtoa+0x188c>
80008594:	fff4c683          	lbu	x13,-1(x9)
80008598:	00048993          	addi	x19,x9,0
8000859c:	fff48493          	addi	x9,x9,-1
800085a0:	fec688e3          	beq	x13,x12,80008590 <__gdtoa+0x1700>
800085a4:	00168693          	addi	x13,x13,1
800085a8:	00d48023          	sb	x13,0(x9)
800085ac:	02000d13          	addi	x26,x0,32
800085b0:	af1ff06f          	jal	x0,800080a0 <__gdtoa+0x1210>
800085b4:	00090593          	addi	x11,x18,0
800085b8:	000d8513          	addi	x10,x27,0
800085bc:	02f12623          	sw	x15,44(x2)
800085c0:	02612023          	sw	x6,32(x2)
800085c4:	01012423          	sw	x16,8(x2)
800085c8:	328010ef          	jal	x1,800098f0 <__lshift>
800085cc:	00812803          	lw	x16,8(x2)
800085d0:	02012303          	lw	x6,32(x2)
800085d4:	02c12783          	lw	x15,44(x2)
800085d8:	00050913          	addi	x18,x10,0
800085dc:	90051ee3          	bne	x10,x0,80007ef8 <__gdtoa+0x1068>
800085e0:	d68ff06f          	jal	x0,80007b48 <__gdtoa+0xcb8>
800085e4:	000a0593          	addi	x11,x20,0
800085e8:	995ff06f          	jal	x0,80007f7c <__gdtoa+0x10ec>
800085ec:	06c12703          	lw	x14,108(x2)
800085f0:	03100913          	addi	x18,x0,49
800085f4:	00170713          	addi	x14,x14,1
800085f8:	06e12623          	sw	x14,108(x2)
800085fc:	80cff06f          	jal	x0,80007608 <__gdtoa+0x778>
80008600:	03100713          	addi	x14,x0,49
80008604:	00e78023          	sb	x14,0(x15)
80008608:	00000593          	addi	x11,x0,0
8000860c:	000d8513          	addi	x10,x27,0
80008610:	00178993          	addi	x19,x15,1
80008614:	00f12023          	sw	x15,0(x2)
80008618:	221000ef          	jal	x1,80009038 <_Bfree>
8000861c:	00012783          	lw	x15,0(x2)
80008620:	00200c13          	addi	x24,x0,2
80008624:	02000d13          	addi	x26,x0,32
80008628:	ff1fe06f          	jal	x0,80007618 <__gdtoa+0x788>
8000862c:	00090693          	addi	x13,x18,0
80008630:	00050613          	addi	x12,x10,0
80008634:	00f12423          	sw	x15,8(x2)
80008638:	458040ef          	jal	x1,8000ca90 <__adddf3>
8000863c:	00012a03          	lw	x20,0(x2)
80008640:	00412a83          	lw	x21,4(x2)
80008644:	00050b13          	addi	x22,x10,0
80008648:	000a0613          	addi	x12,x20,0
8000864c:	000a8693          	addi	x13,x21,0
80008650:	00058b93          	addi	x23,x11,0
80008654:	2c0050ef          	jal	x1,8000d914 <__gedf2>
80008658:	fff9c903          	lbu	x18,-1(x19)
8000865c:	00812783          	lw	x15,8(x2)
80008660:	12a04c63          	blt	x0,x10,80008798 <__gdtoa+0x1908>
80008664:	000a0613          	addi	x12,x20,0
80008668:	000a8693          	addi	x13,x21,0
8000866c:	000b0513          	addi	x10,x22,0
80008670:	000b8593          	addi	x11,x23,0
80008674:	00f12023          	sw	x15,0(x2)
80008678:	218050ef          	jal	x1,8000d890 <__eqdf2>
8000867c:	00012783          	lw	x15,0(x2)
80008680:	00051663          	bne	x10,x0,8000868c <__gdtoa+0x17fc>
80008684:	0014f693          	andi	x13,x9,1
80008688:	10069863          	bne	x13,x0,80008798 <__gdtoa+0x1908>
8000868c:	01812703          	lw	x14,24(x2)
80008690:	00098693          	addi	x13,x19,0
80008694:	01000d13          	addi	x26,x0,16
80008698:	06e12623          	sw	x14,108(x2)
8000869c:	03000593          	addi	x11,x0,48
800086a0:	fff6c703          	lbu	x14,-1(x13)
800086a4:	00068993          	addi	x19,x13,0
800086a8:	fff68693          	addi	x13,x13,-1
800086ac:	feb70ae3          	beq	x14,x11,800086a0 <__gdtoa+0x1810>
800086b0:	06c12703          	lw	x14,108(x2)
800086b4:	00170c13          	addi	x24,x14,1
800086b8:	f61fe06f          	jal	x0,80007618 <__gdtoa+0x788>
800086bc:	00492583          	lw	x11,4(x18)
800086c0:	000d8513          	addi	x10,x27,0
800086c4:	02f12623          	sw	x15,44(x2)
800086c8:	02612023          	sw	x6,32(x2)
800086cc:	01012423          	sw	x16,8(x2)
800086d0:	0bd000ef          	jal	x1,80008f8c <_Balloc>
800086d4:	00050493          	addi	x9,x10,0
800086d8:	c6050863          	beq	x10,x0,80007b48 <__gdtoa+0xcb8>
800086dc:	01092603          	lw	x12,16(x18)
800086e0:	00c90593          	addi	x11,x18,12
800086e4:	00c50513          	addi	x10,x10,12
800086e8:	00260613          	addi	x12,x12,2
800086ec:	00261613          	slli	x12,x12,0x2
800086f0:	978fe0ef          	jal	x1,80006868 <memcpy>
800086f4:	00048593          	addi	x11,x9,0
800086f8:	000d8513          	addi	x10,x27,0
800086fc:	00100613          	addi	x12,x0,1
80008700:	1f0010ef          	jal	x1,800098f0 <__lshift>
80008704:	00812803          	lw	x16,8(x2)
80008708:	02012303          	lw	x6,32(x2)
8000870c:	02c12783          	lw	x15,44(x2)
80008710:	00050a13          	addi	x20,x10,0
80008714:	fe051863          	bne	x10,x0,80007f04 <__gdtoa+0x1074>
80008718:	c30ff06f          	jal	x0,80007b48 <__gdtoa+0xcb8>
8000871c:	01812703          	lw	x14,24(x2)
80008720:	03100693          	addi	x13,x0,49
80008724:	00d78023          	sb	x13,0(x15)
80008728:	00170713          	addi	x14,x14,1
8000872c:	00e12c23          	sw	x14,24(x2)
80008730:	02000d13          	addi	x26,x0,32
80008734:	96dff06f          	jal	x0,800080a0 <__gdtoa+0x1210>
80008738:	00040593          	addi	x11,x8,0
8000873c:	00100613          	addi	x12,x0,1
80008740:	000d8513          	addi	x10,x27,0
80008744:	00f12a23          	sw	x15,20(x2)
80008748:	00612023          	sw	x6,0(x2)
8000874c:	01112423          	sw	x17,8(x2)
80008750:	1a0010ef          	jal	x1,800098f0 <__lshift>
80008754:	00050413          	addi	x8,x10,0
80008758:	be050863          	beq	x10,x0,80007b48 <__gdtoa+0xcb8>
8000875c:	00012583          	lw	x11,0(x2)
80008760:	310010ef          	jal	x1,80009a70 <__mcmp>
80008764:	00012303          	lw	x6,0(x2)
80008768:	00812883          	lw	x17,8(x2)
8000876c:	01412783          	lw	x15,20(x2)
80008770:	e0a04ce3          	blt	x0,x10,80008588 <__gdtoa+0x16f8>
80008774:	00051663          	bne	x10,x0,80008780 <__gdtoa+0x18f0>
80008778:	0019f993          	andi	x19,x19,1
8000877c:	e00996e3          	bne	x19,x0,80008588 <__gdtoa+0x16f8>
80008780:	01042683          	lw	x13,16(x8)
80008784:	00100713          	addi	x14,x0,1
80008788:	01000d13          	addi	x26,x0,16
8000878c:	c6d74ae3          	blt	x14,x13,80008400 <__gdtoa+0x1570>
80008790:	01442703          	lw	x14,20(x8)
80008794:	c65ff06f          	jal	x0,800083f8 <__gdtoa+0x1568>
80008798:	01812703          	lw	x14,24(x2)
8000879c:	06e12623          	sw	x14,108(x2)
800087a0:	e45fe06f          	jal	x0,800075e4 <__gdtoa+0x754>
800087a4:	07012783          	lw	x15,112(x2)
800087a8:	00040a13          	addi	x20,x8,0
800087ac:	000c0413          	addi	x8,x24,0
800087b0:	00000693          	addi	x13,x0,0
800087b4:	000a0513          	addi	x10,x20,0
800087b8:	000b8593          	addi	x11,x23,0
800087bc:	00000613          	addi	x12,x0,0
800087c0:	00f12023          	sw	x15,0(x2)
800087c4:	0cc050ef          	jal	x1,8000d890 <__eqdf2>
800087c8:	06c12783          	lw	x15,108(x2)
800087cc:	00a036b3          	sltu	x13,x0,x10
800087d0:	00469d13          	slli	x26,x13,0x4
800087d4:	00178c13          	addi	x24,x15,1
800087d8:	00012783          	lw	x15,0(x2)
800087dc:	e3dfe06f          	jal	x0,80007618 <__gdtoa+0x788>
800087e0:	00812803          	lw	x16,8(x2)
800087e4:	00098a13          	addi	x20,x19,0
800087e8:	03012783          	lw	x15,48(x2)
800087ec:	000a8993          	addi	x19,x21,0
800087f0:	000b0713          	addi	x14,x22,0
800087f4:	000b8313          	addi	x6,x23,0
800087f8:	14080c63          	beq	x16,x0,80008950 <__gdtoa+0x1ac0>
800087fc:	01042603          	lw	x12,16(x8)
80008800:	00100693          	addi	x13,x0,1
80008804:	24c6de63          	bge	x13,x12,80008a60 <__gdtoa+0x1bd0>
80008808:	00200693          	addi	x13,x0,2
8000880c:	26d80263          	beq	x16,x13,80008a70 <__gdtoa+0x1be0>
80008810:	00090b13          	addi	x22,x18,0
80008814:	000a0493          	addi	x9,x20,0
80008818:	00070913          	addi	x18,x14,0
8000881c:	00030a93          	addi	x21,x6,0
80008820:	00078b93          	addi	x23,x15,0
80008824:	0240006f          	jal	x0,80008848 <__gdtoa+0x19b8>
80008828:	035000ef          	jal	x1,8000905c <__multadd>
8000882c:	000a8593          	addi	x11,x21,0
80008830:	00050413          	addi	x8,x10,0
80008834:	00190913          	addi	x18,x18,1
80008838:	b0050863          	beq	x10,x0,80007b48 <__gdtoa+0xcb8>
8000883c:	3f8000ef          	jal	x1,80008c34 <__quorem_D2A>
80008840:	00098493          	addi	x9,x19,0
80008844:	03050993          	addi	x19,x10,48
80008848:	00048593          	addi	x11,x9,0
8000884c:	000a8513          	addi	x10,x21,0
80008850:	220010ef          	jal	x1,80009a70 <__mcmp>
80008854:	00000693          	addi	x13,x0,0
80008858:	00a00613          	addi	x12,x0,10
8000885c:	20a05e63          	bge	x0,x10,80008a78 <__gdtoa+0x1be8>
80008860:	01390023          	sb	x19,0(x18)
80008864:	00048593          	addi	x11,x9,0
80008868:	000d8513          	addi	x10,x27,0
8000886c:	7f0000ef          	jal	x1,8000905c <__multadd>
80008870:	00050993          	addi	x19,x10,0
80008874:	00000693          	addi	x13,x0,0
80008878:	00a00613          	addi	x12,x0,10
8000887c:	00040593          	addi	x11,x8,0
80008880:	000d8513          	addi	x10,x27,0
80008884:	ac098263          	beq	x19,x0,80007b48 <__gdtoa+0xcb8>
80008888:	fa9b10e3          	bne	x22,x9,80008828 <__gdtoa+0x1998>
8000888c:	00098b13          	addi	x22,x19,0
80008890:	f99ff06f          	jal	x0,80008828 <__gdtoa+0x1998>
80008894:	05c12703          	lw	x14,92(x2)
80008898:	07812903          	lw	x18,120(x2)
8000889c:	07c12483          	lw	x9,124(x2)
800088a0:	04e12823          	sw	x14,80(x2)
800088a4:	03412703          	lw	x14,52(x2)
800088a8:	07012783          	lw	x15,112(x2)
800088ac:	07412883          	lw	x17,116(x2)
800088b0:	06812a03          	lw	x20,104(x2)
800088b4:	000c0413          	addi	x8,x24,0
800088b8:	00000813          	addi	x16,x0,0
800088bc:	00074463          	blt	x14,x0,800088c4 <__gdtoa+0x1a34>
800088c0:	ee9fe06f          	jal	x0,800077a8 <__gdtoa+0x918>
800088c4:	ff1fe06f          	jal	x0,800078b4 <__gdtoa+0xa24>
800088c8:	00000613          	addi	x12,x0,0
800088cc:	00000693          	addi	x13,x0,0
800088d0:	00088513          	addi	x10,x17,0
800088d4:	000e8593          	addi	x11,x29,0
800088d8:	00f12023          	sw	x15,0(x2)
800088dc:	7b5040ef          	jal	x1,8000d890 <__eqdf2>
800088e0:	00a03633          	sltu	x12,x0,x10
800088e4:	00012783          	lw	x15,0(x2)
800088e8:	00098693          	addi	x13,x19,0
800088ec:	00461d13          	slli	x26,x12,0x4
800088f0:	dadff06f          	jal	x0,8000869c <__gdtoa+0x180c>
800088f4:	00098713          	addi	x14,x19,0
800088f8:	00090893          	addi	x17,x18,0
800088fc:	00812803          	lw	x16,8(x2)
80008900:	03012783          	lw	x15,48(x2)
80008904:	000a8993          	addi	x19,x21,0
80008908:	00068493          	addi	x9,x13,0
8000890c:	000b8313          	addi	x6,x23,0
80008910:	00070913          	addi	x18,x14,0
80008914:	ac5ff06f          	jal	x0,800083d8 <__gdtoa+0x1548>
80008918:	03900693          	addi	x13,x0,57
8000891c:	03012783          	lw	x15,48(x2)
80008920:	00098a13          	addi	x20,x19,0
80008924:	000b0713          	addi	x14,x22,0
80008928:	000b8313          	addi	x6,x23,0
8000892c:	00048613          	addi	x12,x9,0
80008930:	c4da82e3          	beq	x21,x13,80008574 <__gdtoa+0x16e4>
80008934:	001a8993          	addi	x19,x21,1
80008938:	013b0023          	sb	x19,0(x22)
8000893c:	00090893          	addi	x17,x18,0
80008940:	00048993          	addi	x19,x9,0
80008944:	000a0913          	addi	x18,x20,0
80008948:	02000d13          	addi	x26,x0,32
8000894c:	f54ff06f          	jal	x0,800080a0 <__gdtoa+0x1210>
80008950:	04b05863          	bge	x0,x11,800089a0 <__gdtoa+0x1b10>
80008954:	00040593          	addi	x11,x8,0
80008958:	00100613          	addi	x12,x0,1
8000895c:	000d8513          	addi	x10,x27,0
80008960:	00f12a23          	sw	x15,20(x2)
80008964:	00612023          	sw	x6,0(x2)
80008968:	00e12423          	sw	x14,8(x2)
8000896c:	785000ef          	jal	x1,800098f0 <__lshift>
80008970:	00050413          	addi	x8,x10,0
80008974:	9c050a63          	beq	x10,x0,80007b48 <__gdtoa+0xcb8>
80008978:	00012583          	lw	x11,0(x2)
8000897c:	0f4010ef          	jal	x1,80009a70 <__mcmp>
80008980:	00012303          	lw	x6,0(x2)
80008984:	00812703          	lw	x14,8(x2)
80008988:	01412783          	lw	x15,20(x2)
8000898c:	10a05a63          	bge	x0,x10,80008aa0 <__gdtoa+0x1c10>
80008990:	03900693          	addi	x13,x0,57
80008994:	bcd98ee3          	beq	x19,x13,80008570 <__gdtoa+0x16e0>
80008998:	031c0993          	addi	x19,x24,49
8000899c:	02000813          	addi	x16,x0,32
800089a0:	01042603          	lw	x12,16(x8)
800089a4:	00100693          	addi	x13,x0,1
800089a8:	01000d13          	addi	x26,x0,16
800089ac:	eec6c263          	blt	x13,x12,80008090 <__gdtoa+0x1200>
800089b0:	01442683          	lw	x13,20(x8)
800089b4:	ec069e63          	bne	x13,x0,80008090 <__gdtoa+0x1200>
800089b8:	00080d13          	addi	x26,x16,0
800089bc:	ed4ff06f          	jal	x0,80008090 <__gdtoa+0x1200>
800089c0:	02412703          	lw	x14,36(x2)
800089c4:	03c12683          	lw	x13,60(x2)
800089c8:	fff70713          	addi	x14,x14,-1
800089cc:	a8e6c2e3          	blt	x13,x14,80008450 <__gdtoa+0x15c0>
800089d0:	02412603          	lw	x12,36(x2)
800089d4:	03012683          	lw	x13,48(x2)
800089d8:	08c12623          	sw	x12,140(x2)
800089dc:	00c686b3          	add	x13,x13,x12
800089e0:	02d12823          	sw	x13,48(x2)
800089e4:	03c12683          	lw	x13,60(x2)
800089e8:	40e68a33          	sub	x20,x13,x14
800089ec:	03812703          	lw	x14,56(x2)
800089f0:	00c709b3          	add	x19,x14,x12
800089f4:	f3dfe06f          	jal	x0,80007930 <__gdtoa+0xaa0>
800089f8:	00090593          	addi	x11,x18,0
800089fc:	00000693          	addi	x13,x0,0
80008a00:	00a00613          	addi	x12,x0,10
80008a04:	000d8513          	addi	x10,x27,0
80008a08:	654000ef          	jal	x1,8000905c <__multadd>
80008a0c:	00050913          	addi	x18,x10,0
80008a10:	92050c63          	beq	x10,x0,80007b48 <__gdtoa+0xcb8>
80008a14:	04812703          	lw	x14,72(x2)
80008a18:	02012803          	lw	x16,32(x2)
80008a1c:	02412303          	lw	x6,36(x2)
80008a20:	02c12783          	lw	x15,44(x2)
80008a24:	00e04863          	blt	x0,x14,80008a34 <__gdtoa+0x1ba4>
80008a28:	00012703          	lw	x14,0(x2)
80008a2c:	00372713          	slti	x14,x14,3
80008a30:	90070ce3          	beq	x14,x0,80008348 <__gdtoa+0x14b8>
80008a34:	04812703          	lw	x14,72(x2)
80008a38:	02e12223          	sw	x14,36(x2)
80008a3c:	cb0ff06f          	jal	x0,80007eec <__gdtoa+0x105c>
80008a40:	02412683          	lw	x13,36(x2)
80008a44:	08e12623          	sw	x14,140(x2)
80008a48:	03012703          	lw	x14,48(x2)
80008a4c:	00d70733          	add	x14,x14,x13
80008a50:	02e12823          	sw	x14,48(x2)
80008a54:	03812703          	lw	x14,56(x2)
80008a58:	00d709b3          	add	x19,x14,x13
80008a5c:	ed5fe06f          	jal	x0,80007930 <__gdtoa+0xaa0>
80008a60:	01442683          	lw	x13,20(x8)
80008a64:	da0692e3          	bne	x13,x0,80008808 <__gdtoa+0x1978>
80008a68:	eeb046e3          	blt	x0,x11,80008954 <__gdtoa+0x1ac4>
80008a6c:	e24ff06f          	jal	x0,80008090 <__gdtoa+0x1200>
80008a70:	01000d13          	addi	x26,x0,16
80008a74:	e1cff06f          	jal	x0,80008090 <__gdtoa+0x1200>
80008a78:	03900693          	addi	x13,x0,57
80008a7c:	00090713          	addi	x14,x18,0
80008a80:	00048a13          	addi	x20,x9,0
80008a84:	000b0913          	addi	x18,x22,0
80008a88:	000a8313          	addi	x6,x21,0
80008a8c:	000b8793          	addi	x15,x23,0
80008a90:	aed980e3          	beq	x19,x13,80008570 <__gdtoa+0x16e0>
80008a94:	00198993          	addi	x19,x19,1
80008a98:	02000d13          	addi	x26,x0,32
80008a9c:	df4ff06f          	jal	x0,80008090 <__gdtoa+0x1200>
80008aa0:	00051663          	bne	x10,x0,80008aac <__gdtoa+0x1c1c>
80008aa4:	0019f693          	andi	x13,x19,1
80008aa8:	ee0694e3          	bne	x13,x0,80008990 <__gdtoa+0x1b00>
80008aac:	02000813          	addi	x16,x0,32
80008ab0:	ef1ff06f          	jal	x0,800089a0 <__gdtoa+0x1b10>
80008ab4:	01042603          	lw	x12,16(x8)
80008ab8:	00100693          	addi	x13,x0,1
80008abc:	01000d13          	addi	x26,x0,16
80008ac0:	dcc6c863          	blt	x13,x12,80008090 <__gdtoa+0x1200>
80008ac4:	01442683          	lw	x13,20(x8)
80008ac8:	00d036b3          	sltu	x13,x0,x13
80008acc:	00469d13          	slli	x26,x13,0x4
80008ad0:	dc0ff06f          	jal	x0,80008090 <__gdtoa+0x1200>
80008ad4:	01812703          	lw	x14,24(x2)
80008ad8:	00170c13          	addi	x24,x14,1
80008adc:	b3dfe06f          	jal	x0,80007618 <__gdtoa+0x788>

80008ae0 <__rv_alloc_D2A.part.0>:
80008ae0:	ff010113          	addi	x2,x2,-16
80008ae4:	8b418693          	addi	x13,x3,-1868 # 80011584 <__clz_tab+0x158>
80008ae8:	8c818513          	addi	x10,x3,-1848 # 80011598 <__clz_tab+0x16c>
80008aec:	00000613          	addi	x12,x0,0
80008af0:	03900593          	addi	x11,x0,57
80008af4:	00112623          	sw	x1,12(x2)
80008af8:	394020ef          	jal	x1,8000ae8c <__assert_func>

80008afc <__rv_alloc_D2A>:
80008afc:	ff010113          	addi	x2,x2,-16
80008b00:	00812423          	sw	x8,8(x2)
80008b04:	00112623          	sw	x1,12(x2)
80008b08:	01700693          	addi	x13,x0,23
80008b0c:	00050413          	addi	x8,x10,0
80008b10:	00100713          	addi	x14,x0,1
80008b14:	00400793          	addi	x15,x0,4
80008b18:	04b6f063          	bgeu	x13,x11,80008b58 <__rv_alloc_D2A+0x5c>
80008b1c:	00179793          	slli	x15,x15,0x1
80008b20:	01478693          	addi	x13,x15,20
80008b24:	00070613          	addi	x12,x14,0
80008b28:	00170713          	addi	x14,x14,1
80008b2c:	fed5f8e3          	bgeu	x11,x13,80008b1c <__rv_alloc_D2A+0x20>
80008b30:	00060593          	addi	x11,x12,0
80008b34:	02c42e23          	sw	x12,60(x8)
80008b38:	00040513          	addi	x10,x8,0
80008b3c:	450000ef          	jal	x1,80008f8c <_Balloc>
80008b40:	02050263          	beq	x10,x0,80008b64 <__rv_alloc_D2A+0x68>
80008b44:	00c12083          	lw	x1,12(x2)
80008b48:	02a42c23          	sw	x10,56(x8)
80008b4c:	00812403          	lw	x8,8(x2)
80008b50:	01010113          	addi	x2,x2,16
80008b54:	00008067          	jalr	x0,0(x1)
80008b58:	02052e23          	sw	x0,60(x10)
80008b5c:	00000593          	addi	x11,x0,0
80008b60:	fd9ff06f          	jal	x0,80008b38 <__rv_alloc_D2A+0x3c>
80008b64:	f7dff0ef          	jal	x1,80008ae0 <__rv_alloc_D2A.part.0>

80008b68 <__nrv_alloc_D2A>:
80008b68:	fe010113          	addi	x2,x2,-32
80008b6c:	00812c23          	sw	x8,24(x2)
80008b70:	00912a23          	sw	x9,20(x2)
80008b74:	00112e23          	sw	x1,28(x2)
80008b78:	01700813          	addi	x16,x0,23
80008b7c:	00050493          	addi	x9,x10,0
80008b80:	00058413          	addi	x8,x11,0
80008b84:	00100713          	addi	x14,x0,1
80008b88:	00400793          	addi	x15,x0,4
80008b8c:	06d87c63          	bgeu	x16,x13,80008c04 <__nrv_alloc_D2A+0x9c>
80008b90:	00179793          	slli	x15,x15,0x1
80008b94:	01478513          	addi	x10,x15,20
80008b98:	00070593          	addi	x11,x14,0
80008b9c:	00170713          	addi	x14,x14,1
80008ba0:	fea6f8e3          	bgeu	x13,x10,80008b90 <__nrv_alloc_D2A+0x28>
80008ba4:	02b4ae23          	sw	x11,60(x9)
80008ba8:	00048513          	addi	x10,x9,0
80008bac:	00c12623          	sw	x12,12(x2)
80008bb0:	3dc000ef          	jal	x1,80008f8c <_Balloc>
80008bb4:	00c12603          	lw	x12,12(x2)
80008bb8:	06050063          	beq	x10,x0,80008c18 <__nrv_alloc_D2A+0xb0>
80008bbc:	02a4ac23          	sw	x10,56(x9)
80008bc0:	00044783          	lbu	x15,0(x8)
80008bc4:	00f50023          	sb	x15,0(x10)
80008bc8:	04078463          	beq	x15,x0,80008c10 <__nrv_alloc_D2A+0xa8>
80008bcc:	00140593          	addi	x11,x8,1
80008bd0:	00050793          	addi	x15,x10,0
80008bd4:	0005c703          	lbu	x14,0(x11)
80008bd8:	00158593          	addi	x11,x11,1
80008bdc:	00178793          	addi	x15,x15,1
80008be0:	00e78023          	sb	x14,0(x15)
80008be4:	fe0718e3          	bne	x14,x0,80008bd4 <__nrv_alloc_D2A+0x6c>
80008be8:	00060463          	beq	x12,x0,80008bf0 <__nrv_alloc_D2A+0x88>
80008bec:	00f62023          	sw	x15,0(x12)
80008bf0:	01c12083          	lw	x1,28(x2)
80008bf4:	01812403          	lw	x8,24(x2)
80008bf8:	01412483          	lw	x9,20(x2)
80008bfc:	02010113          	addi	x2,x2,32
80008c00:	00008067          	jalr	x0,0(x1)
80008c04:	02052e23          	sw	x0,60(x10)
80008c08:	00000593          	addi	x11,x0,0
80008c0c:	f9dff06f          	jal	x0,80008ba8 <__nrv_alloc_D2A+0x40>
80008c10:	00050793          	addi	x15,x10,0
80008c14:	fd5ff06f          	jal	x0,80008be8 <__nrv_alloc_D2A+0x80>
80008c18:	ec9ff0ef          	jal	x1,80008ae0 <__rv_alloc_D2A.part.0>

80008c1c <__freedtoa>:
80008c1c:	03c52703          	lw	x14,60(x10)
80008c20:	00100793          	addi	x15,x0,1
80008c24:	00e797b3          	sll	x15,x15,x14
80008c28:	00f5a423          	sw	x15,8(x11)
80008c2c:	00e5a223          	sw	x14,4(x11)
80008c30:	4080006f          	jal	x0,80009038 <_Bfree>

80008c34 <__quorem_D2A>:
80008c34:	0105a803          	lw	x16,16(x11)
80008c38:	01052783          	lw	x15,16(x10)
80008c3c:	1f07c863          	blt	x15,x16,80008e2c <__quorem_D2A+0x1f8>
80008c40:	fff80813          	addi	x16,x16,-1
80008c44:	00281293          	slli	x5,x16,0x2
80008c48:	01458613          	addi	x12,x11,20
80008c4c:	00560333          	add	x6,x12,x5
80008c50:	01450e13          	addi	x28,x10,20
80008c54:	00032783          	lw	x15,0(x6)
80008c58:	005e02b3          	add	x5,x28,x5
80008c5c:	0002a703          	lw	x14,0(x5)
80008c60:	fd010113          	addi	x2,x2,-48
80008c64:	00178793          	addi	x15,x15,1
80008c68:	02112623          	sw	x1,44(x2)
80008c6c:	02812423          	sw	x8,40(x2)
80008c70:	02f758b3          	divu	x17,x14,x15
80008c74:	0cf76863          	bltu	x14,x15,80008d44 <__quorem_D2A+0x110>
80008c78:	02912223          	sw	x9,36(x2)
80008c7c:	00060f93          	addi	x31,x12,0
80008c80:	000e0f13          	addi	x30,x28,0
80008c84:	00000493          	addi	x9,x0,0
80008c88:	00000413          	addi	x8,x0,0
80008c8c:	000fa783          	lw	x15,0(x31)
80008c90:	000f2e83          	lw	x29,0(x30)
80008c94:	004f0f13          	addi	x30,x30,4
80008c98:	01079693          	slli	x13,x15,0x10
80008c9c:	0106d693          	srli	x13,x13,0x10
80008ca0:	0107d793          	srli	x15,x15,0x10
80008ca4:	010e9713          	slli	x14,x29,0x10
80008ca8:	010ed393          	srli	x7,x29,0x10
80008cac:	01075713          	srli	x14,x14,0x10
80008cb0:	004f8f93          	addi	x31,x31,4
80008cb4:	031686b3          	mul	x13,x13,x17
80008cb8:	031787b3          	mul	x15,x15,x17
80008cbc:	009686b3          	add	x13,x13,x9
80008cc0:	01069e93          	slli	x29,x13,0x10
80008cc4:	010ede93          	srli	x29,x29,0x10
80008cc8:	0106d693          	srli	x13,x13,0x10
80008ccc:	41d70733          	sub	x14,x14,x29
80008cd0:	40870733          	sub	x14,x14,x8
80008cd4:	01075e93          	srli	x29,x14,0x10
80008cd8:	001efe93          	andi	x29,x29,1
80008cdc:	01071713          	slli	x14,x14,0x10
80008ce0:	00d787b3          	add	x15,x15,x13
80008ce4:	01079693          	slli	x13,x15,0x10
80008ce8:	0106d693          	srli	x13,x13,0x10
80008cec:	00de86b3          	add	x13,x29,x13
80008cf0:	0107d493          	srli	x9,x15,0x10
80008cf4:	40d387b3          	sub	x15,x7,x13
80008cf8:	01079693          	slli	x13,x15,0x10
80008cfc:	01075713          	srli	x14,x14,0x10
80008d00:	00e6e733          	or	x14,x13,x14
80008d04:	0107d793          	srli	x15,x15,0x10
80008d08:	feef2e23          	sw	x14,-4(x30)
80008d0c:	0017f413          	andi	x8,x15,1
80008d10:	f7f37ee3          	bgeu	x6,x31,80008c8c <__quorem_D2A+0x58>
80008d14:	0002a783          	lw	x15,0(x5)
80008d18:	10079e63          	bne	x15,x0,80008e34 <__quorem_D2A+0x200>
80008d1c:	ffc28293          	addi	x5,x5,-4
80008d20:	005e6863          	bltu	x28,x5,80008d30 <__quorem_D2A+0xfc>
80008d24:	0180006f          	jal	x0,80008d3c <__quorem_D2A+0x108>
80008d28:	fff80813          	addi	x16,x16,-1
80008d2c:	005e7863          	bgeu	x28,x5,80008d3c <__quorem_D2A+0x108>
80008d30:	0002a783          	lw	x15,0(x5)
80008d34:	ffc28293          	addi	x5,x5,-4
80008d38:	fe0788e3          	beq	x15,x0,80008d28 <__quorem_D2A+0xf4>
80008d3c:	02412483          	lw	x9,36(x2)
80008d40:	01052823          	sw	x16,16(x10)
80008d44:	01112623          	sw	x17,12(x2)
80008d48:	01c12e23          	sw	x28,28(x2)
80008d4c:	00612c23          	sw	x6,24(x2)
80008d50:	00c12a23          	sw	x12,20(x2)
80008d54:	01012823          	sw	x16,16(x2)
80008d58:	00050413          	addi	x8,x10,0
80008d5c:	515000ef          	jal	x1,80009a70 <__mcmp>
80008d60:	00c12883          	lw	x17,12(x2)
80008d64:	0a054a63          	blt	x10,x0,80008e18 <__quorem_D2A+0x1e4>
80008d68:	01c12e03          	lw	x28,28(x2)
80008d6c:	01812303          	lw	x6,24(x2)
80008d70:	01412603          	lw	x12,20(x2)
80008d74:	01012803          	lw	x16,16(x2)
80008d78:	00188893          	addi	x17,x17,1
80008d7c:	000e0513          	addi	x10,x28,0
80008d80:	00000e93          	addi	x29,x0,0
80008d84:	00052783          	lw	x15,0(x10)
80008d88:	00062683          	lw	x13,0(x12)
80008d8c:	00450513          	addi	x10,x10,4
80008d90:	01079713          	slli	x14,x15,0x10
80008d94:	01069f13          	slli	x30,x13,0x10
80008d98:	010f5f13          	srli	x30,x30,0x10
80008d9c:	01075713          	srli	x14,x14,0x10
80008da0:	41e70733          	sub	x14,x14,x30
80008da4:	41d70733          	sub	x14,x14,x29
80008da8:	0106d593          	srli	x11,x13,0x10
80008dac:	01075693          	srli	x13,x14,0x10
80008db0:	0016f693          	andi	x13,x13,1
80008db4:	00b686b3          	add	x13,x13,x11
80008db8:	0107d793          	srli	x15,x15,0x10
80008dbc:	40d787b3          	sub	x15,x15,x13
80008dc0:	01071713          	slli	x14,x14,0x10
80008dc4:	01079693          	slli	x13,x15,0x10
80008dc8:	01075713          	srli	x14,x14,0x10
80008dcc:	00e6e733          	or	x14,x13,x14
80008dd0:	00460613          	addi	x12,x12,4
80008dd4:	0107d793          	srli	x15,x15,0x10
80008dd8:	fee52e23          	sw	x14,-4(x10)
80008ddc:	0017fe93          	andi	x29,x15,1
80008de0:	fac372e3          	bgeu	x6,x12,80008d84 <__quorem_D2A+0x150>
80008de4:	00281793          	slli	x15,x16,0x2
80008de8:	00fe07b3          	add	x15,x28,x15
80008dec:	0007a703          	lw	x14,0(x15)
80008df0:	02071463          	bne	x14,x0,80008e18 <__quorem_D2A+0x1e4>
80008df4:	ffc78793          	addi	x15,x15,-4
80008df8:	00fe6863          	bltu	x28,x15,80008e08 <__quorem_D2A+0x1d4>
80008dfc:	0180006f          	jal	x0,80008e14 <__quorem_D2A+0x1e0>
80008e00:	fff80813          	addi	x16,x16,-1
80008e04:	00fe7863          	bgeu	x28,x15,80008e14 <__quorem_D2A+0x1e0>
80008e08:	0007a703          	lw	x14,0(x15)
80008e0c:	ffc78793          	addi	x15,x15,-4
80008e10:	fe0708e3          	beq	x14,x0,80008e00 <__quorem_D2A+0x1cc>
80008e14:	01042823          	sw	x16,16(x8)
80008e18:	02c12083          	lw	x1,44(x2)
80008e1c:	02812403          	lw	x8,40(x2)
80008e20:	00088513          	addi	x10,x17,0
80008e24:	03010113          	addi	x2,x2,48
80008e28:	00008067          	jalr	x0,0(x1)
80008e2c:	00000513          	addi	x10,x0,0
80008e30:	00008067          	jalr	x0,0(x1)
80008e34:	02412483          	lw	x9,36(x2)
80008e38:	f0dff06f          	jal	x0,80008d44 <__quorem_D2A+0x110>

80008e3c <__rshift_D2A>:
80008e3c:	01052803          	lw	x16,16(x10)
80008e40:	4055de13          	srai	x28,x11,0x5
80008e44:	010e4863          	blt	x28,x16,80008e54 <__rshift_D2A+0x18>
80008e48:	00052823          	sw	x0,16(x10)
80008e4c:	00052a23          	sw	x0,20(x10)
80008e50:	00008067          	jalr	x0,0(x1)
80008e54:	01450313          	addi	x6,x10,20
80008e58:	00281613          	slli	x12,x16,0x2
80008e5c:	002e1793          	slli	x15,x28,0x2
80008e60:	01f5f593          	andi	x11,x11,31
80008e64:	00c30633          	add	x12,x6,x12
80008e68:	00f307b3          	add	x15,x6,x15
80008e6c:	06058263          	beq	x11,x0,80008ed0 <__rshift_D2A+0x94>
80008e70:	0007a683          	lw	x13,0(x15)
80008e74:	00478793          	addi	x15,x15,4
80008e78:	00b6d6b3          	srl	x13,x13,x11
80008e7c:	08c7f863          	bgeu	x15,x12,80008f0c <__rshift_D2A+0xd0>
80008e80:	02000e93          	addi	x29,x0,32
80008e84:	40be8eb3          	sub	x29,x29,x11
80008e88:	00030893          	addi	x17,x6,0
80008e8c:	0007a703          	lw	x14,0(x15)
80008e90:	00488893          	addi	x17,x17,4
80008e94:	00478793          	addi	x15,x15,4
80008e98:	01d71733          	sll	x14,x14,x29
80008e9c:	00d76733          	or	x14,x14,x13
80008ea0:	fee8ae23          	sw	x14,-4(x17)
80008ea4:	ffc7a683          	lw	x13,-4(x15)
80008ea8:	00b6d6b3          	srl	x13,x13,x11
80008eac:	fec7e0e3          	bltu	x15,x12,80008e8c <__rshift_D2A+0x50>
80008eb0:	41c80833          	sub	x16,x16,x28
80008eb4:	00281813          	slli	x16,x16,0x2
80008eb8:	01030833          	add	x16,x6,x16
80008ebc:	fed82e23          	sw	x13,-4(x16)
80008ec0:	ffc80813          	addi	x16,x16,-4
80008ec4:	02068a63          	beq	x13,x0,80008ef8 <__rshift_D2A+0xbc>
80008ec8:	00480813          	addi	x16,x16,4
80008ecc:	02c0006f          	jal	x0,80008ef8 <__rshift_D2A+0xbc>
80008ed0:	00030713          	addi	x14,x6,0
80008ed4:	f6c7fae3          	bgeu	x15,x12,80008e48 <__rshift_D2A+0xc>
80008ed8:	0007a683          	lw	x13,0(x15)
80008edc:	00478793          	addi	x15,x15,4
80008ee0:	00470713          	addi	x14,x14,4
80008ee4:	fed72e23          	sw	x13,-4(x14)
80008ee8:	fec7e8e3          	bltu	x15,x12,80008ed8 <__rshift_D2A+0x9c>
80008eec:	41c80833          	sub	x16,x16,x28
80008ef0:	00281813          	slli	x16,x16,0x2
80008ef4:	01030833          	add	x16,x6,x16
80008ef8:	406807b3          	sub	x15,x16,x6
80008efc:	4027d793          	srai	x15,x15,0x2
80008f00:	00f52823          	sw	x15,16(x10)
80008f04:	f46804e3          	beq	x16,x6,80008e4c <__rshift_D2A+0x10>
80008f08:	00008067          	jalr	x0,0(x1)
80008f0c:	00d52a23          	sw	x13,20(x10)
80008f10:	f2068ce3          	beq	x13,x0,80008e48 <__rshift_D2A+0xc>
80008f14:	00030813          	addi	x16,x6,0
80008f18:	00480813          	addi	x16,x16,4
80008f1c:	fddff06f          	jal	x0,80008ef8 <__rshift_D2A+0xbc>

80008f20 <__trailz_D2A>:
80008f20:	01052683          	lw	x13,16(x10)
80008f24:	01450513          	addi	x10,x10,20
80008f28:	00000793          	addi	x15,x0,0
80008f2c:	00269693          	slli	x13,x13,0x2
80008f30:	00d506b3          	add	x13,x10,x13
80008f34:	00d56a63          	bltu	x10,x13,80008f48 <__trailz_D2A+0x28>
80008f38:	04c0006f          	jal	x0,80008f84 <__trailz_D2A+0x64>
80008f3c:	00450513          	addi	x10,x10,4
80008f40:	02078793          	addi	x15,x15,32
80008f44:	04d57063          	bgeu	x10,x13,80008f84 <__trailz_D2A+0x64>
80008f48:	00052703          	lw	x14,0(x10)
80008f4c:	fe0708e3          	beq	x14,x0,80008f3c <__trailz_D2A+0x1c>
80008f50:	02d57a63          	bgeu	x10,x13,80008f84 <__trailz_D2A+0x64>
80008f54:	fd010113          	addi	x2,x2,-48
80008f58:	01c10513          	addi	x10,x2,28
80008f5c:	02112623          	sw	x1,44(x2)
80008f60:	00f12623          	sw	x15,12(x2)
80008f64:	00e12e23          	sw	x14,28(x2)
80008f68:	408000ef          	jal	x1,80009370 <__lo0bits>
80008f6c:	00c12783          	lw	x15,12(x2)
80008f70:	02c12083          	lw	x1,44(x2)
80008f74:	00a787b3          	add	x15,x15,x10
80008f78:	00078513          	addi	x10,x15,0
80008f7c:	03010113          	addi	x2,x2,48
80008f80:	00008067          	jalr	x0,0(x1)
80008f84:	00078513          	addi	x10,x15,0
80008f88:	00008067          	jalr	x0,0(x1)

80008f8c <_Balloc>:
80008f8c:	04452783          	lw	x15,68(x10)
80008f90:	fe010113          	addi	x2,x2,-32
80008f94:	00112e23          	sw	x1,28(x2)
80008f98:	00050713          	addi	x14,x10,0
80008f9c:	00058693          	addi	x13,x11,0
80008fa0:	02078863          	beq	x15,x0,80008fd0 <_Balloc+0x44>
80008fa4:	00269613          	slli	x12,x13,0x2
80008fa8:	00c787b3          	add	x15,x15,x12
80008fac:	0007a503          	lw	x10,0(x15)
80008fb0:	04050863          	beq	x10,x0,80009000 <_Balloc+0x74>
80008fb4:	00052703          	lw	x14,0(x10)
80008fb8:	00e7a023          	sw	x14,0(x15)
80008fbc:	00052823          	sw	x0,16(x10)
80008fc0:	00052623          	sw	x0,12(x10)
80008fc4:	01c12083          	lw	x1,28(x2)
80008fc8:	02010113          	addi	x2,x2,32
80008fcc:	00008067          	jalr	x0,0(x1)
80008fd0:	00b12623          	sw	x11,12(x2)
80008fd4:	02100613          	addi	x12,x0,33
80008fd8:	00400593          	addi	x11,x0,4
80008fdc:	00a12423          	sw	x10,8(x2)
80008fe0:	705010ef          	jal	x1,8000aee4 <_calloc_r>
80008fe4:	00812703          	lw	x14,8(x2)
80008fe8:	00c12683          	lw	x13,12(x2)
80008fec:	00050793          	addi	x15,x10,0
80008ff0:	04a72223          	sw	x10,68(x14)
80008ff4:	fa0518e3          	bne	x10,x0,80008fa4 <_Balloc+0x18>
80008ff8:	00000513          	addi	x10,x0,0
80008ffc:	fc9ff06f          	jal	x0,80008fc4 <_Balloc+0x38>
80009000:	00100593          	addi	x11,x0,1
80009004:	00d597b3          	sll	x15,x11,x13
80009008:	00578613          	addi	x12,x15,5
8000900c:	00070513          	addi	x10,x14,0
80009010:	00261613          	slli	x12,x12,0x2
80009014:	00d12623          	sw	x13,12(x2)
80009018:	00f12423          	sw	x15,8(x2)
8000901c:	6c9010ef          	jal	x1,8000aee4 <_calloc_r>
80009020:	fc050ce3          	beq	x10,x0,80008ff8 <_Balloc+0x6c>
80009024:	00c12683          	lw	x13,12(x2)
80009028:	00812783          	lw	x15,8(x2)
8000902c:	00d52223          	sw	x13,4(x10)
80009030:	00f52423          	sw	x15,8(x10)
80009034:	f89ff06f          	jal	x0,80008fbc <_Balloc+0x30>

80009038 <_Bfree>:
80009038:	02058063          	beq	x11,x0,80009058 <_Bfree+0x20>
8000903c:	0045a703          	lw	x14,4(x11)
80009040:	04452783          	lw	x15,68(x10)
80009044:	00271713          	slli	x14,x14,0x2
80009048:	00e787b3          	add	x15,x15,x14
8000904c:	0007a703          	lw	x14,0(x15)
80009050:	00e5a023          	sw	x14,0(x11)
80009054:	00b7a023          	sw	x11,0(x15)
80009058:	00008067          	jalr	x0,0(x1)

8000905c <__multadd>:
8000905c:	0105ae03          	lw	x28,16(x11)
80009060:	00058e93          	addi	x29,x11,0
80009064:	00068313          	addi	x6,x13,0
80009068:	01458813          	addi	x16,x11,20
8000906c:	00000893          	addi	x17,x0,0
80009070:	00082783          	lw	x15,0(x16)
80009074:	00480813          	addi	x16,x16,4
80009078:	00188893          	addi	x17,x17,1
8000907c:	01079713          	slli	x14,x15,0x10
80009080:	01075713          	srli	x14,x14,0x10
80009084:	0107d693          	srli	x13,x15,0x10
80009088:	02c707b3          	mul	x15,x14,x12
8000908c:	02c686b3          	mul	x13,x13,x12
80009090:	006787b3          	add	x15,x15,x6
80009094:	0107d713          	srli	x14,x15,0x10
80009098:	01079793          	slli	x15,x15,0x10
8000909c:	0107d793          	srli	x15,x15,0x10
800090a0:	00e686b3          	add	x13,x13,x14
800090a4:	01069713          	slli	x14,x13,0x10
800090a8:	00f707b3          	add	x15,x14,x15
800090ac:	fef82e23          	sw	x15,-4(x16)
800090b0:	0106d313          	srli	x6,x13,0x10
800090b4:	fbc8cee3          	blt	x17,x28,80009070 <__multadd+0x14>
800090b8:	02030063          	beq	x6,x0,800090d8 <__multadd+0x7c>
800090bc:	008ea783          	lw	x15,8(x29)
800090c0:	02fe5063          	bge	x28,x15,800090e0 <__multadd+0x84>
800090c4:	002e1713          	slli	x14,x28,0x2
800090c8:	00ee8733          	add	x14,x29,x14
800090cc:	00672a23          	sw	x6,20(x14)
800090d0:	001e0793          	addi	x15,x28,1
800090d4:	00fea823          	sw	x15,16(x29)
800090d8:	000e8513          	addi	x10,x29,0
800090dc:	00008067          	jalr	x0,0(x1)
800090e0:	004ea583          	lw	x11,4(x29)
800090e4:	fe010113          	addi	x2,x2,-32
800090e8:	00812c23          	sw	x8,24(x2)
800090ec:	00158593          	addi	x11,x11,1
800090f0:	00612423          	sw	x6,8(x2)
800090f4:	01c12223          	sw	x28,4(x2)
800090f8:	01d12023          	sw	x29,0(x2)
800090fc:	00112e23          	sw	x1,28(x2)
80009100:	00050413          	addi	x8,x10,0
80009104:	e89ff0ef          	jal	x1,80008f8c <_Balloc>
80009108:	00012e83          	lw	x29,0(x2)
8000910c:	00412e03          	lw	x28,4(x2)
80009110:	00812303          	lw	x6,8(x2)
80009114:	00050713          	addi	x14,x10,0
80009118:	08050063          	beq	x10,x0,80009198 <__multadd+0x13c>
8000911c:	010ea603          	lw	x12,16(x29)
80009120:	00ce8593          	addi	x11,x29,12
80009124:	00c50513          	addi	x10,x10,12
80009128:	00260613          	addi	x12,x12,2
8000912c:	00261613          	slli	x12,x12,0x2
80009130:	00612623          	sw	x6,12(x2)
80009134:	01c12423          	sw	x28,8(x2)
80009138:	01d12223          	sw	x29,4(x2)
8000913c:	00e12023          	sw	x14,0(x2)
80009140:	f28fd0ef          	jal	x1,80006868 <memcpy>
80009144:	00412e83          	lw	x29,4(x2)
80009148:	04442783          	lw	x15,68(x8)
8000914c:	00812e03          	lw	x28,8(x2)
80009150:	004ea683          	lw	x13,4(x29)
80009154:	00c12303          	lw	x6,12(x2)
80009158:	002e1713          	slli	x14,x28,0x2
8000915c:	00269693          	slli	x13,x13,0x2
80009160:	00d787b3          	add	x15,x15,x13
80009164:	0007a683          	lw	x13,0(x15)
80009168:	01c12083          	lw	x1,28(x2)
8000916c:	01812403          	lw	x8,24(x2)
80009170:	00dea023          	sw	x13,0(x29)
80009174:	01d7a023          	sw	x29,0(x15)
80009178:	00012e83          	lw	x29,0(x2)
8000917c:	001e0793          	addi	x15,x28,1
80009180:	00ee8733          	add	x14,x29,x14
80009184:	00672a23          	sw	x6,20(x14)
80009188:	00fea823          	sw	x15,16(x29)
8000918c:	000e8513          	addi	x10,x29,0
80009190:	02010113          	addi	x2,x2,32
80009194:	00008067          	jalr	x0,0(x1)
80009198:	8b418693          	addi	x13,x3,-1868 # 80011584 <__clz_tab+0x158>
8000919c:	94418513          	addi	x10,x3,-1724 # 80011614 <__clz_tab+0x1e8>
800091a0:	00000613          	addi	x12,x0,0
800091a4:	0ba00593          	addi	x11,x0,186
800091a8:	4e5010ef          	jal	x1,8000ae8c <__assert_func>

800091ac <__s2b>:
800091ac:	fe010113          	addi	x2,x2,-32
800091b0:	00812c23          	sw	x8,24(x2)
800091b4:	01212823          	sw	x18,16(x2)
800091b8:	01312623          	sw	x19,12(x2)
800091bc:	01412423          	sw	x20,8(x2)
800091c0:	01512223          	sw	x21,4(x2)
800091c4:	00112e23          	sw	x1,28(x2)
800091c8:	00912a23          	sw	x9,20(x2)
800091cc:	00900793          	addi	x15,x0,9
800091d0:	00068993          	addi	x19,x13,0
800091d4:	00060a13          	addi	x20,x12,0
800091d8:	00050913          	addi	x18,x10,0
800091dc:	00058a93          	addi	x21,x11,0
800091e0:	00070413          	addi	x8,x14,0
800091e4:	0ed7d263          	bge	x15,x13,800092c8 <__s2b+0x11c>
800091e8:	38e397b7          	lui	x15,0x38e39
800091ec:	e3978793          	addi	x15,x15,-455 # 38e38e39 <_start-0x471c71c7>
800091f0:	00868693          	addi	x13,x13,8
800091f4:	02f6b6b3          	mulhu	x13,x13,x15
800091f8:	00000593          	addi	x11,x0,0
800091fc:	00100793          	addi	x15,x0,1
80009200:	0016d693          	srli	x13,x13,0x1
80009204:	00179793          	slli	x15,x15,0x1
80009208:	00158593          	addi	x11,x11,1
8000920c:	fed7cce3          	blt	x15,x13,80009204 <__s2b+0x58>
80009210:	00090513          	addi	x10,x18,0
80009214:	d79ff0ef          	jal	x1,80008f8c <_Balloc>
80009218:	00050593          	addi	x11,x10,0
8000921c:	0a050a63          	beq	x10,x0,800092d0 <__s2b+0x124>
80009220:	00100793          	addi	x15,x0,1
80009224:	00f52823          	sw	x15,16(x10)
80009228:	00852a23          	sw	x8,20(x10)
8000922c:	00900793          	addi	x15,x0,9
80009230:	0947d663          	bge	x15,x20,800092bc <__s2b+0x110>
80009234:	009a8413          	addi	x8,x21,9
80009238:	00040493          	addi	x9,x8,0
8000923c:	014a8ab3          	add	x21,x21,x20
80009240:	0004c683          	lbu	x13,0(x9)
80009244:	00a00613          	addi	x12,x0,10
80009248:	00090513          	addi	x10,x18,0
8000924c:	fd068693          	addi	x13,x13,-48
80009250:	00148493          	addi	x9,x9,1
80009254:	e09ff0ef          	jal	x1,8000905c <__multadd>
80009258:	00050593          	addi	x11,x10,0
8000925c:	ff5492e3          	bne	x9,x21,80009240 <__s2b+0x94>
80009260:	01440433          	add	x8,x8,x20
80009264:	ff840413          	addi	x8,x8,-8
80009268:	033a5663          	bge	x20,x19,80009294 <__s2b+0xe8>
8000926c:	414984b3          	sub	x9,x19,x20
80009270:	009404b3          	add	x9,x8,x9
80009274:	00044683          	lbu	x13,0(x8)
80009278:	00a00613          	addi	x12,x0,10
8000927c:	00090513          	addi	x10,x18,0
80009280:	fd068693          	addi	x13,x13,-48
80009284:	00140413          	addi	x8,x8,1
80009288:	dd5ff0ef          	jal	x1,8000905c <__multadd>
8000928c:	00050593          	addi	x11,x10,0
80009290:	fe9412e3          	bne	x8,x9,80009274 <__s2b+0xc8>
80009294:	01c12083          	lw	x1,28(x2)
80009298:	01812403          	lw	x8,24(x2)
8000929c:	01412483          	lw	x9,20(x2)
800092a0:	01012903          	lw	x18,16(x2)
800092a4:	00c12983          	lw	x19,12(x2)
800092a8:	00812a03          	lw	x20,8(x2)
800092ac:	00412a83          	lw	x21,4(x2)
800092b0:	00058513          	addi	x10,x11,0
800092b4:	02010113          	addi	x2,x2,32
800092b8:	00008067          	jalr	x0,0(x1)
800092bc:	00aa8413          	addi	x8,x21,10
800092c0:	00078a13          	addi	x20,x15,0
800092c4:	fa5ff06f          	jal	x0,80009268 <__s2b+0xbc>
800092c8:	00000593          	addi	x11,x0,0
800092cc:	f45ff06f          	jal	x0,80009210 <__s2b+0x64>
800092d0:	8b418693          	addi	x13,x3,-1868 # 80011584 <__clz_tab+0x158>
800092d4:	94418513          	addi	x10,x3,-1724 # 80011614 <__clz_tab+0x1e8>
800092d8:	00000613          	addi	x12,x0,0
800092dc:	0d300593          	addi	x11,x0,211
800092e0:	3ad010ef          	jal	x1,8000ae8c <__assert_func>

800092e4 <__hi0bits>:
800092e4:	00050793          	addi	x15,x10,0
800092e8:	00010737          	lui	x14,0x10
800092ec:	00000513          	addi	x10,x0,0
800092f0:	00e7f663          	bgeu	x15,x14,800092fc <__hi0bits+0x18>
800092f4:	01079793          	slli	x15,x15,0x10
800092f8:	01000513          	addi	x10,x0,16
800092fc:	01000737          	lui	x14,0x1000
80009300:	00e7f663          	bgeu	x15,x14,8000930c <__hi0bits+0x28>
80009304:	00850513          	addi	x10,x10,8
80009308:	00879793          	slli	x15,x15,0x8
8000930c:	10000737          	lui	x14,0x10000
80009310:	00e7ee63          	bltu	x15,x14,8000932c <__hi0bits+0x48>
80009314:	40000737          	lui	x14,0x40000
80009318:	02e7fe63          	bgeu	x15,x14,80009354 <__hi0bits+0x70>
8000931c:	00279713          	slli	x14,x15,0x2
80009320:	04074463          	blt	x14,x0,80009368 <__hi0bits+0x84>
80009324:	00350513          	addi	x10,x10,3
80009328:	00008067          	jalr	x0,0(x1)
8000932c:	00479713          	slli	x14,x15,0x4
80009330:	400006b7          	lui	x13,0x40000
80009334:	00450513          	addi	x10,x10,4
80009338:	02d77063          	bgeu	x14,x13,80009358 <__hi0bits+0x74>
8000933c:	00679793          	slli	x15,x15,0x6
80009340:	0207c463          	blt	x15,x0,80009368 <__hi0bits+0x84>
80009344:	00179713          	slli	x14,x15,0x1
80009348:	fc074ee3          	blt	x14,x0,80009324 <__hi0bits+0x40>
8000934c:	02000513          	addi	x10,x0,32
80009350:	00008067          	jalr	x0,0(x1)
80009354:	00078713          	addi	x14,x15,0
80009358:	fff74713          	xori	x14,x14,-1
8000935c:	01f75713          	srli	x14,x14,0x1f
80009360:	00e50533          	add	x10,x10,x14
80009364:	00008067          	jalr	x0,0(x1)
80009368:	00250513          	addi	x10,x10,2
8000936c:	00008067          	jalr	x0,0(x1)

80009370 <__lo0bits>:
80009370:	00052783          	lw	x15,0(x10)
80009374:	0077f713          	andi	x14,x15,7
80009378:	02070663          	beq	x14,x0,800093a4 <__lo0bits+0x34>
8000937c:	0017f693          	andi	x13,x15,1
80009380:	00000713          	addi	x14,x0,0
80009384:	00069c63          	bne	x13,x0,8000939c <__lo0bits+0x2c>
80009388:	0027f713          	andi	x14,x15,2
8000938c:	0a070e63          	beq	x14,x0,80009448 <__lo0bits+0xd8>
80009390:	0017d793          	srli	x15,x15,0x1
80009394:	00f52023          	sw	x15,0(x10)
80009398:	00100713          	addi	x14,x0,1
8000939c:	00070513          	addi	x10,x14,0 # 40000000 <_start-0x40000000>
800093a0:	00008067          	jalr	x0,0(x1)
800093a4:	01079713          	slli	x14,x15,0x10
800093a8:	01075713          	srli	x14,x14,0x10
800093ac:	04071463          	bne	x14,x0,800093f4 <__lo0bits+0x84>
800093b0:	0107d793          	srli	x15,x15,0x10
800093b4:	0ff7f693          	andi	x13,x15,255
800093b8:	01000713          	addi	x14,x0,16
800093bc:	00069663          	bne	x13,x0,800093c8 <__lo0bits+0x58>
800093c0:	01800713          	addi	x14,x0,24
800093c4:	0087d793          	srli	x15,x15,0x8
800093c8:	00f7f693          	andi	x13,x15,15
800093cc:	06068263          	beq	x13,x0,80009430 <__lo0bits+0xc0>
800093d0:	0037f693          	andi	x13,x15,3
800093d4:	04068063          	beq	x13,x0,80009414 <__lo0bits+0xa4>
800093d8:	0017f693          	andi	x13,x15,1
800093dc:	00069663          	bne	x13,x0,800093e8 <__lo0bits+0x78>
800093e0:	00170713          	addi	x14,x14,1
800093e4:	0017d793          	srli	x15,x15,0x1
800093e8:	00f52023          	sw	x15,0(x10)
800093ec:	00070513          	addi	x10,x14,0
800093f0:	00008067          	jalr	x0,0(x1)
800093f4:	0ff7f713          	andi	x14,x15,255
800093f8:	04070263          	beq	x14,x0,8000943c <__lo0bits+0xcc>
800093fc:	00f7f713          	andi	x14,x15,15
80009400:	06071663          	bne	x14,x0,8000946c <__lo0bits+0xfc>
80009404:	00400713          	addi	x14,x0,4
80009408:	0047d793          	srli	x15,x15,0x4
8000940c:	0037f693          	andi	x13,x15,3
80009410:	fc0694e3          	bne	x13,x0,800093d8 <__lo0bits+0x68>
80009414:	0027d693          	srli	x13,x15,0x2
80009418:	0016f613          	andi	x12,x13,1
8000941c:	04060063          	beq	x12,x0,8000945c <__lo0bits+0xec>
80009420:	00068793          	addi	x15,x13,0 # 40000000 <_start-0x40000000>
80009424:	00270713          	addi	x14,x14,2
80009428:	00f52023          	sw	x15,0(x10)
8000942c:	fc1ff06f          	jal	x0,800093ec <__lo0bits+0x7c>
80009430:	00470713          	addi	x14,x14,4
80009434:	0047d793          	srli	x15,x15,0x4
80009438:	fd5ff06f          	jal	x0,8000940c <__lo0bits+0x9c>
8000943c:	00800713          	addi	x14,x0,8
80009440:	0087d793          	srli	x15,x15,0x8
80009444:	f85ff06f          	jal	x0,800093c8 <__lo0bits+0x58>
80009448:	0027d793          	srli	x15,x15,0x2
8000944c:	00200713          	addi	x14,x0,2
80009450:	00f52023          	sw	x15,0(x10)
80009454:	00070513          	addi	x10,x14,0
80009458:	00008067          	jalr	x0,0(x1)
8000945c:	0037d793          	srli	x15,x15,0x3
80009460:	00079e63          	bne	x15,x0,8000947c <__lo0bits+0x10c>
80009464:	02000713          	addi	x14,x0,32
80009468:	f35ff06f          	jal	x0,8000939c <__lo0bits+0x2c>
8000946c:	0037d793          	srli	x15,x15,0x3
80009470:	00300713          	addi	x14,x0,3
80009474:	00f52023          	sw	x15,0(x10)
80009478:	f75ff06f          	jal	x0,800093ec <__lo0bits+0x7c>
8000947c:	00370713          	addi	x14,x14,3
80009480:	00f52023          	sw	x15,0(x10)
80009484:	f69ff06f          	jal	x0,800093ec <__lo0bits+0x7c>

80009488 <__i2b>:
80009488:	04452783          	lw	x15,68(x10)
8000948c:	fe010113          	addi	x2,x2,-32
80009490:	00112e23          	sw	x1,28(x2)
80009494:	00050713          	addi	x14,x10,0
80009498:	00058693          	addi	x13,x11,0
8000949c:	02078863          	beq	x15,x0,800094cc <__i2b+0x44>
800094a0:	0047a503          	lw	x10,4(x15)
800094a4:	06050263          	beq	x10,x0,80009508 <__i2b+0x80>
800094a8:	00052703          	lw	x14,0(x10)
800094ac:	01c12083          	lw	x1,28(x2)
800094b0:	00e7a223          	sw	x14,4(x15)
800094b4:	00100793          	addi	x15,x0,1
800094b8:	00052623          	sw	x0,12(x10)
800094bc:	00d52a23          	sw	x13,20(x10)
800094c0:	00f52823          	sw	x15,16(x10)
800094c4:	02010113          	addi	x2,x2,32
800094c8:	00008067          	jalr	x0,0(x1)
800094cc:	00b12623          	sw	x11,12(x2)
800094d0:	02100613          	addi	x12,x0,33
800094d4:	00400593          	addi	x11,x0,4
800094d8:	00a12423          	sw	x10,8(x2)
800094dc:	209010ef          	jal	x1,8000aee4 <_calloc_r>
800094e0:	00812703          	lw	x14,8(x2)
800094e4:	00c12683          	lw	x13,12(x2)
800094e8:	00050793          	addi	x15,x10,0
800094ec:	04a72223          	sw	x10,68(x14)
800094f0:	fa0518e3          	bne	x10,x0,800094a0 <__i2b+0x18>
800094f4:	8b418693          	addi	x13,x3,-1868 # 80011584 <__clz_tab+0x158>
800094f8:	94418513          	addi	x10,x3,-1724 # 80011614 <__clz_tab+0x1e8>
800094fc:	00000613          	addi	x12,x0,0
80009500:	14500593          	addi	x11,x0,325
80009504:	189010ef          	jal	x1,8000ae8c <__assert_func>
80009508:	00070513          	addi	x10,x14,0
8000950c:	01c00613          	addi	x12,x0,28
80009510:	00100593          	addi	x11,x0,1
80009514:	00d12423          	sw	x13,8(x2)
80009518:	1cd010ef          	jal	x1,8000aee4 <_calloc_r>
8000951c:	fc050ce3          	beq	x10,x0,800094f4 <__i2b+0x6c>
80009520:	00812683          	lw	x13,8(x2)
80009524:	01c12083          	lw	x1,28(x2)
80009528:	00200793          	addi	x15,x0,2
8000952c:	00f52423          	sw	x15,8(x10)
80009530:	00100713          	addi	x14,x0,1
80009534:	00100793          	addi	x15,x0,1
80009538:	00e52223          	sw	x14,4(x10)
8000953c:	00052623          	sw	x0,12(x10)
80009540:	00d52a23          	sw	x13,20(x10)
80009544:	00f52823          	sw	x15,16(x10)
80009548:	02010113          	addi	x2,x2,32
8000954c:	00008067          	jalr	x0,0(x1)

80009550 <__multiply>:
80009550:	fe010113          	addi	x2,x2,-32
80009554:	01212823          	sw	x18,16(x2)
80009558:	01312623          	sw	x19,12(x2)
8000955c:	0105a903          	lw	x18,16(x11)
80009560:	01062983          	lw	x19,16(x12)
80009564:	00912a23          	sw	x9,20(x2)
80009568:	01412423          	sw	x20,8(x2)
8000956c:	00112e23          	sw	x1,28(x2)
80009570:	00812c23          	sw	x8,24(x2)
80009574:	00058a13          	addi	x20,x11,0
80009578:	00060493          	addi	x9,x12,0
8000957c:	01394c63          	blt	x18,x19,80009594 <__multiply+0x44>
80009580:	00098713          	addi	x14,x19,0
80009584:	00058493          	addi	x9,x11,0
80009588:	00090993          	addi	x19,x18,0
8000958c:	00060a13          	addi	x20,x12,0
80009590:	00070913          	addi	x18,x14,0
80009594:	0084a783          	lw	x15,8(x9)
80009598:	0044a583          	lw	x11,4(x9)
8000959c:	01298433          	add	x8,x19,x18
800095a0:	0087a7b3          	slt	x15,x15,x8
800095a4:	00f585b3          	add	x11,x11,x15
800095a8:	9e5ff0ef          	jal	x1,80008f8c <_Balloc>
800095ac:	1c050a63          	beq	x10,x0,80009780 <__multiply+0x230>
800095b0:	01450893          	addi	x17,x10,20
800095b4:	00241813          	slli	x16,x8,0x2
800095b8:	01088833          	add	x16,x17,x16
800095bc:	00088793          	addi	x15,x17,0
800095c0:	0108f863          	bgeu	x17,x16,800095d0 <__multiply+0x80>
800095c4:	0007a023          	sw	x0,0(x15)
800095c8:	00478793          	addi	x15,x15,4
800095cc:	ff07ece3          	bltu	x15,x16,800095c4 <__multiply+0x74>
800095d0:	014a0593          	addi	x11,x20,20
800095d4:	00291313          	slli	x6,x18,0x2
800095d8:	00658333          	add	x6,x11,x6
800095dc:	1665f263          	bgeu	x11,x6,80009740 <__multiply+0x1f0>
800095e0:	00299693          	slli	x13,x19,0x2
800095e4:	01448e93          	addi	x29,x9,20
800095e8:	00de86b3          	add	x13,x29,x13
800095ec:	01548e13          	addi	x28,x9,21
800095f0:	01c6be33          	sltu	x28,x13,x28
800095f4:	40968633          	sub	x12,x13,x9
800095f8:	001e4e13          	xori	x28,x28,1
800095fc:	feb60613          	addi	x12,x12,-21
80009600:	0180006f          	jal	x0,80009618 <__multiply+0xc8>
80009604:	010fdf93          	srli	x31,x31,0x10
80009608:	0a0f9663          	bne	x31,x0,800096b4 <__multiply+0x164>
8000960c:	00458593          	addi	x11,x11,4
80009610:	00488893          	addi	x17,x17,4
80009614:	1265f663          	bgeu	x11,x6,80009740 <__multiply+0x1f0>
80009618:	0005af83          	lw	x31,0(x11)
8000961c:	010f9393          	slli	x7,x31,0x10
80009620:	0103d393          	srli	x7,x7,0x10
80009624:	fe0380e3          	beq	x7,x0,80009604 <__multiply+0xb4>
80009628:	00088293          	addi	x5,x17,0
8000962c:	000e8f93          	addi	x31,x29,0
80009630:	00000493          	addi	x9,x0,0
80009634:	000fa783          	lw	x15,0(x31)
80009638:	0002af03          	lw	x30,0(x5)
8000963c:	00428293          	addi	x5,x5,4
80009640:	01079713          	slli	x14,x15,0x10
80009644:	01075713          	srli	x14,x14,0x10
80009648:	02770733          	mul	x14,x14,x7
8000964c:	0107d793          	srli	x15,x15,0x10
80009650:	010f1913          	slli	x18,x30,0x10
80009654:	01095913          	srli	x18,x18,0x10
80009658:	010f5f13          	srli	x30,x30,0x10
8000965c:	004f8f93          	addi	x31,x31,4
80009660:	027787b3          	mul	x15,x15,x7
80009664:	01270733          	add	x14,x14,x18
80009668:	00970733          	add	x14,x14,x9
8000966c:	01e787b3          	add	x15,x15,x30
80009670:	01075f13          	srli	x30,x14,0x10
80009674:	01e787b3          	add	x15,x15,x30
80009678:	01071713          	slli	x14,x14,0x10
8000967c:	01075713          	srli	x14,x14,0x10
80009680:	01079f13          	slli	x30,x15,0x10
80009684:	00ef6733          	or	x14,x30,x14
80009688:	fee2ae23          	sw	x14,-4(x5)
8000968c:	0107d493          	srli	x9,x15,0x10
80009690:	fadfe2e3          	bltu	x31,x13,80009634 <__multiply+0xe4>
80009694:	00000793          	addi	x15,x0,0
80009698:	000e0463          	beq	x28,x0,800096a0 <__multiply+0x150>
8000969c:	ffc67793          	andi	x15,x12,-4
800096a0:	00f887b3          	add	x15,x17,x15
800096a4:	0097a223          	sw	x9,4(x15)
800096a8:	0005af83          	lw	x31,0(x11)
800096ac:	010fdf93          	srli	x31,x31,0x10
800096b0:	f40f8ee3          	beq	x31,x0,8000960c <__multiply+0xbc>
800096b4:	0008a783          	lw	x15,0(x17)
800096b8:	00088293          	addi	x5,x17,0
800096bc:	000e8f13          	addi	x30,x29,0
800096c0:	00078493          	addi	x9,x15,0
800096c4:	00000393          	addi	x7,x0,0
800096c8:	000f5703          	lhu	x14,0(x30)
800096cc:	0104d993          	srli	x19,x9,0x10
800096d0:	01079793          	slli	x15,x15,0x10
800096d4:	03f70733          	mul	x14,x14,x31
800096d8:	0107d793          	srli	x15,x15,0x10
800096dc:	004f0f13          	addi	x30,x30,4
800096e0:	0042a483          	lw	x9,4(x5)
800096e4:	00428293          	addi	x5,x5,4
800096e8:	01049913          	slli	x18,x9,0x10
800096ec:	01095913          	srli	x18,x18,0x10
800096f0:	00770733          	add	x14,x14,x7
800096f4:	01370733          	add	x14,x14,x19
800096f8:	01071393          	slli	x7,x14,0x10
800096fc:	00f3e7b3          	or	x15,x7,x15
80009700:	fef2ae23          	sw	x15,-4(x5)
80009704:	ffef5783          	lhu	x15,-2(x30)
80009708:	01075713          	srli	x14,x14,0x10
8000970c:	03f787b3          	mul	x15,x15,x31
80009710:	012787b3          	add	x15,x15,x18
80009714:	00e787b3          	add	x15,x15,x14
80009718:	0107d393          	srli	x7,x15,0x10
8000971c:	fadf66e3          	bltu	x30,x13,800096c8 <__multiply+0x178>
80009720:	00000713          	addi	x14,x0,0
80009724:	000e0463          	beq	x28,x0,8000972c <__multiply+0x1dc>
80009728:	ffc67713          	andi	x14,x12,-4
8000972c:	00e88733          	add	x14,x17,x14
80009730:	00f72223          	sw	x15,4(x14)
80009734:	00458593          	addi	x11,x11,4
80009738:	00488893          	addi	x17,x17,4
8000973c:	ec65eee3          	bltu	x11,x6,80009618 <__multiply+0xc8>
80009740:	00804863          	blt	x0,x8,80009750 <__multiply+0x200>
80009744:	0180006f          	jal	x0,8000975c <__multiply+0x20c>
80009748:	fff40413          	addi	x8,x8,-1
8000974c:	00040863          	beq	x8,x0,8000975c <__multiply+0x20c>
80009750:	ffc82783          	lw	x15,-4(x16)
80009754:	ffc80813          	addi	x16,x16,-4
80009758:	fe0788e3          	beq	x15,x0,80009748 <__multiply+0x1f8>
8000975c:	01c12083          	lw	x1,28(x2)
80009760:	00852823          	sw	x8,16(x10)
80009764:	01812403          	lw	x8,24(x2)
80009768:	01412483          	lw	x9,20(x2)
8000976c:	01012903          	lw	x18,16(x2)
80009770:	00c12983          	lw	x19,12(x2)
80009774:	00812a03          	lw	x20,8(x2)
80009778:	02010113          	addi	x2,x2,32
8000977c:	00008067          	jalr	x0,0(x1)
80009780:	8b418693          	addi	x13,x3,-1868 # 80011584 <__clz_tab+0x158>
80009784:	94418513          	addi	x10,x3,-1724 # 80011614 <__clz_tab+0x1e8>
80009788:	00000613          	addi	x12,x0,0
8000978c:	16200593          	addi	x11,x0,354
80009790:	6fc010ef          	jal	x1,8000ae8c <__assert_func>

80009794 <__pow5mult>:
80009794:	fe010113          	addi	x2,x2,-32
80009798:	00812c23          	sw	x8,24(x2)
8000979c:	01212823          	sw	x18,16(x2)
800097a0:	01312623          	sw	x19,12(x2)
800097a4:	00112e23          	sw	x1,28(x2)
800097a8:	00367793          	andi	x15,x12,3
800097ac:	00060413          	addi	x8,x12,0
800097b0:	00050993          	addi	x19,x10,0
800097b4:	00058913          	addi	x18,x11,0
800097b8:	0c079a63          	bne	x15,x0,8000988c <__pow5mult+0xf8>
800097bc:	40245413          	srai	x8,x8,0x2
800097c0:	0a040863          	beq	x8,x0,80009870 <__pow5mult+0xdc>
800097c4:	00912a23          	sw	x9,20(x2)
800097c8:	0409a483          	lw	x9,64(x19)
800097cc:	0e048063          	beq	x9,x0,800098ac <__pow5mult+0x118>
800097d0:	00147793          	andi	x15,x8,1
800097d4:	40145413          	srai	x8,x8,0x1
800097d8:	00079e63          	bne	x15,x0,800097f4 <__pow5mult+0x60>
800097dc:	0004a503          	lw	x10,0(x9)
800097e0:	04050a63          	beq	x10,x0,80009834 <__pow5mult+0xa0>
800097e4:	00050493          	addi	x9,x10,0
800097e8:	00147793          	andi	x15,x8,1
800097ec:	40145413          	srai	x8,x8,0x1
800097f0:	fe0786e3          	beq	x15,x0,800097dc <__pow5mult+0x48>
800097f4:	00048613          	addi	x12,x9,0
800097f8:	00090593          	addi	x11,x18,0
800097fc:	00098513          	addi	x10,x19,0
80009800:	d51ff0ef          	jal	x1,80009550 <__multiply>
80009804:	02090063          	beq	x18,x0,80009824 <__pow5mult+0x90>
80009808:	00492703          	lw	x14,4(x18)
8000980c:	0449a783          	lw	x15,68(x19)
80009810:	00271713          	slli	x14,x14,0x2
80009814:	00e787b3          	add	x15,x15,x14
80009818:	0007a703          	lw	x14,0(x15)
8000981c:	00e92023          	sw	x14,0(x18)
80009820:	0127a023          	sw	x18,0(x15)
80009824:	02040863          	beq	x8,x0,80009854 <__pow5mult+0xc0>
80009828:	00050913          	addi	x18,x10,0
8000982c:	0004a503          	lw	x10,0(x9)
80009830:	fa051ae3          	bne	x10,x0,800097e4 <__pow5mult+0x50>
80009834:	00048613          	addi	x12,x9,0
80009838:	00048593          	addi	x11,x9,0
8000983c:	00098513          	addi	x10,x19,0
80009840:	d11ff0ef          	jal	x1,80009550 <__multiply>
80009844:	00a4a023          	sw	x10,0(x9)
80009848:	00052023          	sw	x0,0(x10)
8000984c:	00050493          	addi	x9,x10,0
80009850:	f99ff06f          	jal	x0,800097e8 <__pow5mult+0x54>
80009854:	01c12083          	lw	x1,28(x2)
80009858:	01812403          	lw	x8,24(x2)
8000985c:	01412483          	lw	x9,20(x2)
80009860:	01012903          	lw	x18,16(x2)
80009864:	00c12983          	lw	x19,12(x2)
80009868:	02010113          	addi	x2,x2,32
8000986c:	00008067          	jalr	x0,0(x1)
80009870:	01c12083          	lw	x1,28(x2)
80009874:	01812403          	lw	x8,24(x2)
80009878:	00c12983          	lw	x19,12(x2)
8000987c:	00090513          	addi	x10,x18,0
80009880:	01012903          	lw	x18,16(x2)
80009884:	02010113          	addi	x2,x2,32
80009888:	00008067          	jalr	x0,0(x1)
8000988c:	ba818713          	addi	x14,x3,-1112 # 80011878 <p05.0>
80009890:	00279793          	slli	x15,x15,0x2
80009894:	00f707b3          	add	x15,x14,x15
80009898:	ffc7a603          	lw	x12,-4(x15)
8000989c:	00000693          	addi	x13,x0,0
800098a0:	fbcff0ef          	jal	x1,8000905c <__multadd>
800098a4:	00050913          	addi	x18,x10,0
800098a8:	f15ff06f          	jal	x0,800097bc <__pow5mult+0x28>
800098ac:	00100593          	addi	x11,x0,1
800098b0:	00098513          	addi	x10,x19,0
800098b4:	ed8ff0ef          	jal	x1,80008f8c <_Balloc>
800098b8:	00050493          	addi	x9,x10,0
800098bc:	02050063          	beq	x10,x0,800098dc <__pow5mult+0x148>
800098c0:	27100713          	addi	x14,x0,625
800098c4:	00100793          	addi	x15,x0,1
800098c8:	00e52a23          	sw	x14,20(x10)
800098cc:	00f52823          	sw	x15,16(x10)
800098d0:	04a9a023          	sw	x10,64(x19)
800098d4:	00052023          	sw	x0,0(x10)
800098d8:	ef9ff06f          	jal	x0,800097d0 <__pow5mult+0x3c>
800098dc:	8b418693          	addi	x13,x3,-1868 # 80011584 <__clz_tab+0x158>
800098e0:	94418513          	addi	x10,x3,-1724 # 80011614 <__clz_tab+0x1e8>
800098e4:	00000613          	addi	x12,x0,0
800098e8:	14500593          	addi	x11,x0,325
800098ec:	5a0010ef          	jal	x1,8000ae8c <__assert_func>

800098f0 <__lshift>:
800098f0:	fd010113          	addi	x2,x2,-48
800098f4:	03212023          	sw	x18,32(x2)
800098f8:	0105a903          	lw	x18,16(x11)
800098fc:	0085a783          	lw	x15,8(x11)
80009900:	01412c23          	sw	x20,24(x2)
80009904:	40565a13          	srai	x20,x12,0x5
80009908:	012a0933          	add	x18,x20,x18
8000990c:	02812423          	sw	x8,40(x2)
80009910:	02912223          	sw	x9,36(x2)
80009914:	01312e23          	sw	x19,28(x2)
80009918:	02112623          	sw	x1,44(x2)
8000991c:	00190413          	addi	x8,x18,1
80009920:	00058493          	addi	x9,x11,0
80009924:	00050993          	addi	x19,x10,0
80009928:	0045a583          	lw	x11,4(x11)
8000992c:	0087d863          	bge	x15,x8,8000993c <__lshift+0x4c>
80009930:	00179793          	slli	x15,x15,0x1
80009934:	00158593          	addi	x11,x11,1
80009938:	fe87cce3          	blt	x15,x8,80009930 <__lshift+0x40>
8000993c:	00098513          	addi	x10,x19,0
80009940:	00c12623          	sw	x12,12(x2)
80009944:	e48ff0ef          	jal	x1,80008f8c <_Balloc>
80009948:	00c12603          	lw	x12,12(x2)
8000994c:	10050863          	beq	x10,x0,80009a5c <__lshift+0x16c>
80009950:	01450593          	addi	x11,x10,20
80009954:	03405463          	bge	x0,x20,8000997c <__lshift+0x8c>
80009958:	005a0713          	addi	x14,x20,5
8000995c:	00271713          	slli	x14,x14,0x2
80009960:	00e50733          	add	x14,x10,x14
80009964:	00058793          	addi	x15,x11,0
80009968:	00478793          	addi	x15,x15,4
8000996c:	fe07ae23          	sw	x0,-4(x15)
80009970:	fee79ce3          	bne	x15,x14,80009968 <__lshift+0x78>
80009974:	002a1a13          	slli	x20,x20,0x2
80009978:	014585b3          	add	x11,x11,x20
8000997c:	0104a803          	lw	x16,16(x9)
80009980:	01448793          	addi	x15,x9,20
80009984:	01f67613          	andi	x12,x12,31
80009988:	00281813          	slli	x16,x16,0x2
8000998c:	01078833          	add	x16,x15,x16
80009990:	0a060063          	beq	x12,x0,80009a30 <__lshift+0x140>
80009994:	02000313          	addi	x6,x0,32
80009998:	40c30333          	sub	x6,x6,x12
8000999c:	00058893          	addi	x17,x11,0
800099a0:	00000693          	addi	x13,x0,0
800099a4:	0007a703          	lw	x14,0(x15)
800099a8:	00488893          	addi	x17,x17,4
800099ac:	00478793          	addi	x15,x15,4
800099b0:	00c71733          	sll	x14,x14,x12
800099b4:	00d76733          	or	x14,x14,x13
800099b8:	fee8ae23          	sw	x14,-4(x17)
800099bc:	ffc7a683          	lw	x13,-4(x15)
800099c0:	0066d6b3          	srl	x13,x13,x6
800099c4:	ff07e0e3          	bltu	x15,x16,800099a4 <__lshift+0xb4>
800099c8:	01548793          	addi	x15,x9,21
800099cc:	00000713          	addi	x14,x0,0
800099d0:	00f86863          	bltu	x16,x15,800099e0 <__lshift+0xf0>
800099d4:	40980833          	sub	x16,x16,x9
800099d8:	feb80813          	addi	x16,x16,-21
800099dc:	ffc87713          	andi	x14,x16,-4
800099e0:	00e585b3          	add	x11,x11,x14
800099e4:	00d5a223          	sw	x13,4(x11)
800099e8:	00069463          	bne	x13,x0,800099f0 <__lshift+0x100>
800099ec:	00090413          	addi	x8,x18,0
800099f0:	0044a703          	lw	x14,4(x9)
800099f4:	0449a783          	lw	x15,68(x19)
800099f8:	02c12083          	lw	x1,44(x2)
800099fc:	00271713          	slli	x14,x14,0x2
80009a00:	00e787b3          	add	x15,x15,x14
80009a04:	0007a703          	lw	x14,0(x15)
80009a08:	00852823          	sw	x8,16(x10)
80009a0c:	02812403          	lw	x8,40(x2)
80009a10:	00e4a023          	sw	x14,0(x9)
80009a14:	0097a023          	sw	x9,0(x15)
80009a18:	02012903          	lw	x18,32(x2)
80009a1c:	02412483          	lw	x9,36(x2)
80009a20:	01c12983          	lw	x19,28(x2)
80009a24:	01812a03          	lw	x20,24(x2)
80009a28:	03010113          	addi	x2,x2,48
80009a2c:	00008067          	jalr	x0,0(x1)
80009a30:	0007a703          	lw	x14,0(x15)
80009a34:	00478793          	addi	x15,x15,4
80009a38:	00458593          	addi	x11,x11,4
80009a3c:	fee5ae23          	sw	x14,-4(x11)
80009a40:	fb07f6e3          	bgeu	x15,x16,800099ec <__lshift+0xfc>
80009a44:	0007a703          	lw	x14,0(x15)
80009a48:	00478793          	addi	x15,x15,4
80009a4c:	00458593          	addi	x11,x11,4
80009a50:	fee5ae23          	sw	x14,-4(x11)
80009a54:	fd07eee3          	bltu	x15,x16,80009a30 <__lshift+0x140>
80009a58:	f95ff06f          	jal	x0,800099ec <__lshift+0xfc>
80009a5c:	8b418693          	addi	x13,x3,-1868 # 80011584 <__clz_tab+0x158>
80009a60:	94418513          	addi	x10,x3,-1724 # 80011614 <__clz_tab+0x1e8>
80009a64:	00000613          	addi	x12,x0,0
80009a68:	1de00593          	addi	x11,x0,478
80009a6c:	420010ef          	jal	x1,8000ae8c <__assert_func>

80009a70 <__mcmp>:
80009a70:	01052703          	lw	x14,16(x10)
80009a74:	0105a783          	lw	x15,16(x11)
80009a78:	00050613          	addi	x12,x10,0
80009a7c:	40f70533          	sub	x10,x14,x15
80009a80:	04f71263          	bne	x14,x15,80009ac4 <__mcmp+0x54>
80009a84:	00279793          	slli	x15,x15,0x2
80009a88:	01460613          	addi	x12,x12,20
80009a8c:	01458593          	addi	x11,x11,20
80009a90:	00f585b3          	add	x11,x11,x15
80009a94:	00f607b3          	add	x15,x12,x15
80009a98:	0080006f          	jal	x0,80009aa0 <__mcmp+0x30>
80009a9c:	02f67463          	bgeu	x12,x15,80009ac4 <__mcmp+0x54>
80009aa0:	ffc7a683          	lw	x13,-4(x15)
80009aa4:	ffc5a703          	lw	x14,-4(x11)
80009aa8:	ffc78793          	addi	x15,x15,-4
80009aac:	ffc58593          	addi	x11,x11,-4
80009ab0:	fee686e3          	beq	x13,x14,80009a9c <__mcmp+0x2c>
80009ab4:	00100513          	addi	x10,x0,1
80009ab8:	00e6f663          	bgeu	x13,x14,80009ac4 <__mcmp+0x54>
80009abc:	fff00513          	addi	x10,x0,-1
80009ac0:	00008067          	jalr	x0,0(x1)
80009ac4:	00008067          	jalr	x0,0(x1)

80009ac8 <__mdiff>:
80009ac8:	0105a703          	lw	x14,16(x11)
80009acc:	01062783          	lw	x15,16(x12)
80009ad0:	fe010113          	addi	x2,x2,-32
80009ad4:	00112e23          	sw	x1,28(x2)
80009ad8:	00058f13          	addi	x30,x11,0
80009adc:	40f708b3          	sub	x17,x14,x15
80009ae0:	04f71063          	bne	x14,x15,80009b20 <__mdiff+0x58>
80009ae4:	00279693          	slli	x13,x15,0x2
80009ae8:	01458593          	addi	x11,x11,20
80009aec:	01460713          	addi	x14,x12,20
80009af0:	00d587b3          	add	x15,x11,x13
80009af4:	00d70733          	add	x14,x14,x13
80009af8:	0080006f          	jal	x0,80009b00 <__mdiff+0x38>
80009afc:	18f5fc63          	bgeu	x11,x15,80009c94 <__mdiff+0x1cc>
80009b00:	ffc7a803          	lw	x16,-4(x15)
80009b04:	ffc72683          	lw	x13,-4(x14)
80009b08:	ffc78793          	addi	x15,x15,-4
80009b0c:	ffc70713          	addi	x14,x14,-4
80009b10:	fed806e3          	beq	x16,x13,80009afc <__mdiff+0x34>
80009b14:	1ad87263          	bgeu	x16,x13,80009cb8 <__mdiff+0x1f0>
80009b18:	00100893          	addi	x17,x0,1
80009b1c:	0180006f          	jal	x0,80009b34 <__mdiff+0x6c>
80009b20:	fe08cce3          	blt	x17,x0,80009b18 <__mdiff+0x50>
80009b24:	00060793          	addi	x15,x12,0
80009b28:	00000893          	addi	x17,x0,0
80009b2c:	00058613          	addi	x12,x11,0
80009b30:	00078f13          	addi	x30,x15,0
80009b34:	00462583          	lw	x11,4(x12)
80009b38:	01e12623          	sw	x30,12(x2)
80009b3c:	01112423          	sw	x17,8(x2)
80009b40:	00c12223          	sw	x12,4(x2)
80009b44:	c48ff0ef          	jal	x1,80008f8c <_Balloc>
80009b48:	00412603          	lw	x12,4(x2)
80009b4c:	00812883          	lw	x17,8(x2)
80009b50:	00c12f03          	lw	x30,12(x2)
80009b54:	18050463          	beq	x10,x0,80009cdc <__mdiff+0x214>
80009b58:	01062803          	lw	x16,16(x12)
80009b5c:	010f2f83          	lw	x31,16(x30)
80009b60:	01460293          	addi	x5,x12,20
80009b64:	00281713          	slli	x14,x16,0x2
80009b68:	002f9f93          	slli	x31,x31,0x2
80009b6c:	014f0613          	addi	x12,x30,20
80009b70:	01450393          	addi	x7,x10,20
80009b74:	01152623          	sw	x17,12(x10)
80009b78:	00e28333          	add	x6,x5,x14
80009b7c:	01f60fb3          	add	x31,x12,x31
80009b80:	00028e93          	addi	x29,x5,0
80009b84:	00038e13          	addi	x28,x7,0
80009b88:	00000893          	addi	x17,x0,0
80009b8c:	000ea703          	lw	x14,0(x29)
80009b90:	00062683          	lw	x13,0(x12)
80009b94:	004e0e13          	addi	x28,x28,4
80009b98:	01071793          	slli	x15,x14,0x10
80009b9c:	01069593          	slli	x11,x13,0x10
80009ba0:	0107d793          	srli	x15,x15,0x10
80009ba4:	0105d593          	srli	x11,x11,0x10
80009ba8:	40b787b3          	sub	x15,x15,x11
80009bac:	011787b3          	add	x15,x15,x17
80009bb0:	0106d693          	srli	x13,x13,0x10
80009bb4:	01075713          	srli	x14,x14,0x10
80009bb8:	40d70733          	sub	x14,x14,x13
80009bbc:	4107d693          	srai	x13,x15,0x10
80009bc0:	00d70733          	add	x14,x14,x13
80009bc4:	01079793          	slli	x15,x15,0x10
80009bc8:	0107d793          	srli	x15,x15,0x10
80009bcc:	01071693          	slli	x13,x14,0x10
80009bd0:	00d7e7b3          	or	x15,x15,x13
80009bd4:	00460613          	addi	x12,x12,4
80009bd8:	fefe2e23          	sw	x15,-4(x28)
80009bdc:	004e8e93          	addi	x29,x29,4
80009be0:	41075893          	srai	x17,x14,0x10
80009be4:	fbf664e3          	bltu	x12,x31,80009b8c <__mdiff+0xc4>
80009be8:	015f0693          	addi	x13,x30,21
80009bec:	00000713          	addi	x14,x0,0
80009bf0:	00dfe863          	bltu	x31,x13,80009c00 <__mdiff+0x138>
80009bf4:	41ef8fb3          	sub	x31,x31,x30
80009bf8:	febf8f93          	addi	x31,x31,-21
80009bfc:	ffcff713          	andi	x14,x31,-4
80009c00:	00e28eb3          	add	x29,x5,x14
80009c04:	004e8e93          	addi	x29,x29,4
80009c08:	00770733          	add	x14,x14,x7
80009c0c:	40538e33          	sub	x28,x7,x5
80009c10:	000e8613          	addi	x12,x29,0
80009c14:	00470f13          	addi	x30,x14,4
80009c18:	046efc63          	bgeu	x29,x6,80009c70 <__mdiff+0x1a8>
80009c1c:	00062683          	lw	x13,0(x12)
80009c20:	01c605b3          	add	x11,x12,x28
80009c24:	00460613          	addi	x12,x12,4
80009c28:	01069713          	slli	x14,x13,0x10
80009c2c:	01075713          	srli	x14,x14,0x10
80009c30:	01170733          	add	x14,x14,x17
80009c34:	011687b3          	add	x15,x13,x17
80009c38:	41075713          	srai	x14,x14,0x10
80009c3c:	0106d693          	srli	x13,x13,0x10
80009c40:	00d70733          	add	x14,x14,x13
80009c44:	01079793          	slli	x15,x15,0x10
80009c48:	0107d793          	srli	x15,x15,0x10
80009c4c:	01071693          	slli	x13,x14,0x10
80009c50:	00d7e7b3          	or	x15,x15,x13
80009c54:	00f5a023          	sw	x15,0(x11)
80009c58:	41075893          	srai	x17,x14,0x10
80009c5c:	fc6660e3          	bltu	x12,x6,80009c1c <__mdiff+0x154>
80009c60:	fff30713          	addi	x14,x6,-1
80009c64:	41d70733          	sub	x14,x14,x29
80009c68:	ffc77713          	andi	x14,x14,-4
80009c6c:	01e70733          	add	x14,x14,x30
80009c70:	00079a63          	bne	x15,x0,80009c84 <__mdiff+0x1bc>
80009c74:	ffc72783          	lw	x15,-4(x14)
80009c78:	ffc70713          	addi	x14,x14,-4
80009c7c:	fff80813          	addi	x16,x16,-1
80009c80:	fe078ae3          	beq	x15,x0,80009c74 <__mdiff+0x1ac>
80009c84:	01c12083          	lw	x1,28(x2)
80009c88:	01052823          	sw	x16,16(x10)
80009c8c:	02010113          	addi	x2,x2,32
80009c90:	00008067          	jalr	x0,0(x1)
80009c94:	00000593          	addi	x11,x0,0
80009c98:	af4ff0ef          	jal	x1,80008f8c <_Balloc>
80009c9c:	02050663          	beq	x10,x0,80009cc8 <__mdiff+0x200>
80009ca0:	01c12083          	lw	x1,28(x2)
80009ca4:	00100793          	addi	x15,x0,1
80009ca8:	00052a23          	sw	x0,20(x10)
80009cac:	00f52823          	sw	x15,16(x10)
80009cb0:	02010113          	addi	x2,x2,32
80009cb4:	00008067          	jalr	x0,0(x1)
80009cb8:	00060793          	addi	x15,x12,0
80009cbc:	000f0613          	addi	x12,x30,0
80009cc0:	00078f13          	addi	x30,x15,0
80009cc4:	e71ff06f          	jal	x0,80009b34 <__mdiff+0x6c>
80009cc8:	8b418693          	addi	x13,x3,-1868 # 80011584 <__clz_tab+0x158>
80009ccc:	94418513          	addi	x10,x3,-1724 # 80011614 <__clz_tab+0x1e8>
80009cd0:	00000613          	addi	x12,x0,0
80009cd4:	23700593          	addi	x11,x0,567
80009cd8:	1b4010ef          	jal	x1,8000ae8c <__assert_func>
80009cdc:	8b418693          	addi	x13,x3,-1868 # 80011584 <__clz_tab+0x158>
80009ce0:	94418513          	addi	x10,x3,-1724 # 80011614 <__clz_tab+0x1e8>
80009ce4:	00000613          	addi	x12,x0,0
80009ce8:	24500593          	addi	x11,x0,581
80009cec:	1a0010ef          	jal	x1,8000ae8c <__assert_func>

80009cf0 <__ulp>:
80009cf0:	7ff007b7          	lui	x15,0x7ff00
80009cf4:	00b7f5b3          	and	x11,x15,x11
80009cf8:	fcc007b7          	lui	x15,0xfcc00
80009cfc:	00f585b3          	add	x11,x11,x15
80009d00:	00000793          	addi	x15,x0,0
80009d04:	00b05663          	bge	x0,x11,80009d10 <__ulp+0x20>
80009d08:	00078513          	addi	x10,x15,0 # fcc00000 <_stack_top+0x74c00000>
80009d0c:	00008067          	jalr	x0,0(x1)
80009d10:	40b005b3          	sub	x11,x0,x11
80009d14:	4145d593          	srai	x11,x11,0x14
80009d18:	01300793          	addi	x15,x0,19
80009d1c:	00b7cc63          	blt	x15,x11,80009d34 <__ulp+0x44>
80009d20:	000807b7          	lui	x15,0x80
80009d24:	40b7d5b3          	sra	x11,x15,x11
80009d28:	00000793          	addi	x15,x0,0
80009d2c:	00078513          	addi	x10,x15,0 # 80000 <_start-0x7ff80000>
80009d30:	00008067          	jalr	x0,0(x1)
80009d34:	fec58593          	addi	x11,x11,-20
80009d38:	01e00713          	addi	x14,x0,30
80009d3c:	00100793          	addi	x15,x0,1
80009d40:	00b74663          	blt	x14,x11,80009d4c <__ulp+0x5c>
80009d44:	800007b7          	lui	x15,0x80000
80009d48:	00b7d7b3          	srl	x15,x15,x11
80009d4c:	00000593          	addi	x11,x0,0
80009d50:	00078513          	addi	x10,x15,0 # 80000000 <_start>
80009d54:	00008067          	jalr	x0,0(x1)

80009d58 <__b2d>:
80009d58:	fd010113          	addi	x2,x2,-48
80009d5c:	02812423          	sw	x8,40(x2)
80009d60:	01052403          	lw	x8,16(x10)
80009d64:	02912223          	sw	x9,36(x2)
80009d68:	01450493          	addi	x9,x10,20
80009d6c:	00241413          	slli	x8,x8,0x2
80009d70:	00848433          	add	x8,x9,x8
80009d74:	03212023          	sw	x18,32(x2)
80009d78:	ffc42903          	lw	x18,-4(x8)
80009d7c:	01312e23          	sw	x19,28(x2)
80009d80:	00b12623          	sw	x11,12(x2)
80009d84:	00090513          	addi	x10,x18,0
80009d88:	02112623          	sw	x1,44(x2)
80009d8c:	d58ff0ef          	jal	x1,800092e4 <__hi0bits>
80009d90:	00c12583          	lw	x11,12(x2)
80009d94:	02000713          	addi	x14,x0,32
80009d98:	40a707b3          	sub	x15,x14,x10
80009d9c:	00f5a023          	sw	x15,0(x11)
80009da0:	00a00793          	addi	x15,x0,10
80009da4:	ffc40993          	addi	x19,x8,-4
80009da8:	08a7da63          	bge	x15,x10,80009e3c <__b2d+0xe4>
80009dac:	ff550613          	addi	x12,x10,-11
80009db0:	0534f063          	bgeu	x9,x19,80009df0 <__b2d+0x98>
80009db4:	ff842783          	lw	x15,-8(x8)
80009db8:	04060c63          	beq	x12,x0,80009e10 <__b2d+0xb8>
80009dbc:	40c706b3          	sub	x13,x14,x12
80009dc0:	00d7d733          	srl	x14,x15,x13
80009dc4:	00c91933          	sll	x18,x18,x12
80009dc8:	00e96933          	or	x18,x18,x14
80009dcc:	00c797b3          	sll	x15,x15,x12
80009dd0:	3ff00737          	lui	x14,0x3ff00
80009dd4:	ff840613          	addi	x12,x8,-8
80009dd8:	00e96733          	or	x14,x18,x14
80009ddc:	02c4fe63          	bgeu	x9,x12,80009e18 <__b2d+0xc0>
80009de0:	ff442603          	lw	x12,-12(x8)
80009de4:	00d656b3          	srl	x13,x12,x13
80009de8:	00d7e7b3          	or	x15,x15,x13
80009dec:	02c0006f          	jal	x0,80009e18 <__b2d+0xc0>
80009df0:	00b00793          	addi	x15,x0,11
80009df4:	00f50c63          	beq	x10,x15,80009e0c <__b2d+0xb4>
80009df8:	00c91933          	sll	x18,x18,x12
80009dfc:	3ff00737          	lui	x14,0x3ff00
80009e00:	00e96733          	or	x14,x18,x14
80009e04:	00000793          	addi	x15,x0,0
80009e08:	0100006f          	jal	x0,80009e18 <__b2d+0xc0>
80009e0c:	00000793          	addi	x15,x0,0
80009e10:	3ff00737          	lui	x14,0x3ff00
80009e14:	00e96733          	or	x14,x18,x14
80009e18:	02c12083          	lw	x1,44(x2)
80009e1c:	02812403          	lw	x8,40(x2)
80009e20:	02412483          	lw	x9,36(x2)
80009e24:	02012903          	lw	x18,32(x2)
80009e28:	01c12983          	lw	x19,28(x2)
80009e2c:	00078513          	addi	x10,x15,0
80009e30:	00070593          	addi	x11,x14,0 # 3ff00000 <_start-0x40100000>
80009e34:	03010113          	addi	x2,x2,48
80009e38:	00008067          	jalr	x0,0(x1)
80009e3c:	00b00693          	addi	x13,x0,11
80009e40:	40a686b3          	sub	x13,x13,x10
80009e44:	3ff007b7          	lui	x15,0x3ff00
80009e48:	00d95733          	srl	x14,x18,x13
80009e4c:	00f76733          	or	x14,x14,x15
80009e50:	00000793          	addi	x15,x0,0
80009e54:	0134f663          	bgeu	x9,x19,80009e60 <__b2d+0x108>
80009e58:	ff842783          	lw	x15,-8(x8)
80009e5c:	00d7d7b3          	srl	x15,x15,x13
80009e60:	01550513          	addi	x10,x10,21
80009e64:	00a91933          	sll	x18,x18,x10
80009e68:	00f967b3          	or	x15,x18,x15
80009e6c:	fadff06f          	jal	x0,80009e18 <__b2d+0xc0>

80009e70 <__d2b>:
80009e70:	fc010113          	addi	x2,x2,-64
80009e74:	03212823          	sw	x18,48(x2)
80009e78:	00058913          	addi	x18,x11,0
80009e7c:	00100593          	addi	x11,x0,1
80009e80:	03312623          	sw	x19,44(x2)
80009e84:	03412423          	sw	x20,40(x2)
80009e88:	00c12623          	sw	x12,12(x2)
80009e8c:	02112e23          	sw	x1,60(x2)
80009e90:	02812c23          	sw	x8,56(x2)
80009e94:	02912a23          	sw	x9,52(x2)
80009e98:	00068a13          	addi	x20,x13,0
80009e9c:	00070993          	addi	x19,x14,0
80009ea0:	8ecff0ef          	jal	x1,80008f8c <_Balloc>
80009ea4:	00c12603          	lw	x12,12(x2)
80009ea8:	0e050a63          	beq	x10,x0,80009f9c <__d2b+0x12c>
80009eac:	01465413          	srli	x8,x12,0x14
80009eb0:	00100737          	lui	x14,0x100
80009eb4:	fff70793          	addi	x15,x14,-1 # fffff <_start-0x7ff00001>
80009eb8:	7ff47413          	andi	x8,x8,2047
80009ebc:	00050493          	addi	x9,x10,0
80009ec0:	00c7f633          	and	x12,x15,x12
80009ec4:	00040463          	beq	x8,x0,80009ecc <__d2b+0x5c>
80009ec8:	00e66633          	or	x12,x12,x14
80009ecc:	00c12e23          	sw	x12,28(x2)
80009ed0:	06091063          	bne	x18,x0,80009f30 <__d2b+0xc0>
80009ed4:	01c10513          	addi	x10,x2,28
80009ed8:	c98ff0ef          	jal	x1,80009370 <__lo0bits>
80009edc:	01c12683          	lw	x13,28(x2)
80009ee0:	00100913          	addi	x18,x0,1
80009ee4:	0124a823          	sw	x18,16(x9)
80009ee8:	00d4aa23          	sw	x13,20(x9)
80009eec:	02050713          	addi	x14,x10,32
80009ef0:	08040463          	beq	x8,x0,80009f78 <__d2b+0x108>
80009ef4:	bcd40413          	addi	x8,x8,-1075
80009ef8:	00e40433          	add	x8,x8,x14
80009efc:	03500793          	addi	x15,x0,53
80009f00:	008a2023          	sw	x8,0(x20)
80009f04:	40e78533          	sub	x10,x15,x14
80009f08:	03c12083          	lw	x1,60(x2)
80009f0c:	03812403          	lw	x8,56(x2)
80009f10:	00a9a023          	sw	x10,0(x19)
80009f14:	03012903          	lw	x18,48(x2)
80009f18:	02c12983          	lw	x19,44(x2)
80009f1c:	02812a03          	lw	x20,40(x2)
80009f20:	00048513          	addi	x10,x9,0
80009f24:	03412483          	lw	x9,52(x2)
80009f28:	04010113          	addi	x2,x2,64
80009f2c:	00008067          	jalr	x0,0(x1)
80009f30:	01810513          	addi	x10,x2,24
80009f34:	01212c23          	sw	x18,24(x2)
80009f38:	c38ff0ef          	jal	x1,80009370 <__lo0bits>
80009f3c:	01c12683          	lw	x13,28(x2)
80009f40:	01812603          	lw	x12,24(x2)
80009f44:	00050713          	addi	x14,x10,0
80009f48:	00050c63          	beq	x10,x0,80009f60 <__d2b+0xf0>
80009f4c:	02000793          	addi	x15,x0,32
80009f50:	40a787b3          	sub	x15,x15,x10
80009f54:	00f697b3          	sll	x15,x13,x15
80009f58:	00f66633          	or	x12,x12,x15
80009f5c:	00a6d6b3          	srl	x13,x13,x10
80009f60:	00d03933          	sltu	x18,x0,x13
80009f64:	00190913          	addi	x18,x18,1
80009f68:	00c4aa23          	sw	x12,20(x9)
80009f6c:	00d4ac23          	sw	x13,24(x9)
80009f70:	0124a823          	sw	x18,16(x9)
80009f74:	f80410e3          	bne	x8,x0,80009ef4 <__d2b+0x84>
80009f78:	00291693          	slli	x13,x18,0x2
80009f7c:	00d486b3          	add	x13,x9,x13
80009f80:	0106a503          	lw	x10,16(x13)
80009f84:	bce70713          	addi	x14,x14,-1074
80009f88:	00ea2023          	sw	x14,0(x20)
80009f8c:	b58ff0ef          	jal	x1,800092e4 <__hi0bits>
80009f90:	00591793          	slli	x15,x18,0x5
80009f94:	40a78533          	sub	x10,x15,x10
80009f98:	f71ff06f          	jal	x0,80009f08 <__d2b+0x98>
80009f9c:	8b418693          	addi	x13,x3,-1868 # 80011584 <__clz_tab+0x158>
80009fa0:	94418513          	addi	x10,x3,-1724 # 80011614 <__clz_tab+0x1e8>
80009fa4:	00000613          	addi	x12,x0,0
80009fa8:	30f00593          	addi	x11,x0,783
80009fac:	6e1000ef          	jal	x1,8000ae8c <__assert_func>

80009fb0 <__ratio>:
80009fb0:	fd010113          	addi	x2,x2,-48
80009fb4:	03212023          	sw	x18,32(x2)
80009fb8:	00058913          	addi	x18,x11,0
80009fbc:	00810593          	addi	x11,x2,8
80009fc0:	02112623          	sw	x1,44(x2)
80009fc4:	02812423          	sw	x8,40(x2)
80009fc8:	02912223          	sw	x9,36(x2)
80009fcc:	01312e23          	sw	x19,28(x2)
80009fd0:	00050993          	addi	x19,x10,0
80009fd4:	d85ff0ef          	jal	x1,80009d58 <__b2d>
80009fd8:	00050493          	addi	x9,x10,0
80009fdc:	00058413          	addi	x8,x11,0
80009fe0:	00090513          	addi	x10,x18,0
80009fe4:	00c10593          	addi	x11,x2,12
80009fe8:	d71ff0ef          	jal	x1,80009d58 <__b2d>
80009fec:	0109a783          	lw	x15,16(x19)
80009ff0:	01092603          	lw	x12,16(x18)
80009ff4:	00812703          	lw	x14,8(x2)
80009ff8:	00c12683          	lw	x13,12(x2)
80009ffc:	40c787b3          	sub	x15,x15,x12
8000a000:	00579793          	slli	x15,x15,0x5
8000a004:	40d70733          	sub	x14,x14,x13
8000a008:	00e787b3          	add	x15,x15,x14
8000a00c:	02f05e63          	bge	x0,x15,8000a048 <__ratio+0x98>
8000a010:	01479793          	slli	x15,x15,0x14
8000a014:	00878433          	add	x8,x15,x8
8000a018:	00050613          	addi	x12,x10,0
8000a01c:	00058693          	addi	x13,x11,0
8000a020:	00048513          	addi	x10,x9,0
8000a024:	00040593          	addi	x11,x8,0
8000a028:	1b4030ef          	jal	x1,8000d1dc <__divdf3>
8000a02c:	02c12083          	lw	x1,44(x2)
8000a030:	02812403          	lw	x8,40(x2)
8000a034:	02412483          	lw	x9,36(x2)
8000a038:	02012903          	lw	x18,32(x2)
8000a03c:	01c12983          	lw	x19,28(x2)
8000a040:	03010113          	addi	x2,x2,48
8000a044:	00008067          	jalr	x0,0(x1)
8000a048:	01479793          	slli	x15,x15,0x14
8000a04c:	40f585b3          	sub	x11,x11,x15
8000a050:	fc9ff06f          	jal	x0,8000a018 <__ratio+0x68>

8000a054 <_mprec_log10>:
8000a054:	ff010113          	addi	x2,x2,-16
8000a058:	01212023          	sw	x18,0(x2)
8000a05c:	00112623          	sw	x1,12(x2)
8000a060:	01700793          	addi	x15,x0,23
8000a064:	00050913          	addi	x18,x10,0
8000a068:	04a7da63          	bge	x15,x10,8000a0bc <_mprec_log10+0x68>
8000a06c:	00812423          	sw	x8,8(x2)
8000a070:	00912223          	sw	x9,4(x2)
8000a074:	fd01a783          	lw	x15,-48(x3) # 80011ca0 <_end_text+0x34>
8000a078:	fd41a583          	lw	x11,-44(x3) # 80011ca4 <_end_text+0x38>
8000a07c:	fd81a403          	lw	x8,-40(x3) # 80011ca8 <_end_text+0x3c>
8000a080:	fdc1a483          	lw	x9,-36(x3) # 80011cac <_end_text+0x40>
8000a084:	00078513          	addi	x10,x15,0 # 3ff00000 <_start-0x40100000>
8000a088:	00040613          	addi	x12,x8,0
8000a08c:	00048693          	addi	x13,x9,0
8000a090:	235030ef          	jal	x1,8000dac4 <__muldf3>
8000a094:	fff90913          	addi	x18,x18,-1
8000a098:	00050793          	addi	x15,x10,0
8000a09c:	fe0914e3          	bne	x18,x0,8000a084 <_mprec_log10+0x30>
8000a0a0:	00812403          	lw	x8,8(x2)
8000a0a4:	00c12083          	lw	x1,12(x2)
8000a0a8:	00412483          	lw	x9,4(x2)
8000a0ac:	00012903          	lw	x18,0(x2)
8000a0b0:	00078513          	addi	x10,x15,0
8000a0b4:	01010113          	addi	x2,x2,16
8000a0b8:	00008067          	jalr	x0,0(x1)
8000a0bc:	00351913          	slli	x18,x10,0x3
8000a0c0:	c0818713          	addi	x14,x3,-1016 # 800118d8 <__mprec_tens>
8000a0c4:	01270733          	add	x14,x14,x18
8000a0c8:	00072783          	lw	x15,0(x14)
8000a0cc:	00c12083          	lw	x1,12(x2)
8000a0d0:	00472583          	lw	x11,4(x14)
8000a0d4:	00012903          	lw	x18,0(x2)
8000a0d8:	00078513          	addi	x10,x15,0
8000a0dc:	01010113          	addi	x2,x2,16
8000a0e0:	00008067          	jalr	x0,0(x1)

8000a0e4 <__copybits>:
8000a0e4:	01062683          	lw	x13,16(x12)
8000a0e8:	fff58593          	addi	x11,x11,-1
8000a0ec:	4055d593          	srai	x11,x11,0x5
8000a0f0:	00158593          	addi	x11,x11,1
8000a0f4:	00269693          	slli	x13,x13,0x2
8000a0f8:	01460793          	addi	x15,x12,20
8000a0fc:	00259593          	slli	x11,x11,0x2
8000a100:	00d786b3          	add	x13,x15,x13
8000a104:	00b505b3          	add	x11,x10,x11
8000a108:	02d7f863          	bgeu	x15,x13,8000a138 <__copybits+0x54>
8000a10c:	00050713          	addi	x14,x10,0
8000a110:	0007a803          	lw	x16,0(x15)
8000a114:	00478793          	addi	x15,x15,4
8000a118:	00470713          	addi	x14,x14,4
8000a11c:	ff072e23          	sw	x16,-4(x14)
8000a120:	fed7e8e3          	bltu	x15,x13,8000a110 <__copybits+0x2c>
8000a124:	40c686b3          	sub	x13,x13,x12
8000a128:	feb68693          	addi	x13,x13,-21
8000a12c:	ffc6f693          	andi	x13,x13,-4
8000a130:	00450513          	addi	x10,x10,4
8000a134:	00a68533          	add	x10,x13,x10
8000a138:	00b57863          	bgeu	x10,x11,8000a148 <__copybits+0x64>
8000a13c:	00450513          	addi	x10,x10,4
8000a140:	fe052e23          	sw	x0,-4(x10)
8000a144:	feb56ce3          	bltu	x10,x11,8000a13c <__copybits+0x58>
8000a148:	00008067          	jalr	x0,0(x1)

8000a14c <__any_on>:
8000a14c:	01052703          	lw	x14,16(x10)
8000a150:	4055d613          	srai	x12,x11,0x5
8000a154:	01450693          	addi	x13,x10,20
8000a158:	02c75263          	bge	x14,x12,8000a17c <__any_on+0x30>
8000a15c:	00271713          	slli	x14,x14,0x2
8000a160:	00e687b3          	add	x15,x13,x14
8000a164:	04f6f263          	bgeu	x13,x15,8000a1a8 <__any_on+0x5c>
8000a168:	ffc7a703          	lw	x14,-4(x15)
8000a16c:	ffc78793          	addi	x15,x15,-4
8000a170:	fe070ae3          	beq	x14,x0,8000a164 <__any_on+0x18>
8000a174:	00100513          	addi	x10,x0,1
8000a178:	00008067          	jalr	x0,0(x1)
8000a17c:	00261793          	slli	x15,x12,0x2
8000a180:	00f687b3          	add	x15,x13,x15
8000a184:	fee650e3          	bge	x12,x14,8000a164 <__any_on+0x18>
8000a188:	01f5f593          	andi	x11,x11,31
8000a18c:	fc058ce3          	beq	x11,x0,8000a164 <__any_on+0x18>
8000a190:	0007a603          	lw	x12,0(x15)
8000a194:	00100513          	addi	x10,x0,1
8000a198:	00b65733          	srl	x14,x12,x11
8000a19c:	00b71733          	sll	x14,x14,x11
8000a1a0:	fce602e3          	beq	x12,x14,8000a164 <__any_on+0x18>
8000a1a4:	00008067          	jalr	x0,0(x1)
8000a1a8:	00000513          	addi	x10,x0,0
8000a1ac:	00008067          	jalr	x0,0(x1)

8000a1b0 <_realloc_r>:
8000a1b0:	1e058663          	beq	x11,x0,8000a39c <_realloc_r+0x1ec>
8000a1b4:	fe010113          	addi	x2,x2,-32
8000a1b8:	00812c23          	sw	x8,24(x2)
8000a1bc:	00912a23          	sw	x9,20(x2)
8000a1c0:	00058413          	addi	x8,x11,0
8000a1c4:	00112e23          	sw	x1,28(x2)
8000a1c8:	00050493          	addi	x9,x10,0
8000a1cc:	00c12023          	sw	x12,0(x2)
8000a1d0:	fd4f70ef          	jal	x1,800019a4 <__malloc_lock>
8000a1d4:	00012583          	lw	x11,0(x2)
8000a1d8:	01600713          	addi	x14,x0,22
8000a1dc:	00b58793          	addi	x15,x11,11
8000a1e0:	12f77663          	bgeu	x14,x15,8000a30c <_realloc_r+0x15c>
8000a1e4:	ff87f793          	andi	x15,x15,-8
8000a1e8:	00078693          	addi	x13,x15,0
8000a1ec:	01f7d713          	srli	x14,x15,0x1f
8000a1f0:	1eb7e263          	bltu	x15,x11,8000a3d4 <_realloc_r+0x224>
8000a1f4:	1e071063          	bne	x14,x0,8000a3d4 <_realloc_r+0x224>
8000a1f8:	ffc42603          	lw	x12,-4(x8)
8000a1fc:	ff840813          	addi	x16,x8,-8
8000a200:	ffc67713          	andi	x14,x12,-4
8000a204:	12d75663          	bge	x14,x13,8000a330 <_realloc_r+0x180>
8000a208:	00018e13          	addi	x28,x3,0 # 80011cd0 <__malloc_av_>
8000a20c:	008e2883          	lw	x17,8(x28)
8000a210:	00e80333          	add	x6,x16,x14
8000a214:	00432503          	lw	x10,4(x6)
8000a218:	1e688063          	beq	x17,x6,8000a3f8 <_realloc_r+0x248>
8000a21c:	ffe57893          	andi	x17,x10,-2
8000a220:	011308b3          	add	x17,x6,x17
8000a224:	0048a883          	lw	x17,4(x17)
8000a228:	0018f893          	andi	x17,x17,1
8000a22c:	14089a63          	bne	x17,x0,8000a380 <_realloc_r+0x1d0>
8000a230:	ffc57513          	andi	x10,x10,-4
8000a234:	00a708b3          	add	x17,x14,x10
8000a238:	0ed8d263          	bge	x17,x13,8000a31c <_realloc_r+0x16c>
8000a23c:	00167613          	andi	x12,x12,1
8000a240:	02061463          	bne	x12,x0,8000a268 <_realloc_r+0xb8>
8000a244:	ff842e83          	lw	x29,-8(x8)
8000a248:	41d80eb3          	sub	x29,x16,x29
8000a24c:	004ea603          	lw	x12,4(x29)
8000a250:	ffc67613          	andi	x12,x12,-4
8000a254:	00c50533          	add	x10,x10,x12
8000a258:	00e508b3          	add	x17,x10,x14
8000a25c:	32d8d463          	bge	x17,x13,8000a584 <_realloc_r+0x3d4>
8000a260:	00c708b3          	add	x17,x14,x12
8000a264:	28d8dc63          	bge	x17,x13,8000a4fc <_realloc_r+0x34c>
8000a268:	00048513          	addi	x10,x9,0
8000a26c:	00e12423          	sw	x14,8(x2)
8000a270:	01012223          	sw	x16,4(x2)
8000a274:	00f12023          	sw	x15,0(x2)
8000a278:	eb5f60ef          	jal	x1,8000112c <_malloc_r>
8000a27c:	00012783          	lw	x15,0(x2)
8000a280:	00412803          	lw	x16,4(x2)
8000a284:	00812703          	lw	x14,8(x2)
8000a288:	00050693          	addi	x13,x10,0
8000a28c:	44050863          	beq	x10,x0,8000a6dc <_realloc_r+0x52c>
8000a290:	ffc42603          	lw	x12,-4(x8)
8000a294:	ff850593          	addi	x11,x10,-8
8000a298:	ffe67613          	andi	x12,x12,-2
8000a29c:	00c80633          	add	x12,x16,x12
8000a2a0:	22b60463          	beq	x12,x11,8000a4c8 <_realloc_r+0x318>
8000a2a4:	ffc70613          	addi	x12,x14,-4
8000a2a8:	02400793          	addi	x15,x0,36
8000a2ac:	2cc7e263          	bltu	x15,x12,8000a570 <_realloc_r+0x3c0>
8000a2b0:	01300713          	addi	x14,x0,19
8000a2b4:	22c76263          	bltu	x14,x12,8000a4d8 <_realloc_r+0x328>
8000a2b8:	00050793          	addi	x15,x10,0
8000a2bc:	00040713          	addi	x14,x8,0
8000a2c0:	00072603          	lw	x12,0(x14)
8000a2c4:	00c7a023          	sw	x12,0(x15)
8000a2c8:	00472603          	lw	x12,4(x14)
8000a2cc:	00c7a223          	sw	x12,4(x15)
8000a2d0:	00872703          	lw	x14,8(x14)
8000a2d4:	00e7a423          	sw	x14,8(x15)
8000a2d8:	00040593          	addi	x11,x8,0
8000a2dc:	00048513          	addi	x10,x9,0
8000a2e0:	00d12023          	sw	x13,0(x2)
8000a2e4:	ca5f70ef          	jal	x1,80001f88 <_free_r>
8000a2e8:	00048513          	addi	x10,x9,0
8000a2ec:	ebcf70ef          	jal	x1,800019a8 <__malloc_unlock>
8000a2f0:	00012683          	lw	x13,0(x2)
8000a2f4:	01c12083          	lw	x1,28(x2)
8000a2f8:	01812403          	lw	x8,24(x2)
8000a2fc:	01412483          	lw	x9,20(x2)
8000a300:	00068513          	addi	x10,x13,0
8000a304:	02010113          	addi	x2,x2,32
8000a308:	00008067          	jalr	x0,0(x1)
8000a30c:	01000693          	addi	x13,x0,16
8000a310:	00068793          	addi	x15,x13,0
8000a314:	00000713          	addi	x14,x0,0
8000a318:	ed9ff06f          	jal	x0,8000a1f0 <_realloc_r+0x40>
8000a31c:	00c32683          	lw	x13,12(x6)
8000a320:	00832603          	lw	x12,8(x6)
8000a324:	00088713          	addi	x14,x17,0
8000a328:	00d62623          	sw	x13,12(x12)
8000a32c:	00c6a423          	sw	x12,8(x13)
8000a330:	00482683          	lw	x13,4(x16)
8000a334:	40f70533          	sub	x10,x14,x15
8000a338:	00f00593          	addi	x11,x0,15
8000a33c:	0016f693          	andi	x13,x13,1
8000a340:	00e80633          	add	x12,x16,x14
8000a344:	06a5e063          	bltu	x11,x10,8000a3a4 <_realloc_r+0x1f4>
8000a348:	00d766b3          	or	x13,x14,x13
8000a34c:	00d82223          	sw	x13,4(x16)
8000a350:	00462783          	lw	x15,4(x12)
8000a354:	0017e793          	ori	x15,x15,1
8000a358:	00f62223          	sw	x15,4(x12)
8000a35c:	00048513          	addi	x10,x9,0
8000a360:	e48f70ef          	jal	x1,800019a8 <__malloc_unlock>
8000a364:	00040693          	addi	x13,x8,0
8000a368:	01c12083          	lw	x1,28(x2)
8000a36c:	01812403          	lw	x8,24(x2)
8000a370:	01412483          	lw	x9,20(x2)
8000a374:	00068513          	addi	x10,x13,0
8000a378:	02010113          	addi	x2,x2,32
8000a37c:	00008067          	jalr	x0,0(x1)
8000a380:	00167613          	andi	x12,x12,1
8000a384:	ee0612e3          	bne	x12,x0,8000a268 <_realloc_r+0xb8>
8000a388:	ff842e83          	lw	x29,-8(x8)
8000a38c:	41d80eb3          	sub	x29,x16,x29
8000a390:	004ea603          	lw	x12,4(x29)
8000a394:	ffc67613          	andi	x12,x12,-4
8000a398:	ec9ff06f          	jal	x0,8000a260 <_realloc_r+0xb0>
8000a39c:	00060593          	addi	x11,x12,0
8000a3a0:	d8df606f          	jal	x0,8000112c <_malloc_r>
8000a3a4:	00d7e6b3          	or	x13,x15,x13
8000a3a8:	00d82223          	sw	x13,4(x16)
8000a3ac:	00f805b3          	add	x11,x16,x15
8000a3b0:	00156513          	ori	x10,x10,1
8000a3b4:	00a5a223          	sw	x10,4(x11)
8000a3b8:	00462783          	lw	x15,4(x12)
8000a3bc:	00858593          	addi	x11,x11,8
8000a3c0:	00048513          	addi	x10,x9,0
8000a3c4:	0017e793          	ori	x15,x15,1
8000a3c8:	00f62223          	sw	x15,4(x12)
8000a3cc:	bbdf70ef          	jal	x1,80001f88 <_free_r>
8000a3d0:	f8dff06f          	jal	x0,8000a35c <_realloc_r+0x1ac>
8000a3d4:	00c00793          	addi	x15,x0,12
8000a3d8:	00f4a023          	sw	x15,0(x9)
8000a3dc:	00000693          	addi	x13,x0,0
8000a3e0:	01c12083          	lw	x1,28(x2)
8000a3e4:	01812403          	lw	x8,24(x2)
8000a3e8:	01412483          	lw	x9,20(x2)
8000a3ec:	00068513          	addi	x10,x13,0
8000a3f0:	02010113          	addi	x2,x2,32
8000a3f4:	00008067          	jalr	x0,0(x1)
8000a3f8:	ffc57513          	andi	x10,x10,-4
8000a3fc:	00e508b3          	add	x17,x10,x14
8000a400:	01078313          	addi	x6,x15,16
8000a404:	2468da63          	bge	x17,x6,8000a658 <_realloc_r+0x4a8>
8000a408:	00167613          	andi	x12,x12,1
8000a40c:	e4061ee3          	bne	x12,x0,8000a268 <_realloc_r+0xb8>
8000a410:	ff842e83          	lw	x29,-8(x8)
8000a414:	41d80eb3          	sub	x29,x16,x29
8000a418:	004ea603          	lw	x12,4(x29)
8000a41c:	ffc67613          	andi	x12,x12,-4
8000a420:	00c50533          	add	x10,x10,x12
8000a424:	00e508b3          	add	x17,x10,x14
8000a428:	e268cce3          	blt	x17,x6,8000a260 <_realloc_r+0xb0>
8000a42c:	00cea683          	lw	x13,12(x29)
8000a430:	008ea583          	lw	x11,8(x29)
8000a434:	ffc70613          	addi	x12,x14,-4
8000a438:	02400713          	addi	x14,x0,36
8000a43c:	00d5a623          	sw	x13,12(x11)
8000a440:	00b6a423          	sw	x11,8(x13)
8000a444:	008e8693          	addi	x13,x29,8
8000a448:	2ec76263          	bltu	x14,x12,8000a72c <_realloc_r+0x57c>
8000a44c:	01300593          	addi	x11,x0,19
8000a450:	00068713          	addi	x14,x13,0
8000a454:	02c5f263          	bgeu	x11,x12,8000a478 <_realloc_r+0x2c8>
8000a458:	00042583          	lw	x11,0(x8)
8000a45c:	01b00713          	addi	x14,x0,27
8000a460:	00bea423          	sw	x11,8(x29)
8000a464:	00442583          	lw	x11,4(x8)
8000a468:	00bea623          	sw	x11,12(x29)
8000a46c:	30c76863          	bltu	x14,x12,8000a77c <_realloc_r+0x5cc>
8000a470:	00840413          	addi	x8,x8,8
8000a474:	010e8713          	addi	x14,x29,16
8000a478:	00042603          	lw	x12,0(x8)
8000a47c:	00c72023          	sw	x12,0(x14)
8000a480:	00442603          	lw	x12,4(x8)
8000a484:	00c72223          	sw	x12,4(x14)
8000a488:	00842603          	lw	x12,8(x8)
8000a48c:	00c72423          	sw	x12,8(x14)
8000a490:	00fe8633          	add	x12,x29,x15
8000a494:	40f88733          	sub	x14,x17,x15
8000a498:	00ce2423          	sw	x12,8(x28)
8000a49c:	00176713          	ori	x14,x14,1
8000a4a0:	00e62223          	sw	x14,4(x12)
8000a4a4:	004ea703          	lw	x14,4(x29)
8000a4a8:	00048513          	addi	x10,x9,0
8000a4ac:	00d12023          	sw	x13,0(x2)
8000a4b0:	00177713          	andi	x14,x14,1
8000a4b4:	00f767b3          	or	x15,x14,x15
8000a4b8:	00fea223          	sw	x15,4(x29)
8000a4bc:	cecf70ef          	jal	x1,800019a8 <__malloc_unlock>
8000a4c0:	00012683          	lw	x13,0(x2)
8000a4c4:	ea5ff06f          	jal	x0,8000a368 <_realloc_r+0x1b8>
8000a4c8:	ffc52683          	lw	x13,-4(x10)
8000a4cc:	ffc6f693          	andi	x13,x13,-4
8000a4d0:	00d70733          	add	x14,x14,x13
8000a4d4:	e5dff06f          	jal	x0,8000a330 <_realloc_r+0x180>
8000a4d8:	00042583          	lw	x11,0(x8)
8000a4dc:	01b00713          	addi	x14,x0,27
8000a4e0:	00b52023          	sw	x11,0(x10)
8000a4e4:	00442583          	lw	x11,4(x8)
8000a4e8:	00b52223          	sw	x11,4(x10)
8000a4ec:	10c76e63          	bltu	x14,x12,8000a608 <_realloc_r+0x458>
8000a4f0:	00840713          	addi	x14,x8,8
8000a4f4:	00850793          	addi	x15,x10,8
8000a4f8:	dc9ff06f          	jal	x0,8000a2c0 <_realloc_r+0x110>
8000a4fc:	00cea683          	lw	x13,12(x29)
8000a500:	008ea583          	lw	x11,8(x29)
8000a504:	ffc70613          	addi	x12,x14,-4
8000a508:	02400513          	addi	x10,x0,36
8000a50c:	00d5a623          	sw	x13,12(x11)
8000a510:	00b6a423          	sw	x11,8(x13)
8000a514:	008e8693          	addi	x13,x29,8
8000a518:	10c56863          	bltu	x10,x12,8000a628 <_realloc_r+0x478>
8000a51c:	01300593          	addi	x11,x0,19
8000a520:	00068713          	addi	x14,x13,0
8000a524:	02c5f263          	bgeu	x11,x12,8000a548 <_realloc_r+0x398>
8000a528:	00042583          	lw	x11,0(x8)
8000a52c:	01b00713          	addi	x14,x0,27
8000a530:	00bea423          	sw	x11,8(x29)
8000a534:	00442583          	lw	x11,4(x8)
8000a538:	00bea623          	sw	x11,12(x29)
8000a53c:	18c76063          	bltu	x14,x12,8000a6bc <_realloc_r+0x50c>
8000a540:	00840413          	addi	x8,x8,8
8000a544:	010e8713          	addi	x14,x29,16
8000a548:	00042603          	lw	x12,0(x8)
8000a54c:	00c72023          	sw	x12,0(x14)
8000a550:	00442603          	lw	x12,4(x8)
8000a554:	00c72223          	sw	x12,4(x14)
8000a558:	00842603          	lw	x12,8(x8)
8000a55c:	00c72423          	sw	x12,8(x14)
8000a560:	00068413          	addi	x8,x13,0
8000a564:	00088713          	addi	x14,x17,0
8000a568:	000e8813          	addi	x16,x29,0
8000a56c:	dc5ff06f          	jal	x0,8000a330 <_realloc_r+0x180>
8000a570:	00040593          	addi	x11,x8,0
8000a574:	00a12023          	sw	x10,0(x2)
8000a578:	8ecfc0ef          	jal	x1,80006664 <memmove>
8000a57c:	00012683          	lw	x13,0(x2)
8000a580:	d59ff06f          	jal	x0,8000a2d8 <_realloc_r+0x128>
8000a584:	00c32683          	lw	x13,12(x6)
8000a588:	00832583          	lw	x11,8(x6)
8000a58c:	ffc70613          	addi	x12,x14,-4
8000a590:	02400513          	addi	x10,x0,36
8000a594:	00d5a623          	sw	x13,12(x11)
8000a598:	00b6a423          	sw	x11,8(x13)
8000a59c:	00cea703          	lw	x14,12(x29)
8000a5a0:	008ea683          	lw	x13,8(x29)
8000a5a4:	008e8813          	addi	x16,x29,8
8000a5a8:	00e6a623          	sw	x14,12(x13)
8000a5ac:	00d72423          	sw	x13,8(x14)
8000a5b0:	0cc56e63          	bltu	x10,x12,8000a68c <_realloc_r+0x4dc>
8000a5b4:	01300693          	addi	x13,x0,19
8000a5b8:	00080713          	addi	x14,x16,0
8000a5bc:	02c6f263          	bgeu	x13,x12,8000a5e0 <_realloc_r+0x430>
8000a5c0:	00042683          	lw	x13,0(x8)
8000a5c4:	01b00713          	addi	x14,x0,27
8000a5c8:	00dea423          	sw	x13,8(x29)
8000a5cc:	00442683          	lw	x13,4(x8)
8000a5d0:	00dea623          	sw	x13,12(x29)
8000a5d4:	12c76a63          	bltu	x14,x12,8000a708 <_realloc_r+0x558>
8000a5d8:	00840413          	addi	x8,x8,8
8000a5dc:	010e8713          	addi	x14,x29,16
8000a5e0:	00042683          	lw	x13,0(x8)
8000a5e4:	00d72023          	sw	x13,0(x14)
8000a5e8:	00442683          	lw	x13,4(x8)
8000a5ec:	00d72223          	sw	x13,4(x14)
8000a5f0:	00842683          	lw	x13,8(x8)
8000a5f4:	00d72423          	sw	x13,8(x14)
8000a5f8:	00080413          	addi	x8,x16,0
8000a5fc:	00088713          	addi	x14,x17,0
8000a600:	000e8813          	addi	x16,x29,0
8000a604:	d2dff06f          	jal	x0,8000a330 <_realloc_r+0x180>
8000a608:	00842703          	lw	x14,8(x8)
8000a60c:	00e52423          	sw	x14,8(x10)
8000a610:	00c42703          	lw	x14,12(x8)
8000a614:	00e52623          	sw	x14,12(x10)
8000a618:	0cf60a63          	beq	x12,x15,8000a6ec <_realloc_r+0x53c>
8000a61c:	01040713          	addi	x14,x8,16
8000a620:	01050793          	addi	x15,x10,16
8000a624:	c9dff06f          	jal	x0,8000a2c0 <_realloc_r+0x110>
8000a628:	00068513          	addi	x10,x13,0
8000a62c:	00040593          	addi	x11,x8,0
8000a630:	01d12623          	sw	x29,12(x2)
8000a634:	00f12423          	sw	x15,8(x2)
8000a638:	01112223          	sw	x17,4(x2)
8000a63c:	00d12023          	sw	x13,0(x2)
8000a640:	824fc0ef          	jal	x1,80006664 <memmove>
8000a644:	00c12e83          	lw	x29,12(x2)
8000a648:	00812783          	lw	x15,8(x2)
8000a64c:	00412883          	lw	x17,4(x2)
8000a650:	00012683          	lw	x13,0(x2)
8000a654:	f0dff06f          	jal	x0,8000a560 <_realloc_r+0x3b0>
8000a658:	00f80833          	add	x16,x16,x15
8000a65c:	40f88733          	sub	x14,x17,x15
8000a660:	010e2423          	sw	x16,8(x28)
8000a664:	00176713          	ori	x14,x14,1
8000a668:	00e82223          	sw	x14,4(x16)
8000a66c:	ffc42703          	lw	x14,-4(x8)
8000a670:	00048513          	addi	x10,x9,0
8000a674:	00177713          	andi	x14,x14,1
8000a678:	00f767b3          	or	x15,x14,x15
8000a67c:	fef42e23          	sw	x15,-4(x8)
8000a680:	b28f70ef          	jal	x1,800019a8 <__malloc_unlock>
8000a684:	00040693          	addi	x13,x8,0
8000a688:	ce1ff06f          	jal	x0,8000a368 <_realloc_r+0x1b8>
8000a68c:	00080513          	addi	x10,x16,0
8000a690:	00040593          	addi	x11,x8,0
8000a694:	01d12623          	sw	x29,12(x2)
8000a698:	00f12423          	sw	x15,8(x2)
8000a69c:	01112223          	sw	x17,4(x2)
8000a6a0:	01012023          	sw	x16,0(x2)
8000a6a4:	fc1fb0ef          	jal	x1,80006664 <memmove>
8000a6a8:	00012803          	lw	x16,0(x2)
8000a6ac:	00412883          	lw	x17,4(x2)
8000a6b0:	00812783          	lw	x15,8(x2)
8000a6b4:	00c12e83          	lw	x29,12(x2)
8000a6b8:	f41ff06f          	jal	x0,8000a5f8 <_realloc_r+0x448>
8000a6bc:	00842703          	lw	x14,8(x8)
8000a6c0:	00eea823          	sw	x14,16(x29)
8000a6c4:	00c42703          	lw	x14,12(x8)
8000a6c8:	00eeaa23          	sw	x14,20(x29)
8000a6cc:	08a60a63          	beq	x12,x10,8000a760 <_realloc_r+0x5b0>
8000a6d0:	01040413          	addi	x8,x8,16
8000a6d4:	018e8713          	addi	x14,x29,24
8000a6d8:	e71ff06f          	jal	x0,8000a548 <_realloc_r+0x398>
8000a6dc:	00048513          	addi	x10,x9,0
8000a6e0:	ac8f70ef          	jal	x1,800019a8 <__malloc_unlock>
8000a6e4:	00000693          	addi	x13,x0,0
8000a6e8:	cf9ff06f          	jal	x0,8000a3e0 <_realloc_r+0x230>
8000a6ec:	01042603          	lw	x12,16(x8)
8000a6f0:	01840713          	addi	x14,x8,24
8000a6f4:	01850793          	addi	x15,x10,24
8000a6f8:	00c52823          	sw	x12,16(x10)
8000a6fc:	01442603          	lw	x12,20(x8)
8000a700:	00c52a23          	sw	x12,20(x10)
8000a704:	bbdff06f          	jal	x0,8000a2c0 <_realloc_r+0x110>
8000a708:	00842683          	lw	x13,8(x8)
8000a70c:	02400713          	addi	x14,x0,36
8000a710:	00dea823          	sw	x13,16(x29)
8000a714:	00c42683          	lw	x13,12(x8)
8000a718:	00deaa23          	sw	x13,20(x29)
8000a71c:	08e60263          	beq	x12,x14,8000a7a0 <_realloc_r+0x5f0>
8000a720:	01040413          	addi	x8,x8,16
8000a724:	018e8713          	addi	x14,x29,24
8000a728:	eb9ff06f          	jal	x0,8000a5e0 <_realloc_r+0x430>
8000a72c:	00068513          	addi	x10,x13,0
8000a730:	00040593          	addi	x11,x8,0
8000a734:	01d12623          	sw	x29,12(x2)
8000a738:	00f12423          	sw	x15,8(x2)
8000a73c:	01112223          	sw	x17,4(x2)
8000a740:	00d12023          	sw	x13,0(x2)
8000a744:	f21fb0ef          	jal	x1,80006664 <memmove>
8000a748:	00018e13          	addi	x28,x3,0 # 80011cd0 <__malloc_av_>
8000a74c:	00c12e83          	lw	x29,12(x2)
8000a750:	00812783          	lw	x15,8(x2)
8000a754:	00412883          	lw	x17,4(x2)
8000a758:	00012683          	lw	x13,0(x2)
8000a75c:	d35ff06f          	jal	x0,8000a490 <_realloc_r+0x2e0>
8000a760:	01042603          	lw	x12,16(x8)
8000a764:	020e8713          	addi	x14,x29,32
8000a768:	01840413          	addi	x8,x8,24
8000a76c:	00ceac23          	sw	x12,24(x29)
8000a770:	ffc42603          	lw	x12,-4(x8)
8000a774:	00ceae23          	sw	x12,28(x29)
8000a778:	dd1ff06f          	jal	x0,8000a548 <_realloc_r+0x398>
8000a77c:	00842583          	lw	x11,8(x8)
8000a780:	02400713          	addi	x14,x0,36
8000a784:	00bea823          	sw	x11,16(x29)
8000a788:	00c42583          	lw	x11,12(x8)
8000a78c:	00beaa23          	sw	x11,20(x29)
8000a790:	02e60663          	beq	x12,x14,8000a7bc <_realloc_r+0x60c>
8000a794:	01040413          	addi	x8,x8,16
8000a798:	018e8713          	addi	x14,x29,24
8000a79c:	cddff06f          	jal	x0,8000a478 <_realloc_r+0x2c8>
8000a7a0:	01042683          	lw	x13,16(x8)
8000a7a4:	020e8713          	addi	x14,x29,32
8000a7a8:	01840413          	addi	x8,x8,24
8000a7ac:	00deac23          	sw	x13,24(x29)
8000a7b0:	ffc42683          	lw	x13,-4(x8)
8000a7b4:	00deae23          	sw	x13,28(x29)
8000a7b8:	e29ff06f          	jal	x0,8000a5e0 <_realloc_r+0x430>
8000a7bc:	01042603          	lw	x12,16(x8)
8000a7c0:	020e8713          	addi	x14,x29,32
8000a7c4:	01840413          	addi	x8,x8,24
8000a7c8:	00ceac23          	sw	x12,24(x29)
8000a7cc:	ffc42603          	lw	x12,-4(x8)
8000a7d0:	00ceae23          	sw	x12,28(x29)
8000a7d4:	ca5ff06f          	jal	x0,8000a478 <_realloc_r+0x2c8>

8000a7d8 <_fclose_r>:
8000a7d8:	ff010113          	addi	x2,x2,-16
8000a7dc:	00112623          	sw	x1,12(x2)
8000a7e0:	01212023          	sw	x18,0(x2)
8000a7e4:	02058863          	beq	x11,x0,8000a814 <_fclose_r+0x3c>
8000a7e8:	00812423          	sw	x8,8(x2)
8000a7ec:	00912223          	sw	x9,4(x2)
8000a7f0:	00058413          	addi	x8,x11,0
8000a7f4:	00050493          	addi	x9,x10,0
8000a7f8:	00050663          	beq	x10,x0,8000a804 <_fclose_r+0x2c>
8000a7fc:	03452783          	lw	x15,52(x10)
8000a800:	0c078c63          	beq	x15,x0,8000a8d8 <_fclose_r+0x100>
8000a804:	00c41783          	lh	x15,12(x8)
8000a808:	02079263          	bne	x15,x0,8000a82c <_fclose_r+0x54>
8000a80c:	00812403          	lw	x8,8(x2)
8000a810:	00412483          	lw	x9,4(x2)
8000a814:	00c12083          	lw	x1,12(x2)
8000a818:	00000913          	addi	x18,x0,0
8000a81c:	00090513          	addi	x10,x18,0
8000a820:	00012903          	lw	x18,0(x2)
8000a824:	01010113          	addi	x2,x2,16
8000a828:	00008067          	jalr	x0,0(x1)
8000a82c:	00040593          	addi	x11,x8,0
8000a830:	00048513          	addi	x10,x9,0
8000a834:	b45fa0ef          	jal	x1,80005378 <__sflush_r>
8000a838:	02c42783          	lw	x15,44(x8)
8000a83c:	00050913          	addi	x18,x10,0
8000a840:	00078a63          	beq	x15,x0,8000a854 <_fclose_r+0x7c>
8000a844:	01c42583          	lw	x11,28(x8)
8000a848:	00048513          	addi	x10,x9,0
8000a84c:	000780e7          	jalr	x1,0(x15)
8000a850:	06054463          	blt	x10,x0,8000a8b8 <_fclose_r+0xe0>
8000a854:	00c45783          	lhu	x15,12(x8)
8000a858:	0807f793          	andi	x15,x15,128
8000a85c:	06079663          	bne	x15,x0,8000a8c8 <_fclose_r+0xf0>
8000a860:	03042583          	lw	x11,48(x8)
8000a864:	00058c63          	beq	x11,x0,8000a87c <_fclose_r+0xa4>
8000a868:	04040793          	addi	x15,x8,64
8000a86c:	00f58663          	beq	x11,x15,8000a878 <_fclose_r+0xa0>
8000a870:	00048513          	addi	x10,x9,0
8000a874:	f14f70ef          	jal	x1,80001f88 <_free_r>
8000a878:	02042823          	sw	x0,48(x8)
8000a87c:	04442583          	lw	x11,68(x8)
8000a880:	00058863          	beq	x11,x0,8000a890 <_fclose_r+0xb8>
8000a884:	00048513          	addi	x10,x9,0
8000a888:	f00f70ef          	jal	x1,80001f88 <_free_r>
8000a88c:	04042223          	sw	x0,68(x8)
8000a890:	988fb0ef          	jal	x1,80005a18 <__sfp_lock_acquire>
8000a894:	00041623          	sh	x0,12(x8)
8000a898:	984fb0ef          	jal	x1,80005a1c <__sfp_lock_release>
8000a89c:	00c12083          	lw	x1,12(x2)
8000a8a0:	00812403          	lw	x8,8(x2)
8000a8a4:	00412483          	lw	x9,4(x2)
8000a8a8:	00090513          	addi	x10,x18,0
8000a8ac:	00012903          	lw	x18,0(x2)
8000a8b0:	01010113          	addi	x2,x2,16
8000a8b4:	00008067          	jalr	x0,0(x1)
8000a8b8:	00c45783          	lhu	x15,12(x8)
8000a8bc:	fff00913          	addi	x18,x0,-1
8000a8c0:	0807f793          	andi	x15,x15,128
8000a8c4:	f8078ee3          	beq	x15,x0,8000a860 <_fclose_r+0x88>
8000a8c8:	01042583          	lw	x11,16(x8)
8000a8cc:	00048513          	addi	x10,x9,0
8000a8d0:	eb8f70ef          	jal	x1,80001f88 <_free_r>
8000a8d4:	f8dff06f          	jal	x0,8000a860 <_fclose_r+0x88>
8000a8d8:	918fb0ef          	jal	x1,800059f0 <__sinit>
8000a8dc:	f29ff06f          	jal	x0,8000a804 <_fclose_r+0x2c>

8000a8e0 <fclose>:
8000a8e0:	00050593          	addi	x11,x10,0
8000a8e4:	6ac1a503          	lw	x10,1708(x3) # 8001237c <_impure_ptr>
8000a8e8:	ef1ff06f          	jal	x0,8000a7d8 <_fclose_r>

8000a8ec <__smakebuf_r>:
8000a8ec:	00c59783          	lh	x15,12(x11)
8000a8f0:	0027f713          	andi	x14,x15,2
8000a8f4:	00070e63          	beq	x14,x0,8000a910 <__smakebuf_r+0x24>
8000a8f8:	04358793          	addi	x15,x11,67
8000a8fc:	00100713          	addi	x14,x0,1
8000a900:	00f5a023          	sw	x15,0(x11)
8000a904:	00f5a823          	sw	x15,16(x11)
8000a908:	00e5aa23          	sw	x14,20(x11)
8000a90c:	00008067          	jalr	x0,0(x1)
8000a910:	00058713          	addi	x14,x11,0
8000a914:	00e59583          	lh	x11,14(x11)
8000a918:	f8010113          	addi	x2,x2,-128
8000a91c:	06812c23          	sw	x8,120(x2)
8000a920:	06112e23          	sw	x1,124(x2)
8000a924:	00050413          	addi	x8,x10,0
8000a928:	0805ce63          	blt	x11,x0,8000a9c4 <__smakebuf_r+0xd8>
8000a92c:	01810613          	addi	x12,x2,24
8000a930:	00e12423          	sw	x14,8(x2)
8000a934:	314000ef          	jal	x1,8000ac48 <_fstat_r>
8000a938:	00812703          	lw	x14,8(x2)
8000a93c:	08054263          	blt	x10,x0,8000a9c0 <__smakebuf_r+0xd4>
8000a940:	40000593          	addi	x11,x0,1024
8000a944:	00040513          	addi	x10,x8,0
8000a948:	06912a23          	sw	x9,116(x2)
8000a94c:	00e12423          	sw	x14,8(x2)
8000a950:	01c12483          	lw	x9,28(x2)
8000a954:	fd8f60ef          	jal	x1,8000112c <_malloc_r>
8000a958:	00812703          	lw	x14,8(x2)
8000a95c:	00c71783          	lh	x15,12(x14)
8000a960:	0c050263          	beq	x10,x0,8000aa24 <__smakebuf_r+0x138>
8000a964:	40000693          	addi	x13,x0,1024
8000a968:	0807e793          	ori	x15,x15,128
8000a96c:	00d72a23          	sw	x13,20(x14)
8000a970:	40c4d693          	srai	x13,x9,0xc
8000a974:	00f71623          	sh	x15,12(x14)
8000a978:	00a72023          	sw	x10,0(x14)
8000a97c:	00a72823          	sw	x10,16(x14)
8000a980:	00f6f693          	andi	x13,x13,15
8000a984:	00200613          	addi	x12,x0,2
8000a988:	0cc69663          	bne	x13,x12,8000aa54 <__smakebuf_r+0x168>
8000a98c:	00e71583          	lh	x11,14(x14)
8000a990:	00040513          	addi	x10,x8,0
8000a994:	00e12423          	sw	x14,8(x2)
8000a998:	318000ef          	jal	x1,8000acb0 <_isatty_r>
8000a99c:	00812703          	lw	x14,8(x2)
8000a9a0:	00c71783          	lh	x15,12(x14)
8000a9a4:	0a050863          	beq	x10,x0,8000aa54 <__smakebuf_r+0x168>
8000a9a8:	ffc7f793          	andi	x15,x15,-4
8000a9ac:	000016b7          	lui	x13,0x1
8000a9b0:	07412483          	lw	x9,116(x2)
8000a9b4:	0017e793          	ori	x15,x15,1
8000a9b8:	80068693          	addi	x13,x13,-2048 # 800 <_start-0x7ffff800>
8000a9bc:	0500006f          	jal	x0,8000aa0c <__smakebuf_r+0x120>
8000a9c0:	00c71783          	lh	x15,12(x14)
8000a9c4:	0807f793          	andi	x15,x15,128
8000a9c8:	0017b793          	sltiu	x15,x15,1
8000a9cc:	40f007b3          	sub	x15,x0,x15
8000a9d0:	3c07f593          	andi	x11,x15,960
8000a9d4:	04058593          	addi	x11,x11,64
8000a9d8:	00040513          	addi	x10,x8,0
8000a9dc:	00e12623          	sw	x14,12(x2)
8000a9e0:	00b12423          	sw	x11,8(x2)
8000a9e4:	f48f60ef          	jal	x1,8000112c <_malloc_r>
8000a9e8:	00c12703          	lw	x14,12(x2)
8000a9ec:	00812583          	lw	x11,8(x2)
8000a9f0:	00c71783          	lh	x15,12(x14)
8000a9f4:	02050a63          	beq	x10,x0,8000aa28 <__smakebuf_r+0x13c>
8000a9f8:	0807e793          	ori	x15,x15,128
8000a9fc:	00a72023          	sw	x10,0(x14)
8000aa00:	00a72823          	sw	x10,16(x14)
8000aa04:	00b72a23          	sw	x11,20(x14)
8000aa08:	00000693          	addi	x13,x0,0
8000aa0c:	00d7e7b3          	or	x15,x15,x13
8000aa10:	00f71623          	sh	x15,12(x14)
8000aa14:	07c12083          	lw	x1,124(x2)
8000aa18:	07812403          	lw	x8,120(x2)
8000aa1c:	08010113          	addi	x2,x2,128
8000aa20:	00008067          	jalr	x0,0(x1)
8000aa24:	07412483          	lw	x9,116(x2)
8000aa28:	2007f693          	andi	x13,x15,512
8000aa2c:	fe0694e3          	bne	x13,x0,8000aa14 <__smakebuf_r+0x128>
8000aa30:	ffc7f793          	andi	x15,x15,-4
8000aa34:	04370693          	addi	x13,x14,67
8000aa38:	0027e793          	ori	x15,x15,2
8000aa3c:	00100613          	addi	x12,x0,1
8000aa40:	00f71623          	sh	x15,12(x14)
8000aa44:	00d72023          	sw	x13,0(x14)
8000aa48:	00d72823          	sw	x13,16(x14)
8000aa4c:	00c72a23          	sw	x12,20(x14)
8000aa50:	fc5ff06f          	jal	x0,8000aa14 <__smakebuf_r+0x128>
8000aa54:	000016b7          	lui	x13,0x1
8000aa58:	07412483          	lw	x9,116(x2)
8000aa5c:	80068693          	addi	x13,x13,-2048 # 800 <_start-0x7ffff800>
8000aa60:	fadff06f          	jal	x0,8000aa0c <__smakebuf_r+0x120>

8000aa64 <__swhatbuf_r>:
8000aa64:	00058793          	addi	x15,x11,0
8000aa68:	00e59583          	lh	x11,14(x11)
8000aa6c:	00060713          	addi	x14,x12,0
8000aa70:	0805ca63          	blt	x11,x0,8000ab04 <__swhatbuf_r+0xa0>
8000aa74:	f8010113          	addi	x2,x2,-128
8000aa78:	00c12423          	sw	x12,8(x2)
8000aa7c:	01810613          	addi	x12,x2,24
8000aa80:	00d12623          	sw	x13,12(x2)
8000aa84:	00f12223          	sw	x15,4(x2)
8000aa88:	06112e23          	sw	x1,124(x2)
8000aa8c:	1bc000ef          	jal	x1,8000ac48 <_fstat_r>
8000aa90:	00412783          	lw	x15,4(x2)
8000aa94:	00812703          	lw	x14,8(x2)
8000aa98:	00c12683          	lw	x13,12(x2)
8000aa9c:	02054e63          	blt	x10,x0,8000aad8 <__swhatbuf_r+0x74>
8000aaa0:	01c12783          	lw	x15,28(x2)
8000aaa4:	0000f5b7          	lui	x11,0xf
8000aaa8:	ffffe637          	lui	x12,0xffffe
8000aaac:	00b7f7b3          	and	x15,x15,x11
8000aab0:	00c787b3          	add	x15,x15,x12
8000aab4:	07c12083          	lw	x1,124(x2)
8000aab8:	0017b793          	sltiu	x15,x15,1
8000aabc:	00f6a023          	sw	x15,0(x13)
8000aac0:	40000613          	addi	x12,x0,1024
8000aac4:	00001537          	lui	x10,0x1
8000aac8:	00c72023          	sw	x12,0(x14)
8000aacc:	80050513          	addi	x10,x10,-2048 # 800 <_start-0x7ffff800>
8000aad0:	08010113          	addi	x2,x2,128
8000aad4:	00008067          	jalr	x0,0(x1)
8000aad8:	00c7d783          	lhu	x15,12(x15)
8000aadc:	0807f793          	andi	x15,x15,128
8000aae0:	04078263          	beq	x15,x0,8000ab24 <__swhatbuf_r+0xc0>
8000aae4:	07c12083          	lw	x1,124(x2)
8000aae8:	00000793          	addi	x15,x0,0
8000aaec:	00f6a023          	sw	x15,0(x13)
8000aaf0:	04000613          	addi	x12,x0,64
8000aaf4:	00c72023          	sw	x12,0(x14)
8000aaf8:	00000513          	addi	x10,x0,0
8000aafc:	08010113          	addi	x2,x2,128
8000ab00:	00008067          	jalr	x0,0(x1)
8000ab04:	00c7d783          	lhu	x15,12(x15)
8000ab08:	0807f793          	andi	x15,x15,128
8000ab0c:	02079a63          	bne	x15,x0,8000ab40 <__swhatbuf_r+0xdc>
8000ab10:	40000613          	addi	x12,x0,1024
8000ab14:	00f6a023          	sw	x15,0(x13)
8000ab18:	00000513          	addi	x10,x0,0
8000ab1c:	00c72023          	sw	x12,0(x14)
8000ab20:	00008067          	jalr	x0,0(x1)
8000ab24:	07c12083          	lw	x1,124(x2)
8000ab28:	00f6a023          	sw	x15,0(x13)
8000ab2c:	40000613          	addi	x12,x0,1024
8000ab30:	00c72023          	sw	x12,0(x14)
8000ab34:	00000513          	addi	x10,x0,0
8000ab38:	08010113          	addi	x2,x2,128
8000ab3c:	00008067          	jalr	x0,0(x1)
8000ab40:	00000793          	addi	x15,x0,0
8000ab44:	04000613          	addi	x12,x0,64
8000ab48:	00f6a023          	sw	x15,0(x13)
8000ab4c:	00000513          	addi	x10,x0,0
8000ab50:	00c72023          	sw	x12,0(x14)
8000ab54:	00008067          	jalr	x0,0(x1)

8000ab58 <_setlocale_r>:
8000ab58:	02060c63          	beq	x12,x0,8000ab90 <_setlocale_r+0x38>
8000ab5c:	fe010113          	addi	x2,x2,-32
8000ab60:	9bc18593          	addi	x11,x3,-1604 # 8001168c <__clz_tab+0x260>
8000ab64:	00060513          	addi	x10,x12,0 # ffffe000 <_stack_top+0x77ffe000>
8000ab68:	00812c23          	sw	x8,24(x2)
8000ab6c:	00112e23          	sw	x1,28(x2)
8000ab70:	00060413          	addi	x8,x12,0
8000ab74:	19c000ef          	jal	x1,8000ad10 <strcmp>
8000ab78:	02051063          	bne	x10,x0,8000ab98 <_setlocale_r+0x40>
8000ab7c:	9b818513          	addi	x10,x3,-1608 # 80011688 <__clz_tab+0x25c>
8000ab80:	01c12083          	lw	x1,28(x2)
8000ab84:	01812403          	lw	x8,24(x2)
8000ab88:	02010113          	addi	x2,x2,32
8000ab8c:	00008067          	jalr	x0,0(x1)
8000ab90:	9b818513          	addi	x10,x3,-1608 # 80011688 <__clz_tab+0x25c>
8000ab94:	00008067          	jalr	x0,0(x1)
8000ab98:	9b818593          	addi	x11,x3,-1608 # 80011688 <__clz_tab+0x25c>
8000ab9c:	00040513          	addi	x10,x8,0
8000aba0:	00f12623          	sw	x15,12(x2)
8000aba4:	16c000ef          	jal	x1,8000ad10 <strcmp>
8000aba8:	00c12783          	lw	x15,12(x2)
8000abac:	fc0508e3          	beq	x10,x0,8000ab7c <_setlocale_r+0x24>
8000abb0:	00040513          	addi	x10,x8,0
8000abb4:	9d418593          	addi	x11,x3,-1580 # 800116a4 <__clz_tab+0x278>
8000abb8:	158000ef          	jal	x1,8000ad10 <strcmp>
8000abbc:	00c12783          	lw	x15,12(x2)
8000abc0:	fa050ee3          	beq	x10,x0,8000ab7c <_setlocale_r+0x24>
8000abc4:	00000513          	addi	x10,x0,0
8000abc8:	fb9ff06f          	jal	x0,8000ab80 <_setlocale_r+0x28>

8000abcc <__locale_mb_cur_max>:
8000abcc:	65c1c503          	lbu	x10,1628(x3) # 8001232c <__global_locale+0x128>
8000abd0:	00008067          	jalr	x0,0(x1)

8000abd4 <setlocale>:
8000abd4:	02058c63          	beq	x11,x0,8000ac0c <setlocale+0x38>
8000abd8:	fe010113          	addi	x2,x2,-32
8000abdc:	00812c23          	sw	x8,24(x2)
8000abe0:	00058513          	addi	x10,x11,0 # f000 <_start-0x7fff1000>
8000abe4:	00058413          	addi	x8,x11,0
8000abe8:	9bc18593          	addi	x11,x3,-1604 # 8001168c <__clz_tab+0x260>
8000abec:	00112e23          	sw	x1,28(x2)
8000abf0:	120000ef          	jal	x1,8000ad10 <strcmp>
8000abf4:	02051063          	bne	x10,x0,8000ac14 <setlocale+0x40>
8000abf8:	9b818513          	addi	x10,x3,-1608 # 80011688 <__clz_tab+0x25c>
8000abfc:	01c12083          	lw	x1,28(x2)
8000ac00:	01812403          	lw	x8,24(x2)
8000ac04:	02010113          	addi	x2,x2,32
8000ac08:	00008067          	jalr	x0,0(x1)
8000ac0c:	9b818513          	addi	x10,x3,-1608 # 80011688 <__clz_tab+0x25c>
8000ac10:	00008067          	jalr	x0,0(x1)
8000ac14:	9b818593          	addi	x11,x3,-1608 # 80011688 <__clz_tab+0x25c>
8000ac18:	00040513          	addi	x10,x8,0
8000ac1c:	00f12623          	sw	x15,12(x2)
8000ac20:	0f0000ef          	jal	x1,8000ad10 <strcmp>
8000ac24:	00c12783          	lw	x15,12(x2)
8000ac28:	fc0508e3          	beq	x10,x0,8000abf8 <setlocale+0x24>
8000ac2c:	00040513          	addi	x10,x8,0
8000ac30:	9d418593          	addi	x11,x3,-1580 # 800116a4 <__clz_tab+0x278>
8000ac34:	0dc000ef          	jal	x1,8000ad10 <strcmp>
8000ac38:	00c12783          	lw	x15,12(x2)
8000ac3c:	fa050ee3          	beq	x10,x0,8000abf8 <setlocale+0x24>
8000ac40:	00000513          	addi	x10,x0,0
8000ac44:	fb9ff06f          	jal	x0,8000abfc <setlocale+0x28>

8000ac48 <_fstat_r>:
8000ac48:	ff010113          	addi	x2,x2,-16
8000ac4c:	00058793          	addi	x15,x11,0
8000ac50:	00812423          	sw	x8,8(x2)
8000ac54:	00912223          	sw	x9,4(x2)
8000ac58:	00060593          	addi	x11,x12,0
8000ac5c:	00050493          	addi	x9,x10,0
8000ac60:	80012437          	lui	x8,0x80012
8000ac64:	00078513          	addi	x10,x15,0
8000ac68:	00112623          	sw	x1,12(x2)
8000ac6c:	4e042823          	sw	x0,1264(x8) # 800124f0 <errno>
8000ac70:	8d5f50ef          	jal	x1,80000544 <_fstat>
8000ac74:	fff00793          	addi	x15,x0,-1
8000ac78:	00f50c63          	beq	x10,x15,8000ac90 <_fstat_r+0x48>
8000ac7c:	00c12083          	lw	x1,12(x2)
8000ac80:	00812403          	lw	x8,8(x2)
8000ac84:	00412483          	lw	x9,4(x2)
8000ac88:	01010113          	addi	x2,x2,16
8000ac8c:	00008067          	jalr	x0,0(x1)
8000ac90:	4f042783          	lw	x15,1264(x8)
8000ac94:	fe0784e3          	beq	x15,x0,8000ac7c <_fstat_r+0x34>
8000ac98:	00c12083          	lw	x1,12(x2)
8000ac9c:	00812403          	lw	x8,8(x2)
8000aca0:	00f4a023          	sw	x15,0(x9)
8000aca4:	00412483          	lw	x9,4(x2)
8000aca8:	01010113          	addi	x2,x2,16
8000acac:	00008067          	jalr	x0,0(x1)

8000acb0 <_isatty_r>:
8000acb0:	ff010113          	addi	x2,x2,-16
8000acb4:	00812423          	sw	x8,8(x2)
8000acb8:	00912223          	sw	x9,4(x2)
8000acbc:	80012437          	lui	x8,0x80012
8000acc0:	00050493          	addi	x9,x10,0
8000acc4:	00058513          	addi	x10,x11,0
8000acc8:	00112623          	sw	x1,12(x2)
8000accc:	4e042823          	sw	x0,1264(x8) # 800124f0 <errno>
8000acd0:	909f50ef          	jal	x1,800005d8 <_isatty>
8000acd4:	fff00793          	addi	x15,x0,-1
8000acd8:	00f50c63          	beq	x10,x15,8000acf0 <_isatty_r+0x40>
8000acdc:	00c12083          	lw	x1,12(x2)
8000ace0:	00812403          	lw	x8,8(x2)
8000ace4:	00412483          	lw	x9,4(x2)
8000ace8:	01010113          	addi	x2,x2,16
8000acec:	00008067          	jalr	x0,0(x1)
8000acf0:	4f042783          	lw	x15,1264(x8)
8000acf4:	fe0784e3          	beq	x15,x0,8000acdc <_isatty_r+0x2c>
8000acf8:	00c12083          	lw	x1,12(x2)
8000acfc:	00812403          	lw	x8,8(x2)
8000ad00:	00f4a023          	sw	x15,0(x9)
8000ad04:	00412483          	lw	x9,4(x2)
8000ad08:	01010113          	addi	x2,x2,16
8000ad0c:	00008067          	jalr	x0,0(x1)

8000ad10 <strcmp>:
8000ad10:	00b56733          	or	x14,x10,x11
8000ad14:	fff00393          	addi	x7,x0,-1
8000ad18:	00377713          	andi	x14,x14,3
8000ad1c:	10071063          	bne	x14,x0,8000ae1c <strcmp+0x10c>
8000ad20:	7f7f87b7          	lui	x15,0x7f7f8
8000ad24:	f7f78793          	addi	x15,x15,-129 # 7f7f7f7f <_start-0x808081>
8000ad28:	00052603          	lw	x12,0(x10)
8000ad2c:	0005a683          	lw	x13,0(x11)
8000ad30:	00f672b3          	and	x5,x12,x15
8000ad34:	00f66333          	or	x6,x12,x15
8000ad38:	00f282b3          	add	x5,x5,x15
8000ad3c:	0062e2b3          	or	x5,x5,x6
8000ad40:	10729263          	bne	x5,x7,8000ae44 <strcmp+0x134>
8000ad44:	08d61663          	bne	x12,x13,8000add0 <strcmp+0xc0>
8000ad48:	00452603          	lw	x12,4(x10)
8000ad4c:	0045a683          	lw	x13,4(x11)
8000ad50:	00f672b3          	and	x5,x12,x15
8000ad54:	00f66333          	or	x6,x12,x15
8000ad58:	00f282b3          	add	x5,x5,x15
8000ad5c:	0062e2b3          	or	x5,x5,x6
8000ad60:	0c729e63          	bne	x5,x7,8000ae3c <strcmp+0x12c>
8000ad64:	06d61663          	bne	x12,x13,8000add0 <strcmp+0xc0>
8000ad68:	00852603          	lw	x12,8(x10)
8000ad6c:	0085a683          	lw	x13,8(x11)
8000ad70:	00f672b3          	and	x5,x12,x15
8000ad74:	00f66333          	or	x6,x12,x15
8000ad78:	00f282b3          	add	x5,x5,x15
8000ad7c:	0062e2b3          	or	x5,x5,x6
8000ad80:	0c729863          	bne	x5,x7,8000ae50 <strcmp+0x140>
8000ad84:	04d61663          	bne	x12,x13,8000add0 <strcmp+0xc0>
8000ad88:	00c52603          	lw	x12,12(x10)
8000ad8c:	00c5a683          	lw	x13,12(x11)
8000ad90:	00f672b3          	and	x5,x12,x15
8000ad94:	00f66333          	or	x6,x12,x15
8000ad98:	00f282b3          	add	x5,x5,x15
8000ad9c:	0062e2b3          	or	x5,x5,x6
8000ada0:	0c729263          	bne	x5,x7,8000ae64 <strcmp+0x154>
8000ada4:	02d61663          	bne	x12,x13,8000add0 <strcmp+0xc0>
8000ada8:	01052603          	lw	x12,16(x10)
8000adac:	0105a683          	lw	x13,16(x11)
8000adb0:	00f672b3          	and	x5,x12,x15
8000adb4:	00f66333          	or	x6,x12,x15
8000adb8:	00f282b3          	add	x5,x5,x15
8000adbc:	0062e2b3          	or	x5,x5,x6
8000adc0:	0a729c63          	bne	x5,x7,8000ae78 <strcmp+0x168>
8000adc4:	01450513          	addi	x10,x10,20
8000adc8:	01458593          	addi	x11,x11,20
8000adcc:	f4d60ee3          	beq	x12,x13,8000ad28 <strcmp+0x18>
8000add0:	01061713          	slli	x14,x12,0x10
8000add4:	01069793          	slli	x15,x13,0x10
8000add8:	00f71e63          	bne	x14,x15,8000adf4 <strcmp+0xe4>
8000addc:	01065713          	srli	x14,x12,0x10
8000ade0:	0106d793          	srli	x15,x13,0x10
8000ade4:	40f70533          	sub	x10,x14,x15
8000ade8:	0ff57593          	andi	x11,x10,255
8000adec:	02059063          	bne	x11,x0,8000ae0c <strcmp+0xfc>
8000adf0:	00008067          	jalr	x0,0(x1)
8000adf4:	01075713          	srli	x14,x14,0x10
8000adf8:	0107d793          	srli	x15,x15,0x10
8000adfc:	40f70533          	sub	x10,x14,x15
8000ae00:	0ff57593          	andi	x11,x10,255
8000ae04:	00059463          	bne	x11,x0,8000ae0c <strcmp+0xfc>
8000ae08:	00008067          	jalr	x0,0(x1)
8000ae0c:	0ff77713          	andi	x14,x14,255
8000ae10:	0ff7f793          	andi	x15,x15,255
8000ae14:	40f70533          	sub	x10,x14,x15
8000ae18:	00008067          	jalr	x0,0(x1)
8000ae1c:	00054603          	lbu	x12,0(x10)
8000ae20:	0005c683          	lbu	x13,0(x11)
8000ae24:	00150513          	addi	x10,x10,1
8000ae28:	00158593          	addi	x11,x11,1
8000ae2c:	00d61463          	bne	x12,x13,8000ae34 <strcmp+0x124>
8000ae30:	fe0616e3          	bne	x12,x0,8000ae1c <strcmp+0x10c>
8000ae34:	40d60533          	sub	x10,x12,x13
8000ae38:	00008067          	jalr	x0,0(x1)
8000ae3c:	00450513          	addi	x10,x10,4
8000ae40:	00458593          	addi	x11,x11,4
8000ae44:	fcd61ce3          	bne	x12,x13,8000ae1c <strcmp+0x10c>
8000ae48:	00000513          	addi	x10,x0,0
8000ae4c:	00008067          	jalr	x0,0(x1)
8000ae50:	00850513          	addi	x10,x10,8
8000ae54:	00858593          	addi	x11,x11,8
8000ae58:	fcd612e3          	bne	x12,x13,8000ae1c <strcmp+0x10c>
8000ae5c:	00000513          	addi	x10,x0,0
8000ae60:	00008067          	jalr	x0,0(x1)
8000ae64:	00c50513          	addi	x10,x10,12
8000ae68:	00c58593          	addi	x11,x11,12
8000ae6c:	fad618e3          	bne	x12,x13,8000ae1c <strcmp+0x10c>
8000ae70:	00000513          	addi	x10,x0,0
8000ae74:	00008067          	jalr	x0,0(x1)
8000ae78:	01050513          	addi	x10,x10,16
8000ae7c:	01058593          	addi	x11,x11,16
8000ae80:	f8d61ee3          	bne	x12,x13,8000ae1c <strcmp+0x10c>
8000ae84:	00000513          	addi	x10,x0,0
8000ae88:	00008067          	jalr	x0,0(x1)

8000ae8c <__assert_func>:
8000ae8c:	6ac1a783          	lw	x15,1708(x3) # 8001237c <_impure_ptr>
8000ae90:	ff010113          	addi	x2,x2,-16
8000ae94:	00060813          	addi	x16,x12,0
8000ae98:	00112623          	sw	x1,12(x2)
8000ae9c:	00050313          	addi	x6,x10,0
8000aea0:	00058713          	addi	x14,x11,0
8000aea4:	00c7a503          	lw	x10,12(x15)
8000aea8:	00068613          	addi	x12,x13,0
8000aeac:	00080c63          	beq	x16,x0,8000aec4 <__assert_func+0x38>
8000aeb0:	9c818793          	addi	x15,x3,-1592 # 80011698 <__clz_tab+0x26c>
8000aeb4:	00030693          	addi	x13,x6,0
8000aeb8:	9d818593          	addi	x11,x3,-1576 # 800116a8 <__clz_tab+0x27c>
8000aebc:	1e8000ef          	jal	x1,8000b0a4 <fiprintf>
8000aec0:	664010ef          	jal	x1,8000c524 <abort>
8000aec4:	9d418793          	addi	x15,x3,-1580 # 800116a4 <__clz_tab+0x278>
8000aec8:	00078813          	addi	x16,x15,0
8000aecc:	fe9ff06f          	jal	x0,8000aeb4 <__assert_func+0x28>

8000aed0 <__assert>:
8000aed0:	ff010113          	addi	x2,x2,-16
8000aed4:	00060693          	addi	x13,x12,0
8000aed8:	00000613          	addi	x12,x0,0
8000aedc:	00112623          	sw	x1,12(x2)
8000aee0:	fadff0ef          	jal	x1,8000ae8c <__assert_func>

8000aee4 <_calloc_r>:
8000aee4:	02c5b7b3          	mulhu	x15,x11,x12
8000aee8:	fe010113          	addi	x2,x2,-32
8000aeec:	00112e23          	sw	x1,28(x2)
8000aef0:	02c585b3          	mul	x11,x11,x12
8000aef4:	0a079063          	bne	x15,x0,8000af94 <_calloc_r+0xb0>
8000aef8:	a34f60ef          	jal	x1,8000112c <_malloc_r>
8000aefc:	00050793          	addi	x15,x10,0
8000af00:	0a050063          	beq	x10,x0,8000afa0 <_calloc_r+0xbc>
8000af04:	ffc52603          	lw	x12,-4(x10)
8000af08:	02400693          	addi	x13,x0,36
8000af0c:	ffc67613          	andi	x12,x12,-4
8000af10:	ffc60613          	addi	x12,x12,-4
8000af14:	04c6e663          	bltu	x13,x12,8000af60 <_calloc_r+0x7c>
8000af18:	01300593          	addi	x11,x0,19
8000af1c:	00050713          	addi	x14,x10,0
8000af20:	02c5f263          	bgeu	x11,x12,8000af44 <_calloc_r+0x60>
8000af24:	00052023          	sw	x0,0(x10)
8000af28:	00052223          	sw	x0,4(x10)
8000af2c:	01b00713          	addi	x14,x0,27
8000af30:	04c77863          	bgeu	x14,x12,8000af80 <_calloc_r+0x9c>
8000af34:	00052423          	sw	x0,8(x10)
8000af38:	00052623          	sw	x0,12(x10)
8000af3c:	01050713          	addi	x14,x10,16
8000af40:	06d60a63          	beq	x12,x13,8000afb4 <_calloc_r+0xd0>
8000af44:	00072023          	sw	x0,0(x14)
8000af48:	00072223          	sw	x0,4(x14)
8000af4c:	00072423          	sw	x0,8(x14)
8000af50:	01c12083          	lw	x1,28(x2)
8000af54:	00078513          	addi	x10,x15,0
8000af58:	02010113          	addi	x2,x2,32
8000af5c:	00008067          	jalr	x0,0(x1)
8000af60:	00000593          	addi	x11,x0,0
8000af64:	00a12623          	sw	x10,12(x2)
8000af68:	825fb0ef          	jal	x1,8000678c <memset>
8000af6c:	00c12783          	lw	x15,12(x2)
8000af70:	01c12083          	lw	x1,28(x2)
8000af74:	00078513          	addi	x10,x15,0
8000af78:	02010113          	addi	x2,x2,32
8000af7c:	00008067          	jalr	x0,0(x1)
8000af80:	00850713          	addi	x14,x10,8
8000af84:	00072023          	sw	x0,0(x14)
8000af88:	00072223          	sw	x0,4(x14)
8000af8c:	00072423          	sw	x0,8(x14)
8000af90:	fc1ff06f          	jal	x0,8000af50 <_calloc_r+0x6c>
8000af94:	de1f60ef          	jal	x1,80001d74 <__errno>
8000af98:	00c00793          	addi	x15,x0,12
8000af9c:	00f52023          	sw	x15,0(x10)
8000afa0:	01c12083          	lw	x1,28(x2)
8000afa4:	00000793          	addi	x15,x0,0
8000afa8:	00078513          	addi	x10,x15,0
8000afac:	02010113          	addi	x2,x2,32
8000afb0:	00008067          	jalr	x0,0(x1)
8000afb4:	00052823          	sw	x0,16(x10)
8000afb8:	00052a23          	sw	x0,20(x10)
8000afbc:	01850713          	addi	x14,x10,24
8000afc0:	f85ff06f          	jal	x0,8000af44 <_calloc_r+0x60>

8000afc4 <_mbtowc_r>:
8000afc4:	6181a783          	lw	x15,1560(x3) # 800122e8 <__global_locale+0xe4>
8000afc8:	00078067          	jalr	x0,0(x15)

8000afcc <__ascii_mbtowc>:
8000afcc:	02058063          	beq	x11,x0,8000afec <__ascii_mbtowc+0x20>
8000afd0:	04060263          	beq	x12,x0,8000b014 <__ascii_mbtowc+0x48>
8000afd4:	04068863          	beq	x13,x0,8000b024 <__ascii_mbtowc+0x58>
8000afd8:	00064783          	lbu	x15,0(x12)
8000afdc:	00f5a023          	sw	x15,0(x11)
8000afe0:	00064503          	lbu	x10,0(x12)
8000afe4:	00a03533          	sltu	x10,x0,x10
8000afe8:	00008067          	jalr	x0,0(x1)
8000afec:	ff010113          	addi	x2,x2,-16
8000aff0:	00c10593          	addi	x11,x2,12
8000aff4:	02060463          	beq	x12,x0,8000b01c <__ascii_mbtowc+0x50>
8000aff8:	02068a63          	beq	x13,x0,8000b02c <__ascii_mbtowc+0x60>
8000affc:	00064783          	lbu	x15,0(x12)
8000b000:	00f5a023          	sw	x15,0(x11)
8000b004:	00064503          	lbu	x10,0(x12)
8000b008:	00a03533          	sltu	x10,x0,x10
8000b00c:	01010113          	addi	x2,x2,16
8000b010:	00008067          	jalr	x0,0(x1)
8000b014:	00000513          	addi	x10,x0,0
8000b018:	00008067          	jalr	x0,0(x1)
8000b01c:	00000513          	addi	x10,x0,0
8000b020:	fedff06f          	jal	x0,8000b00c <__ascii_mbtowc+0x40>
8000b024:	ffe00513          	addi	x10,x0,-2
8000b028:	00008067          	jalr	x0,0(x1)
8000b02c:	ffe00513          	addi	x10,x0,-2
8000b030:	fddff06f          	jal	x0,8000b00c <__ascii_mbtowc+0x40>

8000b034 <_wctomb_r>:
8000b034:	6141a783          	lw	x15,1556(x3) # 800122e4 <__global_locale+0xe0>
8000b038:	00078067          	jalr	x0,0(x15)

8000b03c <__ascii_wctomb>:
8000b03c:	02058463          	beq	x11,x0,8000b064 <__ascii_wctomb+0x28>
8000b040:	0ff00793          	addi	x15,x0,255
8000b044:	00c7e863          	bltu	x15,x12,8000b054 <__ascii_wctomb+0x18>
8000b048:	00c58023          	sb	x12,0(x11)
8000b04c:	00100513          	addi	x10,x0,1
8000b050:	00008067          	jalr	x0,0(x1)
8000b054:	08a00793          	addi	x15,x0,138
8000b058:	00f52023          	sw	x15,0(x10)
8000b05c:	fff00513          	addi	x10,x0,-1
8000b060:	00008067          	jalr	x0,0(x1)
8000b064:	00000513          	addi	x10,x0,0
8000b068:	00008067          	jalr	x0,0(x1)

8000b06c <_fiprintf_r>:
8000b06c:	fc010113          	addi	x2,x2,-64
8000b070:	02c10313          	addi	x6,x2,44
8000b074:	02d12623          	sw	x13,44(x2)
8000b078:	00030693          	addi	x13,x6,0
8000b07c:	00112e23          	sw	x1,28(x2)
8000b080:	02e12823          	sw	x14,48(x2)
8000b084:	02f12a23          	sw	x15,52(x2)
8000b088:	03012c23          	sw	x16,56(x2)
8000b08c:	03112e23          	sw	x17,60(x2)
8000b090:	00612623          	sw	x6,12(x2)
8000b094:	060000ef          	jal	x1,8000b0f4 <_vfiprintf_r>
8000b098:	01c12083          	lw	x1,28(x2)
8000b09c:	04010113          	addi	x2,x2,64
8000b0a0:	00008067          	jalr	x0,0(x1)

8000b0a4 <fiprintf>:
8000b0a4:	fc010113          	addi	x2,x2,-64
8000b0a8:	00050e93          	addi	x29,x10,0
8000b0ac:	6ac1a503          	lw	x10,1708(x3) # 8001237c <_impure_ptr>
8000b0b0:	00058e13          	addi	x28,x11,0
8000b0b4:	02810313          	addi	x6,x2,40
8000b0b8:	02c12423          	sw	x12,40(x2)
8000b0bc:	02d12623          	sw	x13,44(x2)
8000b0c0:	000e8593          	addi	x11,x29,0
8000b0c4:	000e0613          	addi	x12,x28,0
8000b0c8:	00030693          	addi	x13,x6,0
8000b0cc:	00112e23          	sw	x1,28(x2)
8000b0d0:	02e12823          	sw	x14,48(x2)
8000b0d4:	02f12a23          	sw	x15,52(x2)
8000b0d8:	03012c23          	sw	x16,56(x2)
8000b0dc:	03112e23          	sw	x17,60(x2)
8000b0e0:	00612623          	sw	x6,12(x2)
8000b0e4:	010000ef          	jal	x1,8000b0f4 <_vfiprintf_r>
8000b0e8:	01c12083          	lw	x1,28(x2)
8000b0ec:	04010113          	addi	x2,x2,64
8000b0f0:	00008067          	jalr	x0,0(x1)

8000b0f4 <_vfiprintf_r>:
8000b0f4:	ed010113          	addi	x2,x2,-304
8000b0f8:	12912223          	sw	x9,292(x2)
8000b0fc:	11312e23          	sw	x19,284(x2)
8000b100:	11412c23          	sw	x20,280(x2)
8000b104:	11512a23          	sw	x21,276(x2)
8000b108:	12112623          	sw	x1,300(x2)
8000b10c:	11812423          	sw	x24,264(x2)
8000b110:	00050a93          	addi	x21,x10,0
8000b114:	00060493          	addi	x9,x12,0
8000b118:	00068a13          	addi	x20,x13,0
8000b11c:	00058993          	addi	x19,x11,0
8000b120:	00050863          	beq	x10,x0,8000b130 <_vfiprintf_r+0x3c>
8000b124:	03452783          	lw	x15,52(x10)
8000b128:	00079463          	bne	x15,x0,8000b130 <_vfiprintf_r+0x3c>
8000b12c:	0600106f          	jal	x0,8000c18c <_vfiprintf_r+0x1098>
8000b130:	00c99783          	lh	x15,12(x19)
8000b134:	0649a703          	lw	x14,100(x19)
8000b138:	00002637          	lui	x12,0x2
8000b13c:	01279693          	slli	x13,x15,0x12
8000b140:	3406c863          	blt	x13,x0,8000b490 <_vfiprintf_r+0x39c>
8000b144:	ffffe6b7          	lui	x13,0xffffe
8000b148:	00c7e7b3          	or	x15,x15,x12
8000b14c:	fff68693          	addi	x13,x13,-1 # ffffdfff <_stack_top+0x77ffdfff>
8000b150:	00d77733          	and	x14,x14,x13
8000b154:	00f99623          	sh	x15,12(x19)
8000b158:	01079793          	slli	x15,x15,0x10
8000b15c:	4107d793          	srai	x15,x15,0x10
8000b160:	06e9a223          	sw	x14,100(x19)
8000b164:	0087f713          	andi	x14,x15,8
8000b168:	26070063          	beq	x14,x0,8000b3c8 <_vfiprintf_r+0x2d4>
8000b16c:	0109a703          	lw	x14,16(x19)
8000b170:	24070c63          	beq	x14,x0,8000b3c8 <_vfiprintf_r+0x2d4>
8000b174:	01a7f793          	andi	x15,x15,26
8000b178:	00a00713          	addi	x14,x0,10
8000b17c:	26e78663          	beq	x15,x14,8000b3e8 <_vfiprintf_r+0x2f4>
8000b180:	11912223          	sw	x25,260(x2)
8000b184:	11612823          	sw	x22,272(x2)
8000b188:	11712623          	sw	x23,268(x2)
8000b18c:	04c10b13          	addi	x22,x2,76
8000b190:	dd418713          	addi	x14,x3,-556 # 80011aa4 <_ctype_+0x104>
8000b194:	13212023          	sw	x18,288(x2)
8000b198:	12812423          	sw	x8,296(x2)
8000b19c:	11a12023          	sw	x26,256(x2)
8000b1a0:	0fb12e23          	sw	x27,252(x2)
8000b1a4:	04012423          	sw	x0,72(x2)
8000b1a8:	04012223          	sw	x0,68(x2)
8000b1ac:	05612023          	sw	x22,64(x2)
8000b1b0:	000b0793          	addi	x15,x22,0
8000b1b4:	00e12623          	sw	x14,12(x2)
8000b1b8:	f4018b93          	addi	x23,x3,-192 # 80011c10 <zeroes.0>
8000b1bc:	00012823          	sw	x0,16(x2)
8000b1c0:	02012023          	sw	x0,32(x2)
8000b1c4:	02012223          	sw	x0,36(x2)
8000b1c8:	00000c13          	addi	x24,x0,0
8000b1cc:	01000913          	addi	x18,x0,16
8000b1d0:	0004c703          	lbu	x14,0(x9)
8000b1d4:	00048413          	addi	x8,x9,0
8000b1d8:	fdb70693          	addi	x13,x14,-37
8000b1dc:	04068e63          	beq	x13,x0,8000b238 <_vfiprintf_r+0x144>
8000b1e0:	04070c63          	beq	x14,x0,8000b238 <_vfiprintf_r+0x144>
8000b1e4:	00040c93          	addi	x25,x8,0
8000b1e8:	00144703          	lbu	x14,1(x8)
8000b1ec:	00140413          	addi	x8,x8,1
8000b1f0:	00070663          	beq	x14,x0,8000b1fc <_vfiprintf_r+0x108>
8000b1f4:	fdb70693          	addi	x13,x14,-37
8000b1f8:	fe0696e3          	bne	x13,x0,8000b1e4 <_vfiprintf_r+0xf0>
8000b1fc:	40940d33          	sub	x26,x8,x9
8000b200:	02940c63          	beq	x8,x9,8000b238 <_vfiprintf_r+0x144>
8000b204:	04812683          	lw	x13,72(x2)
8000b208:	04412703          	lw	x14,68(x2)
8000b20c:	0097a023          	sw	x9,0(x15)
8000b210:	01a686b3          	add	x13,x13,x26
8000b214:	00170713          	addi	x14,x14,1
8000b218:	01a7a223          	sw	x26,4(x15)
8000b21c:	04d12423          	sw	x13,72(x2)
8000b220:	04e12223          	sw	x14,68(x2)
8000b224:	00700693          	addi	x13,x0,7
8000b228:	00878793          	addi	x15,x15,8
8000b22c:	1ee6ca63          	blt	x13,x14,8000b420 <_vfiprintf_r+0x32c>
8000b230:	001cc703          	lbu	x14,1(x25)
8000b234:	01ac0c33          	add	x24,x24,x26
8000b238:	20070263          	beq	x14,x0,8000b43c <_vfiprintf_r+0x348>
8000b23c:	00144683          	lbu	x13,1(x8)
8000b240:	00140493          	addi	x9,x8,1
8000b244:	02010da3          	sb	x0,59(x2)
8000b248:	fff00413          	addi	x8,x0,-1
8000b24c:	00000c93          	addi	x25,x0,0
8000b250:	00000d13          	addi	x26,x0,0
8000b254:	05a00d93          	addi	x27,x0,90
8000b258:	00148493          	addi	x9,x9,1
8000b25c:	fe068713          	addi	x14,x13,-32
8000b260:	04ede663          	bltu	x27,x14,8000b2ac <_vfiprintf_r+0x1b8>
8000b264:	00c12603          	lw	x12,12(x2)
8000b268:	00271713          	slli	x14,x14,0x2
8000b26c:	00c70733          	add	x14,x14,x12
8000b270:	00072703          	lw	x14,0(x14)
8000b274:	00070067          	jalr	x0,0(x14)
8000b278:	fd068713          	addi	x14,x13,-48
8000b27c:	00000c93          	addi	x25,x0,0
8000b280:	00900593          	addi	x11,x0,9
8000b284:	002c9613          	slli	x12,x25,0x2
8000b288:	0004c683          	lbu	x13,0(x9)
8000b28c:	01960cb3          	add	x25,x12,x25
8000b290:	001c9c93          	slli	x25,x25,0x1
8000b294:	01970cb3          	add	x25,x14,x25
8000b298:	fd068713          	addi	x14,x13,-48
8000b29c:	00148493          	addi	x9,x9,1
8000b2a0:	fee5f2e3          	bgeu	x11,x14,8000b284 <_vfiprintf_r+0x190>
8000b2a4:	fe068713          	addi	x14,x13,-32
8000b2a8:	faedfee3          	bgeu	x27,x14,8000b264 <_vfiprintf_r+0x170>
8000b2ac:	18068863          	beq	x13,x0,8000b43c <_vfiprintf_r+0x348>
8000b2b0:	00100313          	addi	x6,x0,1
8000b2b4:	08d10623          	sb	x13,140(x2)
8000b2b8:	02010da3          	sb	x0,59(x2)
8000b2bc:	00030813          	addi	x16,x6,0
8000b2c0:	00000413          	addi	x8,x0,0
8000b2c4:	08c10d93          	addi	x27,x2,140
8000b2c8:	04812583          	lw	x11,72(x2)
8000b2cc:	04412603          	lw	x12,68(x2)
8000b2d0:	084d7893          	andi	x17,x26,132
8000b2d4:	00058693          	addi	x13,x11,0
8000b2d8:	00060713          	addi	x14,x12,0 # 2000 <_start-0x7fffe000>
8000b2dc:	06089c63          	bne	x17,x0,8000b354 <_vfiprintf_r+0x260>
8000b2e0:	410c8e33          	sub	x28,x25,x16
8000b2e4:	2bc04ee3          	blt	x0,x28,8000bda0 <_vfiprintf_r+0xcac>
8000b2e8:	03b14603          	lbu	x12,59(x2)
8000b2ec:	06060863          	beq	x12,x0,8000b35c <_vfiprintf_r+0x268>
8000b2f0:	00000893          	addi	x17,x0,0
8000b2f4:	00000e93          	addi	x29,x0,0
8000b2f8:	03b10613          	addi	x12,x2,59
8000b2fc:	00c7a023          	sw	x12,0(x15)
8000b300:	00168693          	addi	x13,x13,1
8000b304:	00100613          	addi	x12,x0,1
8000b308:	00170713          	addi	x14,x14,1
8000b30c:	00c7a223          	sw	x12,4(x15)
8000b310:	04d12423          	sw	x13,72(x2)
8000b314:	04e12223          	sw	x14,68(x2)
8000b318:	00700613          	addi	x12,x0,7
8000b31c:	00878793          	addi	x15,x15,8
8000b320:	18e64063          	blt	x12,x14,8000b4a0 <_vfiprintf_r+0x3ac>
8000b324:	020e8863          	beq	x29,x0,8000b354 <_vfiprintf_r+0x260>
8000b328:	03c10613          	addi	x12,x2,60
8000b32c:	00c7a023          	sw	x12,0(x15)
8000b330:	00268693          	addi	x13,x13,2
8000b334:	00200613          	addi	x12,x0,2
8000b338:	00170713          	addi	x14,x14,1
8000b33c:	00c7a223          	sw	x12,4(x15)
8000b340:	04d12423          	sw	x13,72(x2)
8000b344:	04e12223          	sw	x14,68(x2)
8000b348:	00700613          	addi	x12,x0,7
8000b34c:	00878793          	addi	x15,x15,8
8000b350:	1ae64ee3          	blt	x12,x14,8000bd0c <_vfiprintf_r+0xc18>
8000b354:	08000613          	addi	x12,x0,128
8000b358:	7ac88263          	beq	x17,x12,8000bafc <_vfiprintf_r+0xa08>
8000b35c:	40640433          	sub	x8,x8,x6
8000b360:	08804ce3          	blt	x0,x8,8000bbf8 <_vfiprintf_r+0xb04>
8000b364:	00d306b3          	add	x13,x6,x13
8000b368:	00170713          	addi	x14,x14,1
8000b36c:	01b7a023          	sw	x27,0(x15)
8000b370:	0067a223          	sw	x6,4(x15)
8000b374:	04d12423          	sw	x13,72(x2)
8000b378:	04e12223          	sw	x14,68(x2)
8000b37c:	00700613          	addi	x12,x0,7
8000b380:	00878793          	addi	x15,x15,8
8000b384:	14e644e3          	blt	x12,x14,8000bccc <_vfiprintf_r+0xbd8>
8000b388:	004d7d13          	andi	x26,x26,4
8000b38c:	000d0663          	beq	x26,x0,8000b398 <_vfiprintf_r+0x2a4>
8000b390:	410c8433          	sub	x8,x25,x16
8000b394:	14804863          	blt	x0,x8,8000b4e4 <_vfiprintf_r+0x3f0>
8000b398:	010cd463          	bge	x25,x16,8000b3a0 <_vfiprintf_r+0x2ac>
8000b39c:	00080c93          	addi	x25,x16,0
8000b3a0:	019c0c33          	add	x24,x24,x25
8000b3a4:	140698e3          	bne	x13,x0,8000bcf4 <_vfiprintf_r+0xc00>
8000b3a8:	04012223          	sw	x0,68(x2)
8000b3ac:	000b0793          	addi	x15,x22,0
8000b3b0:	e21ff06f          	jal	x0,8000b1d0 <_vfiprintf_r+0xdc>
8000b3b4:	0004c683          	lbu	x13,0(x9)
8000b3b8:	ea1ff06f          	jal	x0,8000b258 <_vfiprintf_r+0x164>
8000b3bc:	0004c683          	lbu	x13,0(x9)
8000b3c0:	020d6d13          	ori	x26,x26,32
8000b3c4:	e95ff06f          	jal	x0,8000b258 <_vfiprintf_r+0x164>
8000b3c8:	00098593          	addi	x11,x19,0
8000b3cc:	000a8513          	addi	x10,x21,0
8000b3d0:	d45fa0ef          	jal	x1,80006114 <__swsetup_r>
8000b3d4:	0c051263          	bne	x10,x0,8000b498 <_vfiprintf_r+0x3a4>
8000b3d8:	00c99783          	lh	x15,12(x19)
8000b3dc:	00a00713          	addi	x14,x0,10
8000b3e0:	01a7f793          	andi	x15,x15,26
8000b3e4:	d8e79ee3          	bne	x15,x14,8000b180 <_vfiprintf_r+0x8c>
8000b3e8:	00e99783          	lh	x15,14(x19)
8000b3ec:	d807cae3          	blt	x15,x0,8000b180 <_vfiprintf_r+0x8c>
8000b3f0:	12c12083          	lw	x1,300(x2)
8000b3f4:	10812c03          	lw	x24,264(x2)
8000b3f8:	000a0693          	addi	x13,x20,0
8000b3fc:	00048613          	addi	x12,x9,0
8000b400:	11812a03          	lw	x20,280(x2)
8000b404:	12412483          	lw	x9,292(x2)
8000b408:	00098593          	addi	x11,x19,0
8000b40c:	000a8513          	addi	x10,x21,0
8000b410:	11c12983          	lw	x19,284(x2)
8000b414:	11412a83          	lw	x21,276(x2)
8000b418:	13010113          	addi	x2,x2,304
8000b41c:	0480106f          	jal	x0,8000c464 <__sbprintf>
8000b420:	04010613          	addi	x12,x2,64
8000b424:	00098593          	addi	x11,x19,0
8000b428:	000a8513          	addi	x10,x21,0
8000b42c:	f11f90ef          	jal	x1,8000533c <__sprint_r>
8000b430:	00051a63          	bne	x10,x0,8000b444 <_vfiprintf_r+0x350>
8000b434:	000b0793          	addi	x15,x22,0
8000b438:	df9ff06f          	jal	x0,8000b230 <_vfiprintf_r+0x13c>
8000b43c:	04812783          	lw	x15,72(x2)
8000b440:	640794e3          	bne	x15,x0,8000c288 <_vfiprintf_r+0x1194>
8000b444:	00c9d783          	lhu	x15,12(x19)
8000b448:	12812403          	lw	x8,296(x2)
8000b44c:	12012903          	lw	x18,288(x2)
8000b450:	0407f793          	andi	x15,x15,64
8000b454:	11012b03          	lw	x22,272(x2)
8000b458:	10c12b83          	lw	x23,268(x2)
8000b45c:	10412c83          	lw	x25,260(x2)
8000b460:	10012d03          	lw	x26,256(x2)
8000b464:	0fc12d83          	lw	x27,252(x2)
8000b468:	02079863          	bne	x15,x0,8000b498 <_vfiprintf_r+0x3a4>
8000b46c:	12c12083          	lw	x1,300(x2)
8000b470:	12412483          	lw	x9,292(x2)
8000b474:	11c12983          	lw	x19,284(x2)
8000b478:	11812a03          	lw	x20,280(x2)
8000b47c:	11412a83          	lw	x21,276(x2)
8000b480:	000c0513          	addi	x10,x24,0
8000b484:	10812c03          	lw	x24,264(x2)
8000b488:	13010113          	addi	x2,x2,304
8000b48c:	00008067          	jalr	x0,0(x1)
8000b490:	01271693          	slli	x13,x14,0x12
8000b494:	cc06d8e3          	bge	x13,x0,8000b164 <_vfiprintf_r+0x70>
8000b498:	fff00c13          	addi	x24,x0,-1
8000b49c:	fd1ff06f          	jal	x0,8000b46c <_vfiprintf_r+0x378>
8000b4a0:	04010613          	addi	x12,x2,64
8000b4a4:	00098593          	addi	x11,x19,0
8000b4a8:	000a8513          	addi	x10,x21,0
8000b4ac:	02612423          	sw	x6,40(x2)
8000b4b0:	01112e23          	sw	x17,28(x2)
8000b4b4:	01d12c23          	sw	x29,24(x2)
8000b4b8:	01012a23          	sw	x16,20(x2)
8000b4bc:	e81f90ef          	jal	x1,8000533c <__sprint_r>
8000b4c0:	f80512e3          	bne	x10,x0,8000b444 <_vfiprintf_r+0x350>
8000b4c4:	04812683          	lw	x13,72(x2)
8000b4c8:	04412703          	lw	x14,68(x2)
8000b4cc:	02812303          	lw	x6,40(x2)
8000b4d0:	01c12883          	lw	x17,28(x2)
8000b4d4:	01812e83          	lw	x29,24(x2)
8000b4d8:	01412803          	lw	x16,20(x2)
8000b4dc:	000b0793          	addi	x15,x22,0
8000b4e0:	e45ff06f          	jal	x0,8000b324 <_vfiprintf_r+0x230>
8000b4e4:	01000d13          	addi	x26,x0,16
8000b4e8:	04412703          	lw	x14,68(x2)
8000b4ec:	708d56e3          	bge	x26,x8,8000c3f8 <_vfiprintf_r+0x1304>
8000b4f0:	00912c23          	sw	x9,24(x2)
8000b4f4:	00700d93          	addi	x27,x0,7
8000b4f8:	01012a23          	sw	x16,20(x2)
8000b4fc:	f5018493          	addi	x9,x3,-176 # 80011c20 <blanks.1>
8000b500:	00c0006f          	jal	x0,8000b50c <_vfiprintf_r+0x418>
8000b504:	ff040413          	addi	x8,x8,-16
8000b508:	048d5663          	bge	x26,x8,8000b554 <_vfiprintf_r+0x460>
8000b50c:	01068693          	addi	x13,x13,16
8000b510:	00170713          	addi	x14,x14,1
8000b514:	0097a023          	sw	x9,0(x15)
8000b518:	01a7a223          	sw	x26,4(x15)
8000b51c:	04d12423          	sw	x13,72(x2)
8000b520:	04e12223          	sw	x14,68(x2)
8000b524:	00878793          	addi	x15,x15,8
8000b528:	fceddee3          	bge	x27,x14,8000b504 <_vfiprintf_r+0x410>
8000b52c:	04010613          	addi	x12,x2,64
8000b530:	00098593          	addi	x11,x19,0
8000b534:	000a8513          	addi	x10,x21,0
8000b538:	e05f90ef          	jal	x1,8000533c <__sprint_r>
8000b53c:	f00514e3          	bne	x10,x0,8000b444 <_vfiprintf_r+0x350>
8000b540:	ff040413          	addi	x8,x8,-16
8000b544:	04812683          	lw	x13,72(x2)
8000b548:	04412703          	lw	x14,68(x2)
8000b54c:	000b0793          	addi	x15,x22,0
8000b550:	fa8d4ee3          	blt	x26,x8,8000b50c <_vfiprintf_r+0x418>
8000b554:	00048893          	addi	x17,x9,0
8000b558:	01412803          	lw	x16,20(x2)
8000b55c:	01812483          	lw	x9,24(x2)
8000b560:	008686b3          	add	x13,x13,x8
8000b564:	00170713          	addi	x14,x14,1
8000b568:	0117a023          	sw	x17,0(x15)
8000b56c:	0087a223          	sw	x8,4(x15)
8000b570:	04d12423          	sw	x13,72(x2)
8000b574:	04e12223          	sw	x14,68(x2)
8000b578:	00700793          	addi	x15,x0,7
8000b57c:	e0e7dee3          	bge	x15,x14,8000b398 <_vfiprintf_r+0x2a4>
8000b580:	04010613          	addi	x12,x2,64
8000b584:	00098593          	addi	x11,x19,0
8000b588:	000a8513          	addi	x10,x21,0
8000b58c:	01012a23          	sw	x16,20(x2)
8000b590:	dadf90ef          	jal	x1,8000533c <__sprint_r>
8000b594:	ea0518e3          	bne	x10,x0,8000b444 <_vfiprintf_r+0x350>
8000b598:	04812683          	lw	x13,72(x2)
8000b59c:	01412803          	lw	x16,20(x2)
8000b5a0:	df9ff06f          	jal	x0,8000b398 <_vfiprintf_r+0x2a4>
8000b5a4:	020d7713          	andi	x14,x26,32
8000b5a8:	10071463          	bne	x14,x0,8000b6b0 <_vfiprintf_r+0x5bc>
8000b5ac:	010d7713          	andi	x14,x26,16
8000b5b0:	000a2883          	lw	x17,0(x20)
8000b5b4:	004a0593          	addi	x11,x20,4
8000b5b8:	180718e3          	bne	x14,x0,8000bf48 <_vfiprintf_r+0xe54>
8000b5bc:	040d7713          	andi	x14,x26,64
8000b5c0:	420700e3          	beq	x14,x0,8000c1e0 <_vfiprintf_r+0x10ec>
8000b5c4:	01089893          	slli	x17,x17,0x10
8000b5c8:	4108d893          	srai	x17,x17,0x10
8000b5cc:	41f8d693          	srai	x13,x17,0x1f
8000b5d0:	00058a13          	addi	x20,x11,0
8000b5d4:	00068613          	addi	x12,x13,0
8000b5d8:	0e064a63          	blt	x12,x0,8000b6cc <_vfiprintf_r+0x5d8>
8000b5dc:	10044863          	blt	x8,x0,8000b6ec <_vfiprintf_r+0x5f8>
8000b5e0:	f7fd7d13          	andi	x26,x26,-129
8000b5e4:	10041463          	bne	x8,x0,8000b6ec <_vfiprintf_r+0x5f8>
8000b5e8:	00d8e733          	or	x14,x17,x13
8000b5ec:	10071063          	bne	x14,x0,8000b6ec <_vfiprintf_r+0x5f8>
8000b5f0:	03b14703          	lbu	x14,59(x2)
8000b5f4:	00000313          	addi	x6,x0,0
8000b5f8:	00000413          	addi	x8,x0,0
8000b5fc:	0f010d93          	addi	x27,x2,240
8000b600:	1e070c63          	beq	x14,x0,8000b7f8 <_vfiprintf_r+0x704>
8000b604:	00100813          	addi	x16,x0,1
8000b608:	04812683          	lw	x13,72(x2)
8000b60c:	04412703          	lw	x14,68(x2)
8000b610:	084d7893          	andi	x17,x26,132
8000b614:	00068593          	addi	x11,x13,0
8000b618:	00070613          	addi	x12,x14,0
8000b61c:	cc0882e3          	beq	x17,x0,8000b2e0 <_vfiprintf_r+0x1ec>
8000b620:	00000e93          	addi	x29,x0,0
8000b624:	cd5ff06f          	jal	x0,8000b2f8 <_vfiprintf_r+0x204>
8000b628:	000a2d83          	lw	x27,0(x20)
8000b62c:	02010da3          	sb	x0,59(x2)
8000b630:	004a0a13          	addi	x20,x20,4
8000b634:	380d88e3          	beq	x27,x0,8000c1c4 <_vfiprintf_r+0x10d0>
8000b638:	00f12a23          	sw	x15,20(x2)
8000b63c:	240444e3          	blt	x8,x0,8000c084 <_vfiprintf_r+0xf90>
8000b640:	00040613          	addi	x12,x8,0
8000b644:	00000593          	addi	x11,x0,0
8000b648:	000d8513          	addi	x10,x27,0
8000b64c:	c2dfa0ef          	jal	x1,80006278 <memchr>
8000b650:	03b14703          	lbu	x14,59(x2)
8000b654:	01412783          	lw	x15,20(x2)
8000b658:	580502e3          	beq	x10,x0,8000c3dc <_vfiprintf_r+0x12e8>
8000b65c:	41b50333          	sub	x6,x10,x27
8000b660:	fff34813          	xori	x16,x6,-1
8000b664:	41f85813          	srai	x16,x16,0x1f
8000b668:	01037833          	and	x16,x6,x16
8000b66c:	22070ee3          	beq	x14,x0,8000c0a8 <_vfiprintf_r+0xfb4>
8000b670:	00180813          	addi	x16,x16,1
8000b674:	00000413          	addi	x8,x0,0
8000b678:	f91ff06f          	jal	x0,8000b608 <_vfiprintf_r+0x514>
8000b67c:	000a2703          	lw	x14,0(x20)
8000b680:	00100313          	addi	x6,x0,1
8000b684:	02010da3          	sb	x0,59(x2)
8000b688:	08e10623          	sb	x14,140(x2)
8000b68c:	004a0a13          	addi	x20,x20,4
8000b690:	00030813          	addi	x16,x6,0
8000b694:	00000413          	addi	x8,x0,0
8000b698:	08c10d93          	addi	x27,x2,140
8000b69c:	c2dff06f          	jal	x0,8000b2c8 <_vfiprintf_r+0x1d4>
8000b6a0:	020d7713          	andi	x14,x26,32
8000b6a4:	004a0593          	addi	x11,x20,4
8000b6a8:	010d6d13          	ori	x26,x26,16
8000b6ac:	08070ee3          	beq	x14,x0,8000bf48 <_vfiprintf_r+0xe54>
8000b6b0:	007a0713          	addi	x14,x20,7
8000b6b4:	ff877713          	andi	x14,x14,-8
8000b6b8:	00472603          	lw	x12,4(x14)
8000b6bc:	00072883          	lw	x17,0(x14)
8000b6c0:	00870a13          	addi	x20,x14,8
8000b6c4:	00060693          	addi	x13,x12,0
8000b6c8:	f0065ae3          	bge	x12,x0,8000b5dc <_vfiprintf_r+0x4e8>
8000b6cc:	01103733          	sltu	x14,x0,x17
8000b6d0:	40d006b3          	sub	x13,x0,x13
8000b6d4:	40e686b3          	sub	x13,x13,x14
8000b6d8:	02d00713          	addi	x14,x0,45
8000b6dc:	02e10da3          	sb	x14,59(x2)
8000b6e0:	411008b3          	sub	x17,x0,x17
8000b6e4:	00044463          	blt	x8,x0,8000b6ec <_vfiprintf_r+0x5f8>
8000b6e8:	f7fd7d13          	andi	x26,x26,-129
8000b6ec:	12069e63          	bne	x13,x0,8000b828 <_vfiprintf_r+0x734>
8000b6f0:	00900713          	addi	x14,x0,9
8000b6f4:	13176a63          	bltu	x14,x17,8000b828 <_vfiprintf_r+0x734>
8000b6f8:	03088893          	addi	x17,x17,48
8000b6fc:	0f1107a3          	sb	x17,239(x2)
8000b700:	00040813          	addi	x16,x8,0
8000b704:	00804463          	blt	x0,x8,8000b70c <_vfiprintf_r+0x618>
8000b708:	00100813          	addi	x16,x0,1
8000b70c:	03b14703          	lbu	x14,59(x2)
8000b710:	78071063          	bne	x14,x0,8000be90 <_vfiprintf_r+0xd9c>
8000b714:	00100313          	addi	x6,x0,1
8000b718:	0ef10d93          	addi	x27,x2,239
8000b71c:	badff06f          	jal	x0,8000b2c8 <_vfiprintf_r+0x1d4>
8000b720:	000a2c83          	lw	x25,0(x20)
8000b724:	760cd063          	bge	x25,x0,8000be84 <_vfiprintf_r+0xd90>
8000b728:	41900cb3          	sub	x25,x0,x25
8000b72c:	004a0a13          	addi	x20,x20,4
8000b730:	0004c683          	lbu	x13,0(x9)
8000b734:	004d6d13          	ori	x26,x26,4
8000b738:	b21ff06f          	jal	x0,8000b258 <_vfiprintf_r+0x164>
8000b73c:	02b00713          	addi	x14,x0,43
8000b740:	0004c683          	lbu	x13,0(x9)
8000b744:	02e10da3          	sb	x14,59(x2)
8000b748:	b11ff06f          	jal	x0,8000b258 <_vfiprintf_r+0x164>
8000b74c:	020d7713          	andi	x14,x26,32
8000b750:	010d6813          	ori	x16,x26,16
8000b754:	004a0593          	addi	x11,x20,4
8000b758:	7e070063          	beq	x14,x0,8000bf38 <_vfiprintf_r+0xe44>
8000b75c:	007a0693          	addi	x13,x20,7
8000b760:	ff86f693          	andi	x13,x13,-8
8000b764:	0006a703          	lw	x14,0(x13)
8000b768:	0046a603          	lw	x12,4(x13)
8000b76c:	00868a13          	addi	x20,x13,8
8000b770:	02010da3          	sb	x0,59(x2)
8000b774:	bff87d13          	andi	x26,x16,-1025
8000b778:	5c044863          	blt	x8,x0,8000bd48 <_vfiprintf_r+0xc54>
8000b77c:	b7f87d13          	andi	x26,x16,-1153
8000b780:	5c041463          	bne	x8,x0,8000bd48 <_vfiprintf_r+0xc54>
8000b784:	00c766b3          	or	x13,x14,x12
8000b788:	5c069063          	bne	x13,x0,8000bd48 <_vfiprintf_r+0xc54>
8000b78c:	00187813          	andi	x16,x16,1
8000b790:	020808e3          	beq	x16,x0,8000bfc0 <_vfiprintf_r+0xecc>
8000b794:	03000713          	addi	x14,x0,48
8000b798:	0ee107a3          	sb	x14,239(x2)
8000b79c:	00080313          	addi	x6,x16,0
8000b7a0:	0ef10d93          	addi	x27,x2,239
8000b7a4:	b25ff06f          	jal	x0,8000b2c8 <_vfiprintf_r+0x1d4>
8000b7a8:	0004c683          	lbu	x13,0(x9)
8000b7ac:	06800713          	addi	x14,x0,104
8000b7b0:	1ee682e3          	beq	x13,x14,8000c194 <_vfiprintf_r+0x10a0>
8000b7b4:	040d6d13          	ori	x26,x26,64
8000b7b8:	aa1ff06f          	jal	x0,8000b258 <_vfiprintf_r+0x164>
8000b7bc:	020d7713          	andi	x14,x26,32
8000b7c0:	004a0593          	addi	x11,x20,4
8000b7c4:	010d6d13          	ori	x26,x26,16
8000b7c8:	04071063          	bne	x14,x0,8000b808 <_vfiprintf_r+0x714>
8000b7cc:	02010da3          	sb	x0,59(x2)
8000b7d0:	000a2883          	lw	x17,0(x20)
8000b7d4:	00000693          	addi	x13,x0,0
8000b7d8:	00058a13          	addi	x20,x11,0
8000b7dc:	f0044ae3          	blt	x8,x0,8000b6f0 <_vfiprintf_r+0x5fc>
8000b7e0:	00d8e733          	or	x14,x17,x13
8000b7e4:	f7fd7d13          	andi	x26,x26,-129
8000b7e8:	f00712e3          	bne	x14,x0,8000b6ec <_vfiprintf_r+0x5f8>
8000b7ec:	f00410e3          	bne	x8,x0,8000b6ec <_vfiprintf_r+0x5f8>
8000b7f0:	00000313          	addi	x6,x0,0
8000b7f4:	0f010d93          	addi	x27,x2,240
8000b7f8:	00000813          	addi	x16,x0,0
8000b7fc:	acdff06f          	jal	x0,8000b2c8 <_vfiprintf_r+0x1d4>
8000b800:	020d7713          	andi	x14,x26,32
8000b804:	6e070263          	beq	x14,x0,8000bee8 <_vfiprintf_r+0xdf4>
8000b808:	007a0713          	addi	x14,x20,7
8000b80c:	ff877713          	andi	x14,x14,-8
8000b810:	02010da3          	sb	x0,59(x2)
8000b814:	00072883          	lw	x17,0(x14)
8000b818:	00472683          	lw	x13,4(x14)
8000b81c:	00870a13          	addi	x20,x14,8
8000b820:	fc0450e3          	bge	x8,x0,8000b7e0 <_vfiprintf_r+0x6ec>
8000b824:	ec0686e3          	beq	x13,x0,8000b6f0 <_vfiprintf_r+0x5fc>
8000b828:	ccccd837          	lui	x16,0xccccd
8000b82c:	ccccd337          	lui	x6,0xccccd
8000b830:	ccd80813          	addi	x16,x16,-819 # cccccccd <_stack_top+0x44cccccd>
8000b834:	ccc30313          	addi	x6,x6,-820 # cccccccc <_stack_top+0x44cccccc>
8000b838:	400d7e13          	andi	x28,x26,1024
8000b83c:	00000513          	addi	x10,x0,0
8000b840:	0f010593          	addi	x11,x2,240
8000b844:	07c0006f          	jal	x0,8000b8c0 <_vfiprintf_r+0x7cc>
8000b848:	01012703          	lw	x14,16(x2)
8000b84c:	00074703          	lbu	x14,0(x14)
8000b850:	00a71663          	bne	x14,x10,8000b85c <_vfiprintf_r+0x768>
8000b854:	f0170713          	addi	x14,x14,-255
8000b858:	100712e3          	bne	x14,x0,8000c15c <_vfiprintf_r+0x1068>
8000b85c:	00088e93          	addi	x29,x17,0
8000b860:	00068613          	addi	x12,x13,0
8000b864:	000d8593          	addi	x11,x27,0
8000b868:	00d88733          	add	x14,x17,x13
8000b86c:	01173f33          	sltu	x30,x14,x17
8000b870:	01e70733          	add	x14,x14,x30
8000b874:	03073f33          	mulhu	x30,x14,x16
8000b878:	002f5f93          	srli	x31,x30,0x2
8000b87c:	ffcf7f13          	andi	x30,x30,-4
8000b880:	01ff0f33          	add	x30,x30,x31
8000b884:	41e70733          	sub	x14,x14,x30
8000b888:	40e88733          	sub	x14,x17,x14
8000b88c:	00e8b8b3          	sltu	x17,x17,x14
8000b890:	411686b3          	sub	x13,x13,x17
8000b894:	02670f33          	mul	x30,x14,x6
8000b898:	030686b3          	mul	x13,x13,x16
8000b89c:	030738b3          	mulhu	x17,x14,x16
8000b8a0:	01e686b3          	add	x13,x13,x30
8000b8a4:	03070733          	mul	x14,x14,x16
8000b8a8:	011686b3          	add	x13,x13,x17
8000b8ac:	01f69893          	slli	x17,x13,0x1f
8000b8b0:	0016d693          	srli	x13,x13,0x1
8000b8b4:	00175713          	srli	x14,x14,0x1
8000b8b8:	00e888b3          	add	x17,x17,x14
8000b8bc:	30060ae3          	beq	x12,x0,8000c3d0 <_vfiprintf_r+0x12dc>
8000b8c0:	00d88733          	add	x14,x17,x13
8000b8c4:	01173633          	sltu	x12,x14,x17
8000b8c8:	00c70633          	add	x12,x14,x12
8000b8cc:	03063eb3          	mulhu	x29,x12,x16
8000b8d0:	00150513          	addi	x10,x10,1
8000b8d4:	fff58d93          	addi	x27,x11,-1
8000b8d8:	002edf13          	srli	x30,x29,0x2
8000b8dc:	ffcefe93          	andi	x29,x29,-4
8000b8e0:	01ee8eb3          	add	x29,x29,x30
8000b8e4:	41d60633          	sub	x12,x12,x29
8000b8e8:	40c88633          	sub	x12,x17,x12
8000b8ec:	00c8beb3          	sltu	x29,x17,x12
8000b8f0:	41d68eb3          	sub	x29,x13,x29
8000b8f4:	03063f33          	mulhu	x30,x12,x16
8000b8f8:	030e8eb3          	mul	x29,x29,x16
8000b8fc:	03060633          	mul	x12,x12,x16
8000b900:	01ee8eb3          	add	x29,x29,x30
8000b904:	01fe9e93          	slli	x29,x29,0x1f
8000b908:	00165613          	srli	x12,x12,0x1
8000b90c:	00ce8633          	add	x12,x29,x12
8000b910:	00261e93          	slli	x29,x12,0x2
8000b914:	00ce8633          	add	x12,x29,x12
8000b918:	00161613          	slli	x12,x12,0x1
8000b91c:	40c88633          	sub	x12,x17,x12
8000b920:	03060613          	addi	x12,x12,48
8000b924:	fec58fa3          	sb	x12,-1(x11)
8000b928:	f20e10e3          	bne	x28,x0,8000b848 <_vfiprintf_r+0x754>
8000b92c:	00088e93          	addi	x29,x17,0
8000b930:	00068613          	addi	x12,x13,0
8000b934:	000d8593          	addi	x11,x27,0
8000b938:	f35ff06f          	jal	x0,8000b86c <_vfiprintf_r+0x778>
8000b93c:	000a8513          	addi	x10,x21,0
8000b940:	00f12a23          	sw	x15,20(x2)
8000b944:	a89fa0ef          	jal	x1,800063cc <_localeconv_r>
8000b948:	00452783          	lw	x15,4(x10)
8000b94c:	00078513          	addi	x10,x15,0
8000b950:	02f12223          	sw	x15,36(x2)
8000b954:	c88f60ef          	jal	x1,80001ddc <strlen>
8000b958:	02a12023          	sw	x10,32(x2)
8000b95c:	000a8513          	addi	x10,x21,0
8000b960:	a6dfa0ef          	jal	x1,800063cc <_localeconv_r>
8000b964:	00852783          	lw	x15,8(x10)
8000b968:	02012703          	lw	x14,32(x2)
8000b96c:	0004c683          	lbu	x13,0(x9)
8000b970:	00f12823          	sw	x15,16(x2)
8000b974:	01412783          	lw	x15,20(x2)
8000b978:	8e0700e3          	beq	x14,x0,8000b258 <_vfiprintf_r+0x164>
8000b97c:	01012703          	lw	x14,16(x2)
8000b980:	8c070ce3          	beq	x14,x0,8000b258 <_vfiprintf_r+0x164>
8000b984:	00074703          	lbu	x14,0(x14)
8000b988:	8c0708e3          	beq	x14,x0,8000b258 <_vfiprintf_r+0x164>
8000b98c:	400d6d13          	ori	x26,x26,1024
8000b990:	8c9ff06f          	jal	x0,8000b258 <_vfiprintf_r+0x164>
8000b994:	0004c683          	lbu	x13,0(x9)
8000b998:	080d6d13          	ori	x26,x26,128
8000b99c:	8bdff06f          	jal	x0,8000b258 <_vfiprintf_r+0x164>
8000b9a0:	0004c683          	lbu	x13,0(x9)
8000b9a4:	02a00713          	addi	x14,x0,42
8000b9a8:	00148593          	addi	x11,x9,1
8000b9ac:	26e686e3          	beq	x13,x14,8000c418 <_vfiprintf_r+0x1324>
8000b9b0:	fd068713          	addi	x14,x13,-48
8000b9b4:	00900513          	addi	x10,x0,9
8000b9b8:	00000413          	addi	x8,x0,0
8000b9bc:	02e56463          	bltu	x10,x14,8000b9e4 <_vfiprintf_r+0x8f0>
8000b9c0:	00241613          	slli	x12,x8,0x2
8000b9c4:	0005c683          	lbu	x13,0(x11)
8000b9c8:	00860433          	add	x8,x12,x8
8000b9cc:	00141413          	slli	x8,x8,0x1
8000b9d0:	00e40433          	add	x8,x8,x14
8000b9d4:	fd068713          	addi	x14,x13,-48
8000b9d8:	00158593          	addi	x11,x11,1
8000b9dc:	fee572e3          	bgeu	x10,x14,8000b9c0 <_vfiprintf_r+0x8cc>
8000b9e0:	5e044863          	blt	x8,x0,8000bfd0 <_vfiprintf_r+0xedc>
8000b9e4:	00058493          	addi	x9,x11,0
8000b9e8:	875ff06f          	jal	x0,8000b25c <_vfiprintf_r+0x168>
8000b9ec:	0004c683          	lbu	x13,0(x9)
8000b9f0:	001d6d13          	ori	x26,x26,1
8000b9f4:	865ff06f          	jal	x0,8000b258 <_vfiprintf_r+0x164>
8000b9f8:	03b14703          	lbu	x14,59(x2)
8000b9fc:	0004c683          	lbu	x13,0(x9)
8000ba00:	84071ce3          	bne	x14,x0,8000b258 <_vfiprintf_r+0x164>
8000ba04:	02000713          	addi	x14,x0,32
8000ba08:	02e10da3          	sb	x14,59(x2)
8000ba0c:	84dff06f          	jal	x0,8000b258 <_vfiprintf_r+0x164>
8000ba10:	00008737          	lui	x14,0x8
8000ba14:	83070713          	addi	x14,x14,-2000 # 7830 <_start-0x7fff87d0>
8000ba18:	02e11e23          	sh	x14,60(x2)
8000ba1c:	02010da3          	sb	x0,59(x2)
8000ba20:	000a2703          	lw	x14,0(x20)
8000ba24:	004a0693          	addi	x13,x20,4
8000ba28:	00000613          	addi	x12,x0,0
8000ba2c:	52044c63          	blt	x8,x0,8000bf64 <_vfiprintf_r+0xe70>
8000ba30:	f7fd7d13          	andi	x26,x26,-129
8000ba34:	002d6d13          	ori	x26,x26,2
8000ba38:	200712e3          	bne	x14,x0,8000c43c <_vfiprintf_r+0x1348>
8000ba3c:	200410e3          	bne	x8,x0,8000c43c <_vfiprintf_r+0x1348>
8000ba40:	00068a13          	addi	x20,x13,0
8000ba44:	00000313          	addi	x6,x0,0
8000ba48:	00000813          	addi	x16,x0,0
8000ba4c:	0f010d93          	addi	x27,x2,240
8000ba50:	04812583          	lw	x11,72(x2)
8000ba54:	04412603          	lw	x12,68(x2)
8000ba58:	084d7893          	andi	x17,x26,132
8000ba5c:	00280813          	addi	x16,x16,2
8000ba60:	00058693          	addi	x13,x11,0
8000ba64:	00060713          	addi	x14,x12,0
8000ba68:	8c0890e3          	bne	x17,x0,8000b328 <_vfiprintf_r+0x234>
8000ba6c:	410c8e33          	sub	x28,x25,x16
8000ba70:	8bc05ce3          	bge	x0,x28,8000b328 <_vfiprintf_r+0x234>
8000ba74:	00200e93          	addi	x29,x0,2
8000ba78:	32c0006f          	jal	x0,8000bda4 <_vfiprintf_r+0xcb0>
8000ba7c:	020d7713          	andi	x14,x26,32
8000ba80:	4c071e63          	bne	x14,x0,8000bf5c <_vfiprintf_r+0xe68>
8000ba84:	010d7693          	andi	x13,x26,16
8000ba88:	000a2703          	lw	x14,0(x20)
8000ba8c:	004a0593          	addi	x11,x20,4
8000ba90:	4a069263          	bne	x13,x0,8000bf34 <_vfiprintf_r+0xe40>
8000ba94:	040d7693          	andi	x13,x26,64
8000ba98:	76068463          	beq	x13,x0,8000c200 <_vfiprintf_r+0x110c>
8000ba9c:	01071713          	slli	x14,x14,0x10
8000baa0:	01075713          	srli	x14,x14,0x10
8000baa4:	00058a13          	addi	x20,x11,0
8000baa8:	000d0813          	addi	x16,x26,0
8000baac:	00000613          	addi	x12,x0,0
8000bab0:	cc1ff06f          	jal	x0,8000b770 <_vfiprintf_r+0x67c>
8000bab4:	020d7713          	andi	x14,x26,32
8000bab8:	004a0693          	addi	x13,x20,4
8000babc:	40071a63          	bne	x14,x0,8000bed0 <_vfiprintf_r+0xddc>
8000bac0:	010d7713          	andi	x14,x26,16
8000bac4:	6e071863          	bne	x14,x0,8000c1b4 <_vfiprintf_r+0x10c0>
8000bac8:	040d7713          	andi	x14,x26,64
8000bacc:	76071863          	bne	x14,x0,8000c23c <_vfiprintf_r+0x1148>
8000bad0:	200d7d13          	andi	x26,x26,512
8000bad4:	6e0d0063          	beq	x26,x0,8000c1b4 <_vfiprintf_r+0x10c0>
8000bad8:	000a2703          	lw	x14,0(x20)
8000badc:	00068a13          	addi	x20,x13,0
8000bae0:	01870023          	sb	x24,0(x14)
8000bae4:	eecff06f          	jal	x0,8000b1d0 <_vfiprintf_r+0xdc>
8000bae8:	0004c683          	lbu	x13,0(x9)
8000baec:	06c00713          	addi	x14,x0,108
8000baf0:	6ae68a63          	beq	x13,x14,8000c1a4 <_vfiprintf_r+0x10b0>
8000baf4:	010d6d13          	ori	x26,x26,16
8000baf8:	f60ff06f          	jal	x0,8000b258 <_vfiprintf_r+0x164>
8000bafc:	410c88b3          	sub	x17,x25,x16
8000bb00:	85105ee3          	bge	x0,x17,8000b35c <_vfiprintf_r+0x268>
8000bb04:	01000e13          	addi	x28,x0,16
8000bb08:	0f1e5ce3          	bge	x28,x17,8000c400 <_vfiprintf_r+0x130c>
8000bb0c:	00812c23          	sw	x8,24(x2)
8000bb10:	02912423          	sw	x9,40(x2)
8000bb14:	00700f13          	addi	x30,x0,7
8000bb18:	01012a23          	sw	x16,20(x2)
8000bb1c:	00088413          	addi	x8,x17,0
8000bb20:	00612e23          	sw	x6,28(x2)
8000bb24:	f4018493          	addi	x9,x3,-192 # 80011c10 <zeroes.0>
8000bb28:	00c0006f          	jal	x0,8000bb34 <_vfiprintf_r+0xa40>
8000bb2c:	ff040413          	addi	x8,x8,-16
8000bb30:	048e5a63          	bge	x28,x8,8000bb84 <_vfiprintf_r+0xa90>
8000bb34:	01068693          	addi	x13,x13,16
8000bb38:	00170713          	addi	x14,x14,1
8000bb3c:	0097a023          	sw	x9,0(x15)
8000bb40:	01c7a223          	sw	x28,4(x15)
8000bb44:	04d12423          	sw	x13,72(x2)
8000bb48:	04e12223          	sw	x14,68(x2)
8000bb4c:	00878793          	addi	x15,x15,8
8000bb50:	fcef5ee3          	bge	x30,x14,8000bb2c <_vfiprintf_r+0xa38>
8000bb54:	04010613          	addi	x12,x2,64
8000bb58:	00098593          	addi	x11,x19,0
8000bb5c:	000a8513          	addi	x10,x21,0
8000bb60:	fdcf90ef          	jal	x1,8000533c <__sprint_r>
8000bb64:	8e0510e3          	bne	x10,x0,8000b444 <_vfiprintf_r+0x350>
8000bb68:	01000e13          	addi	x28,x0,16
8000bb6c:	ff040413          	addi	x8,x8,-16
8000bb70:	04812683          	lw	x13,72(x2)
8000bb74:	04412703          	lw	x14,68(x2)
8000bb78:	000b0793          	addi	x15,x22,0
8000bb7c:	00700f13          	addi	x30,x0,7
8000bb80:	fa8e4ae3          	blt	x28,x8,8000bb34 <_vfiprintf_r+0xa40>
8000bb84:	00040893          	addi	x17,x8,0
8000bb88:	00048e93          	addi	x29,x9,0
8000bb8c:	01412803          	lw	x16,20(x2)
8000bb90:	01812403          	lw	x8,24(x2)
8000bb94:	01c12303          	lw	x6,28(x2)
8000bb98:	02812483          	lw	x9,40(x2)
8000bb9c:	011686b3          	add	x13,x13,x17
8000bba0:	00170713          	addi	x14,x14,1
8000bba4:	01d7a023          	sw	x29,0(x15)
8000bba8:	0117a223          	sw	x17,4(x15)
8000bbac:	04d12423          	sw	x13,72(x2)
8000bbb0:	04e12223          	sw	x14,68(x2)
8000bbb4:	00700613          	addi	x12,x0,7
8000bbb8:	00878793          	addi	x15,x15,8
8000bbbc:	fae65063          	bge	x12,x14,8000b35c <_vfiprintf_r+0x268>
8000bbc0:	04010613          	addi	x12,x2,64
8000bbc4:	00098593          	addi	x11,x19,0
8000bbc8:	000a8513          	addi	x10,x21,0
8000bbcc:	00612c23          	sw	x6,24(x2)
8000bbd0:	01012a23          	sw	x16,20(x2)
8000bbd4:	f68f90ef          	jal	x1,8000533c <__sprint_r>
8000bbd8:	860516e3          	bne	x10,x0,8000b444 <_vfiprintf_r+0x350>
8000bbdc:	01812303          	lw	x6,24(x2)
8000bbe0:	04812683          	lw	x13,72(x2)
8000bbe4:	04412703          	lw	x14,68(x2)
8000bbe8:	40640433          	sub	x8,x8,x6
8000bbec:	01412803          	lw	x16,20(x2)
8000bbf0:	000b0793          	addi	x15,x22,0
8000bbf4:	f6805863          	bge	x0,x8,8000b364 <_vfiprintf_r+0x270>
8000bbf8:	f4018e93          	addi	x29,x3,-192 # 80011c10 <zeroes.0>
8000bbfc:	06895c63          	bge	x18,x8,8000bc74 <_vfiprintf_r+0xb80>
8000bc00:	00700893          	addi	x17,x0,7
8000bc04:	01012a23          	sw	x16,20(x2)
8000bc08:	00612c23          	sw	x6,24(x2)
8000bc0c:	01712e23          	sw	x23,28(x2)
8000bc10:	00c0006f          	jal	x0,8000bc1c <_vfiprintf_r+0xb28>
8000bc14:	ff040413          	addi	x8,x8,-16
8000bc18:	04895863          	bge	x18,x8,8000bc68 <_vfiprintf_r+0xb74>
8000bc1c:	01068693          	addi	x13,x13,16
8000bc20:	00170713          	addi	x14,x14,1
8000bc24:	0177a023          	sw	x23,0(x15)
8000bc28:	0127a223          	sw	x18,4(x15)
8000bc2c:	04d12423          	sw	x13,72(x2)
8000bc30:	04e12223          	sw	x14,68(x2)
8000bc34:	00878793          	addi	x15,x15,8
8000bc38:	fce8dee3          	bge	x17,x14,8000bc14 <_vfiprintf_r+0xb20>
8000bc3c:	04010613          	addi	x12,x2,64
8000bc40:	00098593          	addi	x11,x19,0
8000bc44:	000a8513          	addi	x10,x21,0
8000bc48:	ef4f90ef          	jal	x1,8000533c <__sprint_r>
8000bc4c:	fe051c63          	bne	x10,x0,8000b444 <_vfiprintf_r+0x350>
8000bc50:	ff040413          	addi	x8,x8,-16
8000bc54:	04812683          	lw	x13,72(x2)
8000bc58:	04412703          	lw	x14,68(x2)
8000bc5c:	000b0793          	addi	x15,x22,0
8000bc60:	00700893          	addi	x17,x0,7
8000bc64:	fa894ce3          	blt	x18,x8,8000bc1c <_vfiprintf_r+0xb28>
8000bc68:	01412803          	lw	x16,20(x2)
8000bc6c:	01812303          	lw	x6,24(x2)
8000bc70:	01c12e83          	lw	x29,28(x2)
8000bc74:	008686b3          	add	x13,x13,x8
8000bc78:	00170713          	addi	x14,x14,1
8000bc7c:	01d7a023          	sw	x29,0(x15)
8000bc80:	0087a223          	sw	x8,4(x15)
8000bc84:	04d12423          	sw	x13,72(x2)
8000bc88:	04e12223          	sw	x14,68(x2)
8000bc8c:	00700613          	addi	x12,x0,7
8000bc90:	00878793          	addi	x15,x15,8
8000bc94:	ece65863          	bge	x12,x14,8000b364 <_vfiprintf_r+0x270>
8000bc98:	04010613          	addi	x12,x2,64
8000bc9c:	00098593          	addi	x11,x19,0
8000bca0:	000a8513          	addi	x10,x21,0
8000bca4:	00612c23          	sw	x6,24(x2)
8000bca8:	01012a23          	sw	x16,20(x2)
8000bcac:	e90f90ef          	jal	x1,8000533c <__sprint_r>
8000bcb0:	f8051a63          	bne	x10,x0,8000b444 <_vfiprintf_r+0x350>
8000bcb4:	04812683          	lw	x13,72(x2)
8000bcb8:	04412703          	lw	x14,68(x2)
8000bcbc:	01812303          	lw	x6,24(x2)
8000bcc0:	01412803          	lw	x16,20(x2)
8000bcc4:	000b0793          	addi	x15,x22,0
8000bcc8:	e9cff06f          	jal	x0,8000b364 <_vfiprintf_r+0x270>
8000bccc:	04010613          	addi	x12,x2,64
8000bcd0:	00098593          	addi	x11,x19,0
8000bcd4:	000a8513          	addi	x10,x21,0
8000bcd8:	01012a23          	sw	x16,20(x2)
8000bcdc:	e60f90ef          	jal	x1,8000533c <__sprint_r>
8000bce0:	f6051263          	bne	x10,x0,8000b444 <_vfiprintf_r+0x350>
8000bce4:	04812683          	lw	x13,72(x2)
8000bce8:	01412803          	lw	x16,20(x2)
8000bcec:	000b0793          	addi	x15,x22,0
8000bcf0:	e98ff06f          	jal	x0,8000b388 <_vfiprintf_r+0x294>
8000bcf4:	04010613          	addi	x12,x2,64
8000bcf8:	00098593          	addi	x11,x19,0
8000bcfc:	000a8513          	addi	x10,x21,0
8000bd00:	e3cf90ef          	jal	x1,8000533c <__sprint_r>
8000bd04:	ea050263          	beq	x10,x0,8000b3a8 <_vfiprintf_r+0x2b4>
8000bd08:	f3cff06f          	jal	x0,8000b444 <_vfiprintf_r+0x350>
8000bd0c:	04010613          	addi	x12,x2,64
8000bd10:	00098593          	addi	x11,x19,0
8000bd14:	000a8513          	addi	x10,x21,0
8000bd18:	00612e23          	sw	x6,28(x2)
8000bd1c:	01112c23          	sw	x17,24(x2)
8000bd20:	01012a23          	sw	x16,20(x2)
8000bd24:	e18f90ef          	jal	x1,8000533c <__sprint_r>
8000bd28:	f0051e63          	bne	x10,x0,8000b444 <_vfiprintf_r+0x350>
8000bd2c:	04812683          	lw	x13,72(x2)
8000bd30:	04412703          	lw	x14,68(x2)
8000bd34:	01c12303          	lw	x6,28(x2)
8000bd38:	01812883          	lw	x17,24(x2)
8000bd3c:	01412803          	lw	x16,20(x2)
8000bd40:	000b0793          	addi	x15,x22,0
8000bd44:	e10ff06f          	jal	x0,8000b354 <_vfiprintf_r+0x260>
8000bd48:	0f010d93          	addi	x27,x2,240
8000bd4c:	01d61593          	slli	x11,x12,0x1d
8000bd50:	00777693          	andi	x13,x14,7
8000bd54:	00375713          	srli	x14,x14,0x3
8000bd58:	000d8513          	addi	x10,x27,0
8000bd5c:	00e58733          	add	x14,x11,x14
8000bd60:	03068693          	addi	x13,x13,48
8000bd64:	00365613          	srli	x12,x12,0x3
8000bd68:	00c765b3          	or	x11,x14,x12
8000bd6c:	fedd8fa3          	sb	x13,-1(x27)
8000bd70:	fffd8d93          	addi	x27,x27,-1
8000bd74:	fc059ce3          	bne	x11,x0,8000bd4c <_vfiprintf_r+0xc58>
8000bd78:	fd068693          	addi	x13,x13,-48
8000bd7c:	00068663          	beq	x13,x0,8000bd88 <_vfiprintf_r+0xc94>
8000bd80:	001d7713          	andi	x14,x26,1
8000bd84:	12071263          	bne	x14,x0,8000bea8 <_vfiprintf_r+0xdb4>
8000bd88:	0f010713          	addi	x14,x2,240
8000bd8c:	41b70333          	sub	x6,x14,x27
8000bd90:	00040813          	addi	x16,x8,0
8000bd94:	d2645a63          	bge	x8,x6,8000b2c8 <_vfiprintf_r+0x1d4>
8000bd98:	00030813          	addi	x16,x6,0
8000bd9c:	d2cff06f          	jal	x0,8000b2c8 <_vfiprintf_r+0x1d4>
8000bda0:	00000e93          	addi	x29,x0,0
8000bda4:	01000f93          	addi	x31,x0,16
8000bda8:	00058693          	addi	x13,x11,0
8000bdac:	00060713          	addi	x14,x12,0
8000bdb0:	65cfd063          	bge	x31,x28,8000c3f0 <_vfiprintf_r+0x12fc>
8000bdb4:	00812e23          	sw	x8,28(x2)
8000bdb8:	02912623          	sw	x9,44(x2)
8000bdbc:	00700f13          	addi	x30,x0,7
8000bdc0:	01012a23          	sw	x16,20(x2)
8000bdc4:	01d12c23          	sw	x29,24(x2)
8000bdc8:	000e0413          	addi	x8,x28,0
8000bdcc:	02612423          	sw	x6,40(x2)
8000bdd0:	f5018493          	addi	x9,x3,-176 # 80011c20 <blanks.1>
8000bdd4:	00c0006f          	jal	x0,8000bde0 <_vfiprintf_r+0xcec>
8000bdd8:	ff040413          	addi	x8,x8,-16
8000bddc:	048fda63          	bge	x31,x8,8000be30 <_vfiprintf_r+0xd3c>
8000bde0:	01068693          	addi	x13,x13,16
8000bde4:	00170713          	addi	x14,x14,1
8000bde8:	0097a023          	sw	x9,0(x15)
8000bdec:	01f7a223          	sw	x31,4(x15)
8000bdf0:	04d12423          	sw	x13,72(x2)
8000bdf4:	04e12223          	sw	x14,68(x2)
8000bdf8:	00878793          	addi	x15,x15,8
8000bdfc:	fcef5ee3          	bge	x30,x14,8000bdd8 <_vfiprintf_r+0xce4>
8000be00:	04010613          	addi	x12,x2,64
8000be04:	00098593          	addi	x11,x19,0
8000be08:	000a8513          	addi	x10,x21,0
8000be0c:	d30f90ef          	jal	x1,8000533c <__sprint_r>
8000be10:	e2051a63          	bne	x10,x0,8000b444 <_vfiprintf_r+0x350>
8000be14:	01000f93          	addi	x31,x0,16
8000be18:	ff040413          	addi	x8,x8,-16
8000be1c:	04812683          	lw	x13,72(x2)
8000be20:	04412703          	lw	x14,68(x2)
8000be24:	000b0793          	addi	x15,x22,0
8000be28:	00700f13          	addi	x30,x0,7
8000be2c:	fa8fcae3          	blt	x31,x8,8000bde0 <_vfiprintf_r+0xcec>
8000be30:	00040e13          	addi	x28,x8,0
8000be34:	00048893          	addi	x17,x9,0
8000be38:	01412803          	lw	x16,20(x2)
8000be3c:	01812e83          	lw	x29,24(x2)
8000be40:	01c12403          	lw	x8,28(x2)
8000be44:	02812303          	lw	x6,40(x2)
8000be48:	02c12483          	lw	x9,44(x2)
8000be4c:	00de06b3          	add	x13,x28,x13
8000be50:	00170713          	addi	x14,x14,1
8000be54:	04d12423          	sw	x13,72(x2)
8000be58:	04e12223          	sw	x14,68(x2)
8000be5c:	0117a023          	sw	x17,0(x15)
8000be60:	01c7a223          	sw	x28,4(x15)
8000be64:	00700613          	addi	x12,x0,7
8000be68:	28e64263          	blt	x12,x14,8000c0ec <_vfiprintf_r+0xff8>
8000be6c:	03b14603          	lbu	x12,59(x2)
8000be70:	00878793          	addi	x15,x15,8
8000be74:	02061663          	bne	x12,x0,8000bea0 <_vfiprintf_r+0xdac>
8000be78:	ce0e8263          	beq	x29,x0,8000b35c <_vfiprintf_r+0x268>
8000be7c:	00000893          	addi	x17,x0,0
8000be80:	ca8ff06f          	jal	x0,8000b328 <_vfiprintf_r+0x234>
8000be84:	0004c683          	lbu	x13,0(x9)
8000be88:	004a0a13          	addi	x20,x20,4
8000be8c:	bccff06f          	jal	x0,8000b258 <_vfiprintf_r+0x164>
8000be90:	00180813          	addi	x16,x16,1
8000be94:	00100313          	addi	x6,x0,1
8000be98:	0ef10d93          	addi	x27,x2,239
8000be9c:	f6cff06f          	jal	x0,8000b608 <_vfiprintf_r+0x514>
8000bea0:	00000893          	addi	x17,x0,0
8000bea4:	c54ff06f          	jal	x0,8000b2f8 <_vfiprintf_r+0x204>
8000bea8:	ffe50513          	addi	x10,x10,-2
8000beac:	03000713          	addi	x14,x0,48
8000beb0:	0f010693          	addi	x13,x2,240
8000beb4:	40a68333          	sub	x6,x13,x10
8000beb8:	feed8fa3          	sb	x14,-1(x27)
8000bebc:	00040813          	addi	x16,x8,0
8000bec0:	00645463          	bge	x8,x6,8000bec8 <_vfiprintf_r+0xdd4>
8000bec4:	00030813          	addi	x16,x6,0
8000bec8:	00050d93          	addi	x27,x10,0
8000becc:	bfcff06f          	jal	x0,8000b2c8 <_vfiprintf_r+0x1d4>
8000bed0:	000a2703          	lw	x14,0(x20)
8000bed4:	41fc5613          	srai	x12,x24,0x1f
8000bed8:	00068a13          	addi	x20,x13,0
8000bedc:	01872023          	sw	x24,0(x14)
8000bee0:	00c72223          	sw	x12,4(x14)
8000bee4:	aecff06f          	jal	x0,8000b1d0 <_vfiprintf_r+0xdc>
8000bee8:	010d7813          	andi	x16,x26,16
8000beec:	000a2883          	lw	x17,0(x20)
8000bef0:	004a0593          	addi	x11,x20,4
8000bef4:	8c081ce3          	bne	x16,x0,8000b7cc <_vfiprintf_r+0x6d8>
8000bef8:	040d7713          	andi	x14,x26,64
8000befc:	1a070a63          	beq	x14,x0,8000c0b0 <_vfiprintf_r+0xfbc>
8000bf00:	01089893          	slli	x17,x17,0x10
8000bf04:	02010da3          	sb	x0,59(x2)
8000bf08:	0108d893          	srli	x17,x17,0x10
8000bf0c:	00000693          	addi	x13,x0,0
8000bf10:	1a044c63          	blt	x8,x0,8000c0c8 <_vfiprintf_r+0xfd4>
8000bf14:	f7fd7d13          	andi	x26,x26,-129
8000bf18:	1a041863          	bne	x8,x0,8000c0c8 <_vfiprintf_r+0xfd4>
8000bf1c:	00d8e733          	or	x14,x17,x13
8000bf20:	1a071463          	bne	x14,x0,8000c0c8 <_vfiprintf_r+0xfd4>
8000bf24:	00058a13          	addi	x20,x11,0
8000bf28:	00000313          	addi	x6,x0,0
8000bf2c:	0f010d93          	addi	x27,x2,240
8000bf30:	b98ff06f          	jal	x0,8000b2c8 <_vfiprintf_r+0x1d4>
8000bf34:	000d0813          	addi	x16,x26,0
8000bf38:	000a2703          	lw	x14,0(x20)
8000bf3c:	00000613          	addi	x12,x0,0
8000bf40:	00058a13          	addi	x20,x11,0
8000bf44:	82dff06f          	jal	x0,8000b770 <_vfiprintf_r+0x67c>
8000bf48:	000a2883          	lw	x17,0(x20)
8000bf4c:	00058a13          	addi	x20,x11,0
8000bf50:	41f8d693          	srai	x13,x17,0x1f
8000bf54:	00068613          	addi	x12,x13,0
8000bf58:	e80ff06f          	jal	x0,8000b5d8 <_vfiprintf_r+0x4e4>
8000bf5c:	000d0813          	addi	x16,x26,0
8000bf60:	ffcff06f          	jal	x0,8000b75c <_vfiprintf_r+0x668>
8000bf64:	002d6d13          	ori	x26,x26,2
8000bf68:	00068a13          	addi	x20,x13,0
8000bf6c:	87018513          	addi	x10,x3,-1936 # 80011540 <__clz_tab+0x114>
8000bf70:	00200593          	addi	x11,x0,2
8000bf74:	0f010d93          	addi	x27,x2,240
8000bf78:	00f77693          	andi	x13,x14,15
8000bf7c:	00d506b3          	add	x13,x10,x13
8000bf80:	0006c683          	lbu	x13,0(x13)
8000bf84:	01c61813          	slli	x16,x12,0x1c
8000bf88:	00475713          	srli	x14,x14,0x4
8000bf8c:	00e80733          	add	x14,x16,x14
8000bf90:	00465613          	srli	x12,x12,0x4
8000bf94:	fedd8fa3          	sb	x13,-1(x27)
8000bf98:	00c766b3          	or	x13,x14,x12
8000bf9c:	fffd8d93          	addi	x27,x27,-1
8000bfa0:	fc069ce3          	bne	x13,x0,8000bf78 <_vfiprintf_r+0xe84>
8000bfa4:	0f010713          	addi	x14,x2,240
8000bfa8:	41b70333          	sub	x6,x14,x27
8000bfac:	00040813          	addi	x16,x8,0
8000bfb0:	00645463          	bge	x8,x6,8000bfb8 <_vfiprintf_r+0xec4>
8000bfb4:	00030813          	addi	x16,x6,0
8000bfb8:	a8059ce3          	bne	x11,x0,8000ba50 <_vfiprintf_r+0x95c>
8000bfbc:	06c0006f          	jal	x0,8000c028 <_vfiprintf_r+0xf34>
8000bfc0:	00000313          	addi	x6,x0,0
8000bfc4:	00000413          	addi	x8,x0,0
8000bfc8:	0f010d93          	addi	x27,x2,240
8000bfcc:	afcff06f          	jal	x0,8000b2c8 <_vfiprintf_r+0x1d4>
8000bfd0:	fff00413          	addi	x8,x0,-1
8000bfd4:	00058493          	addi	x9,x11,0
8000bfd8:	a84ff06f          	jal	x0,8000b25c <_vfiprintf_r+0x168>
8000bfdc:	020d7713          	andi	x14,x26,32
8000bfe0:	88418513          	addi	x10,x3,-1916 # 80011554 <__clz_tab+0x128>
8000bfe4:	06070c63          	beq	x14,x0,8000c05c <_vfiprintf_r+0xf68>
8000bfe8:	007a0613          	addi	x12,x20,7
8000bfec:	ff867613          	andi	x12,x12,-8
8000bff0:	00062703          	lw	x14,0(x12)
8000bff4:	00860a13          	addi	x20,x12,8
8000bff8:	00462603          	lw	x12,4(x12)
8000bffc:	001d7593          	andi	x11,x26,1
8000c000:	00c76833          	or	x16,x14,x12
8000c004:	00058463          	beq	x11,x0,8000c00c <_vfiprintf_r+0xf18>
8000c008:	12081863          	bne	x16,x0,8000c138 <_vfiprintf_r+0x1044>
8000c00c:	02010da3          	sb	x0,59(x2)
8000c010:	0c044863          	blt	x8,x0,8000c0e0 <_vfiprintf_r+0xfec>
8000c014:	b7fd7d13          	andi	x26,x26,-1153
8000c018:	40041e63          	bne	x8,x0,8000c434 <_vfiprintf_r+0x1340>
8000c01c:	40081c63          	bne	x16,x0,8000c434 <_vfiprintf_r+0x1340>
8000c020:	00000313          	addi	x6,x0,0
8000c024:	0f010d93          	addi	x27,x2,240
8000c028:	04812683          	lw	x13,72(x2)
8000c02c:	04412703          	lw	x14,68(x2)
8000c030:	084d7893          	andi	x17,x26,132
8000c034:	00068593          	addi	x11,x13,0
8000c038:	00070613          	addi	x12,x14,0
8000c03c:	aa088263          	beq	x17,x0,8000b2e0 <_vfiprintf_r+0x1ec>
8000c040:	03b14603          	lbu	x12,59(x2)
8000c044:	00000e93          	addi	x29,x0,0
8000c048:	aa061863          	bne	x12,x0,8000b2f8 <_vfiprintf_r+0x204>
8000c04c:	b08ff06f          	jal	x0,8000b354 <_vfiprintf_r+0x260>
8000c050:	020d7713          	andi	x14,x26,32
8000c054:	87018513          	addi	x10,x3,-1936 # 80011540 <__clz_tab+0x114>
8000c058:	f80718e3          	bne	x14,x0,8000bfe8 <_vfiprintf_r+0xef4>
8000c05c:	010d7613          	andi	x12,x26,16
8000c060:	000a2703          	lw	x14,0(x20)
8000c064:	004a0a13          	addi	x20,x20,4
8000c068:	06061863          	bne	x12,x0,8000c0d8 <_vfiprintf_r+0xfe4>
8000c06c:	040d7613          	andi	x12,x26,64
8000c070:	06060063          	beq	x12,x0,8000c0d0 <_vfiprintf_r+0xfdc>
8000c074:	01071713          	slli	x14,x14,0x10
8000c078:	01075713          	srli	x14,x14,0x10
8000c07c:	00000613          	addi	x12,x0,0
8000c080:	f7dff06f          	jal	x0,8000bffc <_vfiprintf_r+0xf08>
8000c084:	000d8513          	addi	x10,x27,0
8000c088:	d55f50ef          	jal	x1,80001ddc <strlen>
8000c08c:	03b14703          	lbu	x14,59(x2)
8000c090:	fff54813          	xori	x16,x10,-1
8000c094:	41f85813          	srai	x16,x16,0x1f
8000c098:	01412783          	lw	x15,20(x2)
8000c09c:	00050313          	addi	x6,x10,0
8000c0a0:	01057833          	and	x16,x10,x16
8000c0a4:	dc071663          	bne	x14,x0,8000b670 <_vfiprintf_r+0x57c>
8000c0a8:	00000413          	addi	x8,x0,0
8000c0ac:	a1cff06f          	jal	x0,8000b2c8 <_vfiprintf_r+0x1d4>
8000c0b0:	200d7713          	andi	x14,x26,512
8000c0b4:	02010da3          	sb	x0,59(x2)
8000c0b8:	1c070063          	beq	x14,x0,8000c278 <_vfiprintf_r+0x1184>
8000c0bc:	0ff8f893          	andi	x17,x17,255
8000c0c0:	00000693          	addi	x13,x0,0
8000c0c4:	e40458e3          	bge	x8,x0,8000bf14 <_vfiprintf_r+0xe20>
8000c0c8:	00058a13          	addi	x20,x11,0
8000c0cc:	e20ff06f          	jal	x0,8000b6ec <_vfiprintf_r+0x5f8>
8000c0d0:	200d7613          	andi	x12,x26,512
8000c0d4:	18061463          	bne	x12,x0,8000c25c <_vfiprintf_r+0x1168>
8000c0d8:	00000613          	addi	x12,x0,0
8000c0dc:	f21ff06f          	jal	x0,8000bffc <_vfiprintf_r+0xf08>
8000c0e0:	bffd7d13          	andi	x26,x26,-1025
8000c0e4:	00000593          	addi	x11,x0,0
8000c0e8:	e8dff06f          	jal	x0,8000bf74 <_vfiprintf_r+0xe80>
8000c0ec:	04010613          	addi	x12,x2,64
8000c0f0:	00098593          	addi	x11,x19,0
8000c0f4:	000a8513          	addi	x10,x21,0
8000c0f8:	00612e23          	sw	x6,28(x2)
8000c0fc:	01d12c23          	sw	x29,24(x2)
8000c100:	01012a23          	sw	x16,20(x2)
8000c104:	a38f90ef          	jal	x1,8000533c <__sprint_r>
8000c108:	00050893          	addi	x17,x10,0
8000c10c:	b2051c63          	bne	x10,x0,8000b444 <_vfiprintf_r+0x350>
8000c110:	03b14783          	lbu	x15,59(x2)
8000c114:	04812683          	lw	x13,72(x2)
8000c118:	04412703          	lw	x14,68(x2)
8000c11c:	01412803          	lw	x16,20(x2)
8000c120:	01812e83          	lw	x29,24(x2)
8000c124:	01c12303          	lw	x6,28(x2)
8000c128:	0e079a63          	bne	x15,x0,8000c21c <_vfiprintf_r+0x1128>
8000c12c:	000b0793          	addi	x15,x22,0
8000c130:	9e0e9c63          	bne	x29,x0,8000b328 <_vfiprintf_r+0x234>
8000c134:	a28ff06f          	jal	x0,8000b35c <_vfiprintf_r+0x268>
8000c138:	02d10ea3          	sb	x13,61(x2)
8000c13c:	03000693          	addi	x13,x0,48
8000c140:	02010da3          	sb	x0,59(x2)
8000c144:	02d10e23          	sb	x13,60(x2)
8000c148:	0c044e63          	blt	x8,x0,8000c224 <_vfiprintf_r+0x1130>
8000c14c:	b7fd7d13          	andi	x26,x26,-1153
8000c150:	002d6d13          	ori	x26,x26,2
8000c154:	00200593          	addi	x11,x0,2
8000c158:	e1dff06f          	jal	x0,8000bf74 <_vfiprintf_r+0xe80>
8000c15c:	14069063          	bne	x13,x0,8000c29c <_vfiprintf_r+0x11a8>
8000c160:	00900713          	addi	x14,x0,9
8000c164:	13176c63          	bltu	x14,x17,8000c29c <_vfiprintf_r+0x11a8>
8000c168:	0f010713          	addi	x14,x2,240
8000c16c:	41b70333          	sub	x6,x14,x27
8000c170:	00040813          	addi	x16,x8,0
8000c174:	03b14703          	lbu	x14,59(x2)
8000c178:	00645463          	bge	x8,x6,8000c180 <_vfiprintf_r+0x108c>
8000c17c:	00030813          	addi	x16,x6,0
8000c180:	00e03733          	sltu	x14,x0,x14
8000c184:	00e80833          	add	x16,x16,x14
8000c188:	ea1ff06f          	jal	x0,8000c028 <_vfiprintf_r+0xf34>
8000c18c:	865f90ef          	jal	x1,800059f0 <__sinit>
8000c190:	fa1fe06f          	jal	x0,8000b130 <_vfiprintf_r+0x3c>
8000c194:	0014c683          	lbu	x13,1(x9)
8000c198:	200d6d13          	ori	x26,x26,512
8000c19c:	00148493          	addi	x9,x9,1
8000c1a0:	8b8ff06f          	jal	x0,8000b258 <_vfiprintf_r+0x164>
8000c1a4:	0014c683          	lbu	x13,1(x9)
8000c1a8:	020d6d13          	ori	x26,x26,32
8000c1ac:	00148493          	addi	x9,x9,1
8000c1b0:	8a8ff06f          	jal	x0,8000b258 <_vfiprintf_r+0x164>
8000c1b4:	000a2703          	lw	x14,0(x20)
8000c1b8:	00068a13          	addi	x20,x13,0
8000c1bc:	01872023          	sw	x24,0(x14)
8000c1c0:	810ff06f          	jal	x0,8000b1d0 <_vfiprintf_r+0xdc>
8000c1c4:	00600713          	addi	x14,x0,6
8000c1c8:	00040813          	addi	x16,x8,0
8000c1cc:	06876463          	bltu	x14,x8,8000c234 <_vfiprintf_r+0x1140>
8000c1d0:	89818d93          	addi	x27,x3,-1896 # 80011568 <__clz_tab+0x13c>
8000c1d4:	00080313          	addi	x6,x16,0
8000c1d8:	00000413          	addi	x8,x0,0
8000c1dc:	8ecff06f          	jal	x0,8000b2c8 <_vfiprintf_r+0x1d4>
8000c1e0:	200d7713          	andi	x14,x26,512
8000c1e4:	08070263          	beq	x14,x0,8000c268 <_vfiprintf_r+0x1174>
8000c1e8:	01889893          	slli	x17,x17,0x18
8000c1ec:	4188d893          	srai	x17,x17,0x18
8000c1f0:	41f8d693          	srai	x13,x17,0x1f
8000c1f4:	00058a13          	addi	x20,x11,0
8000c1f8:	00068613          	addi	x12,x13,0
8000c1fc:	bdcff06f          	jal	x0,8000b5d8 <_vfiprintf_r+0x4e4>
8000c200:	200d7693          	andi	x13,x26,512
8000c204:	04068463          	beq	x13,x0,8000c24c <_vfiprintf_r+0x1158>
8000c208:	0ff77713          	andi	x14,x14,255
8000c20c:	00058a13          	addi	x20,x11,0
8000c210:	000d0813          	addi	x16,x26,0
8000c214:	00000613          	addi	x12,x0,0
8000c218:	d58ff06f          	jal	x0,8000b770 <_vfiprintf_r+0x67c>
8000c21c:	000b0793          	addi	x15,x22,0
8000c220:	8d8ff06f          	jal	x0,8000b2f8 <_vfiprintf_r+0x204>
8000c224:	bffd7d13          	andi	x26,x26,-1025
8000c228:	002d6d13          	ori	x26,x26,2
8000c22c:	00200593          	addi	x11,x0,2
8000c230:	d45ff06f          	jal	x0,8000bf74 <_vfiprintf_r+0xe80>
8000c234:	00070813          	addi	x16,x14,0
8000c238:	f99ff06f          	jal	x0,8000c1d0 <_vfiprintf_r+0x10dc>
8000c23c:	000a2703          	lw	x14,0(x20)
8000c240:	00068a13          	addi	x20,x13,0
8000c244:	01871023          	sh	x24,0(x14)
8000c248:	f89fe06f          	jal	x0,8000b1d0 <_vfiprintf_r+0xdc>
8000c24c:	00058a13          	addi	x20,x11,0
8000c250:	000d0813          	addi	x16,x26,0
8000c254:	00000613          	addi	x12,x0,0
8000c258:	d18ff06f          	jal	x0,8000b770 <_vfiprintf_r+0x67c>
8000c25c:	0ff77713          	andi	x14,x14,255
8000c260:	00000613          	addi	x12,x0,0
8000c264:	d99ff06f          	jal	x0,8000bffc <_vfiprintf_r+0xf08>
8000c268:	41f8d693          	srai	x13,x17,0x1f
8000c26c:	00058a13          	addi	x20,x11,0
8000c270:	00068613          	addi	x12,x13,0
8000c274:	b64ff06f          	jal	x0,8000b5d8 <_vfiprintf_r+0x4e4>
8000c278:	00000693          	addi	x13,x0,0
8000c27c:	00058a13          	addi	x20,x11,0
8000c280:	c8045ae3          	bge	x8,x0,8000bf14 <_vfiprintf_r+0xe20>
8000c284:	c6cff06f          	jal	x0,8000b6f0 <_vfiprintf_r+0x5fc>
8000c288:	000a8513          	addi	x10,x21,0
8000c28c:	04010613          	addi	x12,x2,64
8000c290:	00098593          	addi	x11,x19,0
8000c294:	8a8f90ef          	jal	x1,8000533c <__sprint_r>
8000c298:	9acff06f          	jal	x0,8000b444 <_vfiprintf_r+0x350>
8000c29c:	00f12c23          	sw	x15,24(x2)
8000c2a0:	02012783          	lw	x15,32(x2)
8000c2a4:	02412583          	lw	x11,36(x2)
8000c2a8:	02d12623          	sw	x13,44(x2)
8000c2ac:	40fd8eb3          	sub	x29,x27,x15
8000c2b0:	00078613          	addi	x12,x15,0
8000c2b4:	000e8513          	addi	x10,x29,0
8000c2b8:	03112423          	sw	x17,40(x2)
8000c2bc:	01c12e23          	sw	x28,28(x2)
8000c2c0:	01d12a23          	sw	x29,20(x2)
8000c2c4:	858fa0ef          	jal	x1,8000631c <strncpy>
8000c2c8:	02812883          	lw	x17,40(x2)
8000c2cc:	02c12683          	lw	x13,44(x2)
8000c2d0:	01012783          	lw	x15,16(x2)
8000c2d4:	ccccd537          	lui	x10,0xccccd
8000c2d8:	00d88733          	add	x14,x17,x13
8000c2dc:	01173633          	sltu	x12,x14,x17
8000c2e0:	00c70733          	add	x14,x14,x12
8000c2e4:	ccccd637          	lui	x12,0xccccd
8000c2e8:	ccd60613          	addi	x12,x12,-819 # cccccccd <_stack_top+0x44cccccd>
8000c2ec:	02c735b3          	mulhu	x11,x14,x12
8000c2f0:	0017cf03          	lbu	x30,1(x15)
8000c2f4:	ccc50513          	addi	x10,x10,-820 # cccccccc <_stack_top+0x44cccccc>
8000c2f8:	01412e83          	lw	x29,20(x2)
8000c2fc:	01e03f33          	sltu	x30,x0,x30
8000c300:	01e787b3          	add	x15,x15,x30
8000c304:	ccccd837          	lui	x16,0xccccd
8000c308:	ccccd337          	lui	x6,0xccccd
8000c30c:	00f12823          	sw	x15,16(x2)
8000c310:	01c12e03          	lw	x28,28(x2)
8000c314:	0025df13          	srli	x30,x11,0x2
8000c318:	ffc5f593          	andi	x11,x11,-4
8000c31c:	01e585b3          	add	x11,x11,x30
8000c320:	40b70733          	sub	x14,x14,x11
8000c324:	40e88733          	sub	x14,x17,x14
8000c328:	00e8b8b3          	sltu	x17,x17,x14
8000c32c:	411686b3          	sub	x13,x13,x17
8000c330:	02a70533          	mul	x10,x14,x10
8000c334:	01812783          	lw	x15,24(x2)
8000c338:	fffe8d93          	addi	x27,x29,-1
8000c33c:	ccd80813          	addi	x16,x16,-819 # cccccccd <_stack_top+0x44cccccd>
8000c340:	ccc30313          	addi	x6,x6,-820 # cccccccc <_stack_top+0x44cccccc>
8000c344:	02c686b3          	mul	x13,x13,x12
8000c348:	02c735b3          	mulhu	x11,x14,x12
8000c34c:	00a686b3          	add	x13,x13,x10
8000c350:	00100513          	addi	x10,x0,1
8000c354:	02c70733          	mul	x14,x14,x12
8000c358:	00b686b3          	add	x13,x13,x11
8000c35c:	01f69593          	slli	x11,x13,0x1f
8000c360:	0016d693          	srli	x13,x13,0x1
8000c364:	00175713          	srli	x14,x14,0x1
8000c368:	00e588b3          	add	x17,x11,x14
8000c36c:	00d88733          	add	x14,x17,x13
8000c370:	011735b3          	sltu	x11,x14,x17
8000c374:	00b70733          	add	x14,x14,x11
8000c378:	02c735b3          	mulhu	x11,x14,x12
8000c37c:	0025df13          	srli	x30,x11,0x2
8000c380:	ffc5f593          	andi	x11,x11,-4
8000c384:	01e585b3          	add	x11,x11,x30
8000c388:	40b70733          	sub	x14,x14,x11
8000c38c:	40e88733          	sub	x14,x17,x14
8000c390:	00e8b5b3          	sltu	x11,x17,x14
8000c394:	40b685b3          	sub	x11,x13,x11
8000c398:	02c73f33          	mulhu	x30,x14,x12
8000c39c:	02c585b3          	mul	x11,x11,x12
8000c3a0:	02c70733          	mul	x14,x14,x12
8000c3a4:	01e58633          	add	x12,x11,x30
8000c3a8:	01f61613          	slli	x12,x12,0x1f
8000c3ac:	00175713          	srli	x14,x14,0x1
8000c3b0:	00e60733          	add	x14,x12,x14
8000c3b4:	00271613          	slli	x12,x14,0x2
8000c3b8:	00e60733          	add	x14,x12,x14
8000c3bc:	00171713          	slli	x14,x14,0x1
8000c3c0:	40e88733          	sub	x14,x17,x14
8000c3c4:	03070713          	addi	x14,x14,48
8000c3c8:	feee8fa3          	sb	x14,-1(x29)
8000c3cc:	c7cff06f          	jal	x0,8000b848 <_vfiprintf_r+0x754>
8000c3d0:	00900713          	addi	x14,x0,9
8000c3d4:	cfd76663          	bltu	x14,x29,8000b8c0 <_vfiprintf_r+0x7cc>
8000c3d8:	d91ff06f          	jal	x0,8000c168 <_vfiprintf_r+0x1074>
8000c3dc:	02070663          	beq	x14,x0,8000c408 <_vfiprintf_r+0x1314>
8000c3e0:	00140813          	addi	x16,x8,1
8000c3e4:	00040313          	addi	x6,x8,0
8000c3e8:	00000413          	addi	x8,x0,0
8000c3ec:	a1cff06f          	jal	x0,8000b608 <_vfiprintf_r+0x514>
8000c3f0:	f5018893          	addi	x17,x3,-176 # 80011c20 <blanks.1>
8000c3f4:	a59ff06f          	jal	x0,8000be4c <_vfiprintf_r+0xd58>
8000c3f8:	f5018893          	addi	x17,x3,-176 # 80011c20 <blanks.1>
8000c3fc:	964ff06f          	jal	x0,8000b560 <_vfiprintf_r+0x46c>
8000c400:	f4018e93          	addi	x29,x3,-192 # 80011c10 <zeroes.0>
8000c404:	f98ff06f          	jal	x0,8000bb9c <_vfiprintf_r+0xaa8>
8000c408:	00040313          	addi	x6,x8,0
8000c40c:	00040813          	addi	x16,x8,0
8000c410:	00000413          	addi	x8,x0,0
8000c414:	eb5fe06f          	jal	x0,8000b2c8 <_vfiprintf_r+0x1d4>
8000c418:	000a2403          	lw	x8,0(x20)
8000c41c:	004a0a13          	addi	x20,x20,4
8000c420:	00045463          	bge	x8,x0,8000c428 <_vfiprintf_r+0x1334>
8000c424:	fff00413          	addi	x8,x0,-1
8000c428:	0014c683          	lbu	x13,1(x9)
8000c42c:	00058493          	addi	x9,x11,0
8000c430:	e29fe06f          	jal	x0,8000b258 <_vfiprintf_r+0x164>
8000c434:	00000593          	addi	x11,x0,0
8000c438:	b3dff06f          	jal	x0,8000bf74 <_vfiprintf_r+0xe80>
8000c43c:	00068a13          	addi	x20,x13,0
8000c440:	87018513          	addi	x10,x3,-1936 # 80011540 <__clz_tab+0x114>
8000c444:	00200593          	addi	x11,x0,2
8000c448:	b2dff06f          	jal	x0,8000bf74 <_vfiprintf_r+0xe80>

8000c44c <vfiprintf>:
8000c44c:	00050713          	addi	x14,x10,0
8000c450:	6ac1a503          	lw	x10,1708(x3) # 8001237c <_impure_ptr>
8000c454:	00060693          	addi	x13,x12,0
8000c458:	00058613          	addi	x12,x11,0
8000c45c:	00070593          	addi	x11,x14,0
8000c460:	c95fe06f          	jal	x0,8000b0f4 <_vfiprintf_r>

8000c464 <__sbprintf>:
8000c464:	00c5d783          	lhu	x15,12(x11)
8000c468:	0645ae83          	lw	x29,100(x11)
8000c46c:	00e5de03          	lhu	x28,14(x11)
8000c470:	01c5a303          	lw	x6,28(x11)
8000c474:	0245a883          	lw	x17,36(x11)
8000c478:	b7010113          	addi	x2,x2,-1168
8000c47c:	ffd7f793          	andi	x15,x15,-3
8000c480:	08010813          	addi	x16,x2,128
8000c484:	40000713          	addi	x14,x0,1024
8000c488:	48812423          	sw	x8,1160(x2)
8000c48c:	00058413          	addi	x8,x11,0
8000c490:	01810593          	addi	x11,x2,24
8000c494:	48912223          	sw	x9,1156(x2)
8000c498:	02f11223          	sh	x15,36(x2)
8000c49c:	48112623          	sw	x1,1164(x2)
8000c4a0:	02012823          	sw	x0,48(x2)
8000c4a4:	07d12e23          	sw	x29,124(x2)
8000c4a8:	03c11323          	sh	x28,38(x2)
8000c4ac:	02612a23          	sw	x6,52(x2)
8000c4b0:	03112e23          	sw	x17,60(x2)
8000c4b4:	01012c23          	sw	x16,24(x2)
8000c4b8:	03012423          	sw	x16,40(x2)
8000c4bc:	02e12023          	sw	x14,32(x2)
8000c4c0:	02e12623          	sw	x14,44(x2)
8000c4c4:	00050493          	addi	x9,x10,0
8000c4c8:	c2dfe0ef          	jal	x1,8000b0f4 <_vfiprintf_r>
8000c4cc:	00050793          	addi	x15,x10,0
8000c4d0:	02055a63          	bge	x10,x0,8000c504 <__sbprintf+0xa0>
8000c4d4:	02415703          	lhu	x14,36(x2)
8000c4d8:	04077713          	andi	x14,x14,64
8000c4dc:	00070863          	beq	x14,x0,8000c4ec <__sbprintf+0x88>
8000c4e0:	00c45703          	lhu	x14,12(x8)
8000c4e4:	04076713          	ori	x14,x14,64
8000c4e8:	00e41623          	sh	x14,12(x8)
8000c4ec:	48c12083          	lw	x1,1164(x2)
8000c4f0:	48812403          	lw	x8,1160(x2)
8000c4f4:	48412483          	lw	x9,1156(x2)
8000c4f8:	00078513          	addi	x10,x15,0
8000c4fc:	49010113          	addi	x2,x2,1168
8000c500:	00008067          	jalr	x0,0(x1)
8000c504:	00a12623          	sw	x10,12(x2)
8000c508:	01810593          	addi	x11,x2,24
8000c50c:	00048513          	addi	x10,x9,0
8000c510:	8c4f90ef          	jal	x1,800055d4 <_fflush_r>
8000c514:	00c12783          	lw	x15,12(x2)
8000c518:	fa050ee3          	beq	x10,x0,8000c4d4 <__sbprintf+0x70>
8000c51c:	fff00793          	addi	x15,x0,-1
8000c520:	fb5ff06f          	jal	x0,8000c4d4 <__sbprintf+0x70>

8000c524 <abort>:
8000c524:	ff010113          	addi	x2,x2,-16
8000c528:	00600513          	addi	x10,x0,6
8000c52c:	00112623          	sw	x1,12(x2)
8000c530:	274000ef          	jal	x1,8000c7a4 <raise>
8000c534:	00100513          	addi	x10,x0,1
8000c538:	665040ef          	jal	x1,8001139c <_exit>

8000c53c <_init_signal_r>:
8000c53c:	11852703          	lw	x14,280(x10)
8000c540:	00070663          	beq	x14,x0,8000c54c <_init_signal_r+0x10>
8000c544:	00000513          	addi	x10,x0,0
8000c548:	00008067          	jalr	x0,0(x1)
8000c54c:	fe010113          	addi	x2,x2,-32
8000c550:	08000593          	addi	x11,x0,128
8000c554:	00112e23          	sw	x1,28(x2)
8000c558:	00a12623          	sw	x10,12(x2)
8000c55c:	bd1f40ef          	jal	x1,8000112c <_malloc_r>
8000c560:	00c12783          	lw	x15,12(x2)
8000c564:	10a7ac23          	sw	x10,280(x15)
8000c568:	02050263          	beq	x10,x0,8000c58c <_init_signal_r+0x50>
8000c56c:	08050793          	addi	x15,x10,128
8000c570:	00052023          	sw	x0,0(x10)
8000c574:	00450513          	addi	x10,x10,4
8000c578:	fef51ce3          	bne	x10,x15,8000c570 <_init_signal_r+0x34>
8000c57c:	00000513          	addi	x10,x0,0
8000c580:	01c12083          	lw	x1,28(x2)
8000c584:	02010113          	addi	x2,x2,32
8000c588:	00008067          	jalr	x0,0(x1)
8000c58c:	fff00513          	addi	x10,x0,-1
8000c590:	ff1ff06f          	jal	x0,8000c580 <_init_signal_r+0x44>

8000c594 <_signal_r>:
8000c594:	01f00713          	addi	x14,x0,31
8000c598:	02b76063          	bltu	x14,x11,8000c5b8 <_signal_r+0x24>
8000c59c:	11852703          	lw	x14,280(x10)
8000c5a0:	02070463          	beq	x14,x0,8000c5c8 <_signal_r+0x34>
8000c5a4:	00259593          	slli	x11,x11,0x2
8000c5a8:	00b70733          	add	x14,x14,x11
8000c5ac:	00072503          	lw	x10,0(x14)
8000c5b0:	00c72023          	sw	x12,0(x14)
8000c5b4:	00008067          	jalr	x0,0(x1)
8000c5b8:	01600713          	addi	x14,x0,22
8000c5bc:	00e52023          	sw	x14,0(x10)
8000c5c0:	fff00513          	addi	x10,x0,-1
8000c5c4:	00008067          	jalr	x0,0(x1)
8000c5c8:	fe010113          	addi	x2,x2,-32
8000c5cc:	00b12223          	sw	x11,4(x2)
8000c5d0:	08000593          	addi	x11,x0,128
8000c5d4:	00c12423          	sw	x12,8(x2)
8000c5d8:	00112e23          	sw	x1,28(x2)
8000c5dc:	00a12623          	sw	x10,12(x2)
8000c5e0:	b4df40ef          	jal	x1,8000112c <_malloc_r>
8000c5e4:	00c12683          	lw	x13,12(x2)
8000c5e8:	00050713          	addi	x14,x10,0
8000c5ec:	08050593          	addi	x11,x10,128
8000c5f0:	10a6ac23          	sw	x10,280(x13)
8000c5f4:	00412783          	lw	x15,4(x2)
8000c5f8:	00050693          	addi	x13,x10,0
8000c5fc:	00812603          	lw	x12,8(x2)
8000c600:	fff00513          	addi	x10,x0,-1
8000c604:	02070063          	beq	x14,x0,8000c624 <_signal_r+0x90>
8000c608:	0006a023          	sw	x0,0(x13)
8000c60c:	00468693          	addi	x13,x13,4
8000c610:	feb69ce3          	bne	x13,x11,8000c608 <_signal_r+0x74>
8000c614:	00279593          	slli	x11,x15,0x2
8000c618:	00b70733          	add	x14,x14,x11
8000c61c:	00072503          	lw	x10,0(x14)
8000c620:	00c72023          	sw	x12,0(x14)
8000c624:	01c12083          	lw	x1,28(x2)
8000c628:	02010113          	addi	x2,x2,32
8000c62c:	00008067          	jalr	x0,0(x1)

8000c630 <_raise_r>:
8000c630:	01f00793          	addi	x15,x0,31
8000c634:	08b7ea63          	bltu	x15,x11,8000c6c8 <_raise_r+0x98>
8000c638:	11852783          	lw	x15,280(x10)
8000c63c:	fe010113          	addi	x2,x2,-32
8000c640:	00112e23          	sw	x1,28(x2)
8000c644:	00050713          	addi	x14,x10,0
8000c648:	00058613          	addi	x12,x11,0
8000c64c:	04078063          	beq	x15,x0,8000c68c <_raise_r+0x5c>
8000c650:	00259693          	slli	x13,x11,0x2
8000c654:	00d787b3          	add	x15,x15,x13
8000c658:	0007a683          	lw	x13,0(x15)
8000c65c:	02068863          	beq	x13,x0,8000c68c <_raise_r+0x5c>
8000c660:	00100513          	addi	x10,x0,1
8000c664:	00a68c63          	beq	x13,x10,8000c67c <_raise_r+0x4c>
8000c668:	fff00593          	addi	x11,x0,-1
8000c66c:	04b68463          	beq	x13,x11,8000c6b4 <_raise_r+0x84>
8000c670:	0007a023          	sw	x0,0(x15)
8000c674:	00060513          	addi	x10,x12,0
8000c678:	000680e7          	jalr	x1,0(x13)
8000c67c:	01c12083          	lw	x1,28(x2)
8000c680:	00000513          	addi	x10,x0,0
8000c684:	02010113          	addi	x2,x2,32
8000c688:	00008067          	jalr	x0,0(x1)
8000c68c:	00070513          	addi	x10,x14,0
8000c690:	00c12623          	sw	x12,12(x2)
8000c694:	00e12423          	sw	x14,8(x2)
8000c698:	3f4000ef          	jal	x1,8000ca8c <_getpid_r>
8000c69c:	00c12603          	lw	x12,12(x2)
8000c6a0:	01c12083          	lw	x1,28(x2)
8000c6a4:	00050593          	addi	x11,x10,0
8000c6a8:	00812503          	lw	x10,8(x2)
8000c6ac:	02010113          	addi	x2,x2,32
8000c6b0:	3740006f          	jal	x0,8000ca24 <_kill_r>
8000c6b4:	01c12083          	lw	x1,28(x2)
8000c6b8:	01600793          	addi	x15,x0,22
8000c6bc:	00f72023          	sw	x15,0(x14)
8000c6c0:	02010113          	addi	x2,x2,32
8000c6c4:	00008067          	jalr	x0,0(x1)
8000c6c8:	01600793          	addi	x15,x0,22
8000c6cc:	00f52023          	sw	x15,0(x10)
8000c6d0:	fff00513          	addi	x10,x0,-1
8000c6d4:	00008067          	jalr	x0,0(x1)

8000c6d8 <__sigtramp_r>:
8000c6d8:	01f00793          	addi	x15,x0,31
8000c6dc:	0cb7e063          	bltu	x15,x11,8000c79c <__sigtramp_r+0xc4>
8000c6e0:	11852783          	lw	x15,280(x10)
8000c6e4:	fe010113          	addi	x2,x2,-32
8000c6e8:	00112e23          	sw	x1,28(x2)
8000c6ec:	00058713          	addi	x14,x11,0
8000c6f0:	06078463          	beq	x15,x0,8000c758 <__sigtramp_r+0x80>
8000c6f4:	00271693          	slli	x13,x14,0x2
8000c6f8:	00d787b3          	add	x15,x15,x13
8000c6fc:	0007a683          	lw	x13,0(x15)
8000c700:	02068863          	beq	x13,x0,8000c730 <__sigtramp_r+0x58>
8000c704:	fff00613          	addi	x12,x0,-1
8000c708:	04c68463          	beq	x13,x12,8000c750 <__sigtramp_r+0x78>
8000c70c:	00100613          	addi	x12,x0,1
8000c710:	02c68863          	beq	x13,x12,8000c740 <__sigtramp_r+0x68>
8000c714:	00070513          	addi	x10,x14,0
8000c718:	0007a023          	sw	x0,0(x15)
8000c71c:	000680e7          	jalr	x1,0(x13)
8000c720:	00000513          	addi	x10,x0,0
8000c724:	01c12083          	lw	x1,28(x2)
8000c728:	02010113          	addi	x2,x2,32
8000c72c:	00008067          	jalr	x0,0(x1)
8000c730:	01c12083          	lw	x1,28(x2)
8000c734:	00100513          	addi	x10,x0,1
8000c738:	02010113          	addi	x2,x2,32
8000c73c:	00008067          	jalr	x0,0(x1)
8000c740:	01c12083          	lw	x1,28(x2)
8000c744:	00300513          	addi	x10,x0,3
8000c748:	02010113          	addi	x2,x2,32
8000c74c:	00008067          	jalr	x0,0(x1)
8000c750:	00200513          	addi	x10,x0,2
8000c754:	fd1ff06f          	jal	x0,8000c724 <__sigtramp_r+0x4c>
8000c758:	00b12623          	sw	x11,12(x2)
8000c75c:	08000593          	addi	x11,x0,128
8000c760:	00a12423          	sw	x10,8(x2)
8000c764:	9c9f40ef          	jal	x1,8000112c <_malloc_r>
8000c768:	00812683          	lw	x13,8(x2)
8000c76c:	00050793          	addi	x15,x10,0
8000c770:	10a6ac23          	sw	x10,280(x13)
8000c774:	02050063          	beq	x10,x0,8000c794 <__sigtramp_r+0xbc>
8000c778:	00c12703          	lw	x14,12(x2)
8000c77c:	00050693          	addi	x13,x10,0
8000c780:	08050613          	addi	x12,x10,128
8000c784:	0006a023          	sw	x0,0(x13)
8000c788:	00468693          	addi	x13,x13,4
8000c78c:	fec69ce3          	bne	x13,x12,8000c784 <__sigtramp_r+0xac>
8000c790:	f65ff06f          	jal	x0,8000c6f4 <__sigtramp_r+0x1c>
8000c794:	fff00513          	addi	x10,x0,-1
8000c798:	f8dff06f          	jal	x0,8000c724 <__sigtramp_r+0x4c>
8000c79c:	fff00513          	addi	x10,x0,-1
8000c7a0:	00008067          	jalr	x0,0(x1)

8000c7a4 <raise>:
8000c7a4:	01f00793          	addi	x15,x0,31
8000c7a8:	6ac1a803          	lw	x16,1708(x3) # 8001237c <_impure_ptr>
8000c7ac:	08a7e863          	bltu	x15,x10,8000c83c <raise+0x98>
8000c7b0:	11882783          	lw	x15,280(x16)
8000c7b4:	fe010113          	addi	x2,x2,-32
8000c7b8:	00112e23          	sw	x1,28(x2)
8000c7bc:	00050613          	addi	x12,x10,0
8000c7c0:	02078e63          	beq	x15,x0,8000c7fc <raise+0x58>
8000c7c4:	00251713          	slli	x14,x10,0x2
8000c7c8:	00e787b3          	add	x15,x15,x14
8000c7cc:	0007a703          	lw	x14,0(x15)
8000c7d0:	02070663          	beq	x14,x0,8000c7fc <raise+0x58>
8000c7d4:	00100693          	addi	x13,x0,1
8000c7d8:	00d70a63          	beq	x14,x13,8000c7ec <raise+0x48>
8000c7dc:	fff00613          	addi	x12,x0,-1
8000c7e0:	04c70263          	beq	x14,x12,8000c824 <raise+0x80>
8000c7e4:	0007a023          	sw	x0,0(x15)
8000c7e8:	000700e7          	jalr	x1,0(x14)
8000c7ec:	01c12083          	lw	x1,28(x2)
8000c7f0:	00000513          	addi	x10,x0,0
8000c7f4:	02010113          	addi	x2,x2,32
8000c7f8:	00008067          	jalr	x0,0(x1)
8000c7fc:	00080513          	addi	x10,x16,0
8000c800:	00c12623          	sw	x12,12(x2)
8000c804:	01012423          	sw	x16,8(x2)
8000c808:	284000ef          	jal	x1,8000ca8c <_getpid_r>
8000c80c:	00c12603          	lw	x12,12(x2)
8000c810:	01c12083          	lw	x1,28(x2)
8000c814:	00050593          	addi	x11,x10,0
8000c818:	00812503          	lw	x10,8(x2)
8000c81c:	02010113          	addi	x2,x2,32
8000c820:	2040006f          	jal	x0,8000ca24 <_kill_r>
8000c824:	01c12083          	lw	x1,28(x2)
8000c828:	01600793          	addi	x15,x0,22
8000c82c:	00f82023          	sw	x15,0(x16)
8000c830:	00068513          	addi	x10,x13,0
8000c834:	02010113          	addi	x2,x2,32
8000c838:	00008067          	jalr	x0,0(x1)
8000c83c:	01600793          	addi	x15,x0,22
8000c840:	00f82023          	sw	x15,0(x16)
8000c844:	fff00513          	addi	x10,x0,-1
8000c848:	00008067          	jalr	x0,0(x1)

8000c84c <signal>:
8000c84c:	01f00793          	addi	x15,x0,31
8000c850:	6ac1a603          	lw	x12,1708(x3) # 8001237c <_impure_ptr>
8000c854:	02a7e063          	bltu	x15,x10,8000c874 <signal+0x28>
8000c858:	11862703          	lw	x14,280(x12)
8000c85c:	02070463          	beq	x14,x0,8000c884 <signal+0x38>
8000c860:	00251513          	slli	x10,x10,0x2
8000c864:	00a70733          	add	x14,x14,x10
8000c868:	00072503          	lw	x10,0(x14)
8000c86c:	00b72023          	sw	x11,0(x14)
8000c870:	00008067          	jalr	x0,0(x1)
8000c874:	01600793          	addi	x15,x0,22
8000c878:	00f62023          	sw	x15,0(x12)
8000c87c:	fff00513          	addi	x10,x0,-1
8000c880:	00008067          	jalr	x0,0(x1)
8000c884:	fe010113          	addi	x2,x2,-32
8000c888:	00b12623          	sw	x11,12(x2)
8000c88c:	00a12423          	sw	x10,8(x2)
8000c890:	08000593          	addi	x11,x0,128
8000c894:	00060513          	addi	x10,x12,0
8000c898:	00c12223          	sw	x12,4(x2)
8000c89c:	00112e23          	sw	x1,28(x2)
8000c8a0:	88df40ef          	jal	x1,8000112c <_malloc_r>
8000c8a4:	00412603          	lw	x12,4(x2)
8000c8a8:	00050713          	addi	x14,x10,0
8000c8ac:	08050593          	addi	x11,x10,128
8000c8b0:	10a62c23          	sw	x10,280(x12)
8000c8b4:	00812783          	lw	x15,8(x2)
8000c8b8:	00050613          	addi	x12,x10,0
8000c8bc:	00c12683          	lw	x13,12(x2)
8000c8c0:	fff00513          	addi	x10,x0,-1
8000c8c4:	02070063          	beq	x14,x0,8000c8e4 <signal+0x98>
8000c8c8:	00062023          	sw	x0,0(x12)
8000c8cc:	00460613          	addi	x12,x12,4
8000c8d0:	fec59ce3          	bne	x11,x12,8000c8c8 <signal+0x7c>
8000c8d4:	00279513          	slli	x10,x15,0x2
8000c8d8:	00a70733          	add	x14,x14,x10
8000c8dc:	00072503          	lw	x10,0(x14)
8000c8e0:	00d72023          	sw	x13,0(x14)
8000c8e4:	01c12083          	lw	x1,28(x2)
8000c8e8:	02010113          	addi	x2,x2,32
8000c8ec:	00008067          	jalr	x0,0(x1)

8000c8f0 <_init_signal>:
8000c8f0:	6ac1a783          	lw	x15,1708(x3) # 8001237c <_impure_ptr>
8000c8f4:	1187a703          	lw	x14,280(x15)
8000c8f8:	00070663          	beq	x14,x0,8000c904 <_init_signal+0x14>
8000c8fc:	00000513          	addi	x10,x0,0
8000c900:	00008067          	jalr	x0,0(x1)
8000c904:	fe010113          	addi	x2,x2,-32
8000c908:	00078513          	addi	x10,x15,0
8000c90c:	08000593          	addi	x11,x0,128
8000c910:	00f12623          	sw	x15,12(x2)
8000c914:	00112e23          	sw	x1,28(x2)
8000c918:	815f40ef          	jal	x1,8000112c <_malloc_r>
8000c91c:	00c12783          	lw	x15,12(x2)
8000c920:	10a7ac23          	sw	x10,280(x15)
8000c924:	02050263          	beq	x10,x0,8000c948 <_init_signal+0x58>
8000c928:	08050793          	addi	x15,x10,128
8000c92c:	00052023          	sw	x0,0(x10)
8000c930:	00450513          	addi	x10,x10,4
8000c934:	fef51ce3          	bne	x10,x15,8000c92c <_init_signal+0x3c>
8000c938:	00000513          	addi	x10,x0,0
8000c93c:	01c12083          	lw	x1,28(x2)
8000c940:	02010113          	addi	x2,x2,32
8000c944:	00008067          	jalr	x0,0(x1)
8000c948:	fff00513          	addi	x10,x0,-1
8000c94c:	ff1ff06f          	jal	x0,8000c93c <_init_signal+0x4c>

8000c950 <__sigtramp>:
8000c950:	01f00793          	addi	x15,x0,31
8000c954:	0ca7e463          	bltu	x15,x10,8000ca1c <__sigtramp+0xcc>
8000c958:	6ac1a683          	lw	x13,1708(x3) # 8001237c <_impure_ptr>
8000c95c:	fe010113          	addi	x2,x2,-32
8000c960:	00112e23          	sw	x1,28(x2)
8000c964:	1186a783          	lw	x15,280(x13)
8000c968:	00050713          	addi	x14,x10,0
8000c96c:	06078463          	beq	x15,x0,8000c9d4 <__sigtramp+0x84>
8000c970:	00271693          	slli	x13,x14,0x2
8000c974:	00d787b3          	add	x15,x15,x13
8000c978:	0007a683          	lw	x13,0(x15)
8000c97c:	02068863          	beq	x13,x0,8000c9ac <__sigtramp+0x5c>
8000c980:	fff00613          	addi	x12,x0,-1
8000c984:	04c68463          	beq	x13,x12,8000c9cc <__sigtramp+0x7c>
8000c988:	00100613          	addi	x12,x0,1
8000c98c:	02c68863          	beq	x13,x12,8000c9bc <__sigtramp+0x6c>
8000c990:	00070513          	addi	x10,x14,0
8000c994:	0007a023          	sw	x0,0(x15)
8000c998:	000680e7          	jalr	x1,0(x13)
8000c99c:	00000513          	addi	x10,x0,0
8000c9a0:	01c12083          	lw	x1,28(x2)
8000c9a4:	02010113          	addi	x2,x2,32
8000c9a8:	00008067          	jalr	x0,0(x1)
8000c9ac:	01c12083          	lw	x1,28(x2)
8000c9b0:	00100513          	addi	x10,x0,1
8000c9b4:	02010113          	addi	x2,x2,32
8000c9b8:	00008067          	jalr	x0,0(x1)
8000c9bc:	01c12083          	lw	x1,28(x2)
8000c9c0:	00300513          	addi	x10,x0,3
8000c9c4:	02010113          	addi	x2,x2,32
8000c9c8:	00008067          	jalr	x0,0(x1)
8000c9cc:	00200513          	addi	x10,x0,2
8000c9d0:	fd1ff06f          	jal	x0,8000c9a0 <__sigtramp+0x50>
8000c9d4:	00a12623          	sw	x10,12(x2)
8000c9d8:	08000593          	addi	x11,x0,128
8000c9dc:	00068513          	addi	x10,x13,0
8000c9e0:	00d12423          	sw	x13,8(x2)
8000c9e4:	f48f40ef          	jal	x1,8000112c <_malloc_r>
8000c9e8:	00812683          	lw	x13,8(x2)
8000c9ec:	00050793          	addi	x15,x10,0
8000c9f0:	10a6ac23          	sw	x10,280(x13)
8000c9f4:	02050063          	beq	x10,x0,8000ca14 <__sigtramp+0xc4>
8000c9f8:	00c12703          	lw	x14,12(x2)
8000c9fc:	00050693          	addi	x13,x10,0
8000ca00:	08050613          	addi	x12,x10,128
8000ca04:	0006a023          	sw	x0,0(x13)
8000ca08:	00468693          	addi	x13,x13,4
8000ca0c:	fed61ce3          	bne	x12,x13,8000ca04 <__sigtramp+0xb4>
8000ca10:	f61ff06f          	jal	x0,8000c970 <__sigtramp+0x20>
8000ca14:	fff00513          	addi	x10,x0,-1
8000ca18:	f89ff06f          	jal	x0,8000c9a0 <__sigtramp+0x50>
8000ca1c:	fff00513          	addi	x10,x0,-1
8000ca20:	00008067          	jalr	x0,0(x1)

8000ca24 <_kill_r>:
8000ca24:	ff010113          	addi	x2,x2,-16
8000ca28:	00058793          	addi	x15,x11,0
8000ca2c:	00812423          	sw	x8,8(x2)
8000ca30:	00912223          	sw	x9,4(x2)
8000ca34:	00060593          	addi	x11,x12,0
8000ca38:	00050493          	addi	x9,x10,0
8000ca3c:	80012437          	lui	x8,0x80012
8000ca40:	00078513          	addi	x10,x15,0
8000ca44:	00112623          	sw	x1,12(x2)
8000ca48:	4e042823          	sw	x0,1264(x8) # 800124f0 <errno>
8000ca4c:	bb9f30ef          	jal	x1,80000604 <_kill>
8000ca50:	fff00793          	addi	x15,x0,-1
8000ca54:	00f50c63          	beq	x10,x15,8000ca6c <_kill_r+0x48>
8000ca58:	00c12083          	lw	x1,12(x2)
8000ca5c:	00812403          	lw	x8,8(x2)
8000ca60:	00412483          	lw	x9,4(x2)
8000ca64:	01010113          	addi	x2,x2,16
8000ca68:	00008067          	jalr	x0,0(x1)
8000ca6c:	4f042783          	lw	x15,1264(x8)
8000ca70:	fe0784e3          	beq	x15,x0,8000ca58 <_kill_r+0x34>
8000ca74:	00c12083          	lw	x1,12(x2)
8000ca78:	00812403          	lw	x8,8(x2)
8000ca7c:	00f4a023          	sw	x15,0(x9)
8000ca80:	00412483          	lw	x9,4(x2)
8000ca84:	01010113          	addi	x2,x2,16
8000ca88:	00008067          	jalr	x0,0(x1)

8000ca8c <_getpid_r>:
8000ca8c:	b25f306f          	jal	x0,800005b0 <_getpid>

8000ca90 <__adddf3>:
8000ca90:	00100737          	lui	x14,0x100
8000ca94:	fe010113          	addi	x2,x2,-32
8000ca98:	fff70713          	addi	x14,x14,-1 # fffff <_start-0x7ff00001>
8000ca9c:	00b777b3          	and	x15,x14,x11
8000caa0:	0146d893          	srli	x17,x13,0x14
8000caa4:	00d77733          	and	x14,x14,x13
8000caa8:	00812c23          	sw	x8,24(x2)
8000caac:	0145d413          	srli	x8,x11,0x14
8000cab0:	00371713          	slli	x14,x14,0x3
8000cab4:	01d65813          	srli	x16,x12,0x1d
8000cab8:	01212823          	sw	x18,16(x2)
8000cabc:	7ff47413          	andi	x8,x8,2047
8000cac0:	01f5d913          	srli	x18,x11,0x1f
8000cac4:	00379793          	slli	x15,x15,0x3
8000cac8:	01d55593          	srli	x11,x10,0x1d
8000cacc:	7ff8f893          	andi	x17,x17,2047
8000cad0:	00112e23          	sw	x1,28(x2)
8000cad4:	00912a23          	sw	x9,20(x2)
8000cad8:	01312623          	sw	x19,12(x2)
8000cadc:	01f6d693          	srli	x13,x13,0x1f
8000cae0:	00f5e7b3          	or	x15,x11,x15
8000cae4:	00e86833          	or	x16,x16,x14
8000cae8:	00351513          	slli	x10,x10,0x3
8000caec:	00361613          	slli	x12,x12,0x3
8000caf0:	41140733          	sub	x14,x8,x17
8000caf4:	7ff00593          	addi	x11,x0,2047
8000caf8:	30d91463          	bne	x18,x13,8000ce00 <__adddf3+0x370>
8000cafc:	10e05263          	bge	x0,x14,8000cc00 <__adddf3+0x170>
8000cb00:	02089c63          	bne	x17,x0,8000cb38 <__adddf3+0xa8>
8000cb04:	00c86733          	or	x14,x16,x12
8000cb08:	02070463          	beq	x14,x0,8000cb30 <__adddf3+0xa0>
8000cb0c:	fff40713          	addi	x14,x8,-1
8000cb10:	00071e63          	bne	x14,x0,8000cb2c <__adddf3+0x9c>
8000cb14:	00c50633          	add	x12,x10,x12
8000cb18:	010787b3          	add	x15,x15,x16
8000cb1c:	00a63533          	sltu	x10,x12,x10
8000cb20:	00a787b3          	add	x15,x15,x10
8000cb24:	00100413          	addi	x8,x0,1
8000cb28:	0600006f          	jal	x0,8000cb88 <__adddf3+0xf8>
8000cb2c:	00b41c63          	bne	x8,x11,8000cb44 <__adddf3+0xb4>
8000cb30:	00050613          	addi	x12,x10,0
8000cb34:	1d80006f          	jal	x0,8000cd0c <__adddf3+0x27c>
8000cb38:	feb40ce3          	beq	x8,x11,8000cb30 <__adddf3+0xa0>
8000cb3c:	008006b7          	lui	x13,0x800
8000cb40:	00d86833          	or	x16,x16,x13
8000cb44:	03800693          	addi	x13,x0,56
8000cb48:	0ae6c663          	blt	x13,x14,8000cbf4 <__adddf3+0x164>
8000cb4c:	01f00693          	addi	x13,x0,31
8000cb50:	02000893          	addi	x17,x0,32
8000cb54:	06e6c863          	blt	x13,x14,8000cbc4 <__adddf3+0x134>
8000cb58:	40e888b3          	sub	x17,x17,x14
8000cb5c:	011816b3          	sll	x13,x16,x17
8000cb60:	00e655b3          	srl	x11,x12,x14
8000cb64:	011618b3          	sll	x17,x12,x17
8000cb68:	00b6e6b3          	or	x13,x13,x11
8000cb6c:	011038b3          	sltu	x17,x0,x17
8000cb70:	0116e6b3          	or	x13,x13,x17
8000cb74:	00e85733          	srl	x14,x16,x14
8000cb78:	00a68633          	add	x12,x13,x10
8000cb7c:	00f70733          	add	x14,x14,x15
8000cb80:	00d636b3          	sltu	x13,x12,x13
8000cb84:	00d707b3          	add	x15,x14,x13
8000cb88:	00879713          	slli	x14,x15,0x8
8000cb8c:	22075663          	bge	x14,x0,8000cdb8 <__adddf3+0x328>
8000cb90:	00140413          	addi	x8,x8,1
8000cb94:	7ff00713          	addi	x14,x0,2047
8000cb98:	60e40863          	beq	x8,x14,8000d1a8 <__adddf3+0x718>
8000cb9c:	ff800737          	lui	x14,0xff800
8000cba0:	fff70713          	addi	x14,x14,-1 # ff7fffff <_stack_top+0x777fffff>
8000cba4:	00e7f7b3          	and	x15,x15,x14
8000cba8:	00165713          	srli	x14,x12,0x1
8000cbac:	00167613          	andi	x12,x12,1
8000cbb0:	00c76733          	or	x14,x14,x12
8000cbb4:	01f79613          	slli	x12,x15,0x1f
8000cbb8:	00e66633          	or	x12,x12,x14
8000cbbc:	0017d793          	srli	x15,x15,0x1
8000cbc0:	1f80006f          	jal	x0,8000cdb8 <__adddf3+0x328>
8000cbc4:	fe070693          	addi	x13,x14,-32
8000cbc8:	00d856b3          	srl	x13,x16,x13
8000cbcc:	00000593          	addi	x11,x0,0
8000cbd0:	01170863          	beq	x14,x17,8000cbe0 <__adddf3+0x150>
8000cbd4:	04000593          	addi	x11,x0,64
8000cbd8:	40e585b3          	sub	x11,x11,x14
8000cbdc:	00b815b3          	sll	x11,x16,x11
8000cbe0:	00c5e5b3          	or	x11,x11,x12
8000cbe4:	00b035b3          	sltu	x11,x0,x11
8000cbe8:	00b6e6b3          	or	x13,x13,x11
8000cbec:	00000713          	addi	x14,x0,0
8000cbf0:	f89ff06f          	jal	x0,8000cb78 <__adddf3+0xe8>
8000cbf4:	00c866b3          	or	x13,x16,x12
8000cbf8:	00d036b3          	sltu	x13,x0,x13
8000cbfc:	ff1ff06f          	jal	x0,8000cbec <__adddf3+0x15c>
8000cc00:	0c070263          	beq	x14,x0,8000ccc4 <__adddf3+0x234>
8000cc04:	40888733          	sub	x14,x17,x8
8000cc08:	02041263          	bne	x8,x0,8000cc2c <__adddf3+0x19c>
8000cc0c:	00a7e6b3          	or	x13,x15,x10
8000cc10:	00068863          	beq	x13,x0,8000cc20 <__adddf3+0x190>
8000cc14:	fff70693          	addi	x13,x14,-1
8000cc18:	ee068ee3          	beq	x13,x0,8000cb14 <__adddf3+0x84>
8000cc1c:	02b71063          	bne	x14,x11,8000cc3c <__adddf3+0x1ac>
8000cc20:	00080793          	addi	x15,x16,0
8000cc24:	00070413          	addi	x8,x14,0
8000cc28:	0e40006f          	jal	x0,8000cd0c <__adddf3+0x27c>
8000cc2c:	58b88663          	beq	x17,x11,8000d1b8 <__adddf3+0x728>
8000cc30:	008006b7          	lui	x13,0x800
8000cc34:	00d7e7b3          	or	x15,x15,x13
8000cc38:	00070693          	addi	x13,x14,0
8000cc3c:	03800713          	addi	x14,x0,56
8000cc40:	06d74c63          	blt	x14,x13,8000ccb8 <__adddf3+0x228>
8000cc44:	01f00713          	addi	x14,x0,31
8000cc48:	02000313          	addi	x6,x0,32
8000cc4c:	02d74e63          	blt	x14,x13,8000cc88 <__adddf3+0x1f8>
8000cc50:	40d30333          	sub	x6,x6,x13
8000cc54:	00679733          	sll	x14,x15,x6
8000cc58:	00d555b3          	srl	x11,x10,x13
8000cc5c:	00651333          	sll	x6,x10,x6
8000cc60:	00b76733          	or	x14,x14,x11
8000cc64:	00603333          	sltu	x6,x0,x6
8000cc68:	00676733          	or	x14,x14,x6
8000cc6c:	00d7d6b3          	srl	x13,x15,x13
8000cc70:	00c70633          	add	x12,x14,x12
8000cc74:	010686b3          	add	x13,x13,x16
8000cc78:	00e63733          	sltu	x14,x12,x14
8000cc7c:	00e687b3          	add	x15,x13,x14
8000cc80:	00088413          	addi	x8,x17,0
8000cc84:	f05ff06f          	jal	x0,8000cb88 <__adddf3+0xf8>
8000cc88:	fe068713          	addi	x14,x13,-32 # 7fffe0 <_start-0x7f800020>
8000cc8c:	00e7d733          	srl	x14,x15,x14
8000cc90:	00000593          	addi	x11,x0,0
8000cc94:	00668863          	beq	x13,x6,8000cca4 <__adddf3+0x214>
8000cc98:	04000593          	addi	x11,x0,64
8000cc9c:	40d585b3          	sub	x11,x11,x13
8000cca0:	00b795b3          	sll	x11,x15,x11
8000cca4:	00a5e5b3          	or	x11,x11,x10
8000cca8:	00b035b3          	sltu	x11,x0,x11
8000ccac:	00b76733          	or	x14,x14,x11
8000ccb0:	00000693          	addi	x13,x0,0
8000ccb4:	fbdff06f          	jal	x0,8000cc70 <__adddf3+0x1e0>
8000ccb8:	00a7e733          	or	x14,x15,x10
8000ccbc:	00e03733          	sltu	x14,x0,x14
8000ccc0:	ff1ff06f          	jal	x0,8000ccb0 <__adddf3+0x220>
8000ccc4:	00140713          	addi	x14,x8,1
8000ccc8:	7fe77693          	andi	x13,x14,2046
8000cccc:	0c069263          	bne	x13,x0,8000cd90 <__adddf3+0x300>
8000ccd0:	00a7e733          	or	x14,x15,x10
8000ccd4:	0a041463          	bne	x8,x0,8000cd7c <__adddf3+0x2ec>
8000ccd8:	4a070863          	beq	x14,x0,8000d188 <__adddf3+0x6f8>
8000ccdc:	00c86733          	or	x14,x16,x12
8000cce0:	4a070863          	beq	x14,x0,8000d190 <__adddf3+0x700>
8000cce4:	00c50633          	add	x12,x10,x12
8000cce8:	010787b3          	add	x15,x15,x16
8000ccec:	00a63533          	sltu	x10,x12,x10
8000ccf0:	00a787b3          	add	x15,x15,x10
8000ccf4:	00879713          	slli	x14,x15,0x8
8000ccf8:	32075a63          	bge	x14,x0,8000d02c <__adddf3+0x59c>
8000ccfc:	ff800737          	lui	x14,0xff800
8000cd00:	fff70713          	addi	x14,x14,-1 # ff7fffff <_stack_top+0x777fffff>
8000cd04:	00e7f7b3          	and	x15,x15,x14
8000cd08:	00100413          	addi	x8,x0,1
8000cd0c:	01d79713          	slli	x14,x15,0x1d
8000cd10:	00365613          	srli	x12,x12,0x3
8000cd14:	7ff00693          	addi	x13,x0,2047
8000cd18:	00c76733          	or	x14,x14,x12
8000cd1c:	0037d793          	srli	x15,x15,0x3
8000cd20:	00d41e63          	bne	x8,x13,8000cd3c <__adddf3+0x2ac>
8000cd24:	00f76733          	or	x14,x14,x15
8000cd28:	00000793          	addi	x15,x0,0
8000cd2c:	00070863          	beq	x14,x0,8000cd3c <__adddf3+0x2ac>
8000cd30:	000807b7          	lui	x15,0x80
8000cd34:	00000713          	addi	x14,x0,0
8000cd38:	00000913          	addi	x18,x0,0
8000cd3c:	7ff47413          	andi	x8,x8,2047
8000cd40:	00c79793          	slli	x15,x15,0xc
8000cd44:	00c7d793          	srli	x15,x15,0xc
8000cd48:	01441413          	slli	x8,x8,0x14
8000cd4c:	01f91593          	slli	x11,x18,0x1f
8000cd50:	00f46433          	or	x8,x8,x15
8000cd54:	01c12083          	lw	x1,28(x2)
8000cd58:	00b467b3          	or	x15,x8,x11
8000cd5c:	01812403          	lw	x8,24(x2)
8000cd60:	01412483          	lw	x9,20(x2)
8000cd64:	01012903          	lw	x18,16(x2)
8000cd68:	00c12983          	lw	x19,12(x2)
8000cd6c:	00070513          	addi	x10,x14,0
8000cd70:	00078593          	addi	x11,x15,0 # 80000 <_start-0x7ff80000>
8000cd74:	02010113          	addi	x2,x2,32
8000cd78:	00008067          	jalr	x0,0(x1)
8000cd7c:	40070e63          	beq	x14,x0,8000d198 <__adddf3+0x708>
8000cd80:	00c86833          	or	x16,x16,x12
8000cd84:	2c081c63          	bne	x16,x0,8000d05c <__adddf3+0x5cc>
8000cd88:	00050613          	addi	x12,x10,0
8000cd8c:	4100006f          	jal	x0,8000d19c <__adddf3+0x70c>
8000cd90:	40b70a63          	beq	x14,x11,8000d1a4 <__adddf3+0x714>
8000cd94:	00c50633          	add	x12,x10,x12
8000cd98:	00a63533          	sltu	x10,x12,x10
8000cd9c:	010787b3          	add	x15,x15,x16
8000cda0:	00a787b3          	add	x15,x15,x10
8000cda4:	01f79693          	slli	x13,x15,0x1f
8000cda8:	00165613          	srli	x12,x12,0x1
8000cdac:	00c6e633          	or	x12,x13,x12
8000cdb0:	0017d793          	srli	x15,x15,0x1
8000cdb4:	00070413          	addi	x8,x14,0
8000cdb8:	00767713          	andi	x14,x12,7
8000cdbc:	02070063          	beq	x14,x0,8000cddc <__adddf3+0x34c>
8000cdc0:	00f67713          	andi	x14,x12,15
8000cdc4:	00400693          	addi	x13,x0,4
8000cdc8:	00d70a63          	beq	x14,x13,8000cddc <__adddf3+0x34c>
8000cdcc:	00d60733          	add	x14,x12,x13
8000cdd0:	00c736b3          	sltu	x13,x14,x12
8000cdd4:	00d787b3          	add	x15,x15,x13
8000cdd8:	00070613          	addi	x12,x14,0
8000cddc:	00879713          	slli	x14,x15,0x8
8000cde0:	f20756e3          	bge	x14,x0,8000cd0c <__adddf3+0x27c>
8000cde4:	00140413          	addi	x8,x8,1
8000cde8:	7ff00713          	addi	x14,x0,2047
8000cdec:	3ae40e63          	beq	x8,x14,8000d1a8 <__adddf3+0x718>
8000cdf0:	ff800737          	lui	x14,0xff800
8000cdf4:	fff70713          	addi	x14,x14,-1 # ff7fffff <_stack_top+0x777fffff>
8000cdf8:	00e7f7b3          	and	x15,x15,x14
8000cdfc:	f11ff06f          	jal	x0,8000cd0c <__adddf3+0x27c>
8000ce00:	0ee05063          	bge	x0,x14,8000cee0 <__adddf3+0x450>
8000ce04:	08089863          	bne	x17,x0,8000ce94 <__adddf3+0x404>
8000ce08:	00c86733          	or	x14,x16,x12
8000ce0c:	d20702e3          	beq	x14,x0,8000cb30 <__adddf3+0xa0>
8000ce10:	fff40713          	addi	x14,x8,-1
8000ce14:	00071e63          	bne	x14,x0,8000ce30 <__adddf3+0x3a0>
8000ce18:	40c50633          	sub	x12,x10,x12
8000ce1c:	410787b3          	sub	x15,x15,x16
8000ce20:	00c53533          	sltu	x10,x10,x12
8000ce24:	40a787b3          	sub	x15,x15,x10
8000ce28:	00100413          	addi	x8,x0,1
8000ce2c:	04c0006f          	jal	x0,8000ce78 <__adddf3+0x3e8>
8000ce30:	d0b400e3          	beq	x8,x11,8000cb30 <__adddf3+0xa0>
8000ce34:	03800693          	addi	x13,x0,56
8000ce38:	08e6ce63          	blt	x13,x14,8000ced4 <__adddf3+0x444>
8000ce3c:	01f00693          	addi	x13,x0,31
8000ce40:	02000893          	addi	x17,x0,32
8000ce44:	06e6c063          	blt	x13,x14,8000cea4 <__adddf3+0x414>
8000ce48:	40e888b3          	sub	x17,x17,x14
8000ce4c:	011816b3          	sll	x13,x16,x17
8000ce50:	00e655b3          	srl	x11,x12,x14
8000ce54:	011618b3          	sll	x17,x12,x17
8000ce58:	00b6e6b3          	or	x13,x13,x11
8000ce5c:	011038b3          	sltu	x17,x0,x17
8000ce60:	0116e6b3          	or	x13,x13,x17
8000ce64:	00e85733          	srl	x14,x16,x14
8000ce68:	40d50633          	sub	x12,x10,x13
8000ce6c:	40e78733          	sub	x14,x15,x14
8000ce70:	00c53533          	sltu	x10,x10,x12
8000ce74:	40a707b3          	sub	x15,x14,x10
8000ce78:	00879713          	slli	x14,x15,0x8
8000ce7c:	f2075ee3          	bge	x14,x0,8000cdb8 <__adddf3+0x328>
8000ce80:	008004b7          	lui	x9,0x800
8000ce84:	fff48493          	addi	x9,x9,-1 # 7fffff <_start-0x7f800001>
8000ce88:	0097f4b3          	and	x9,x15,x9
8000ce8c:	00060993          	addi	x19,x12,0
8000ce90:	2140006f          	jal	x0,8000d0a4 <__adddf3+0x614>
8000ce94:	c8b40ee3          	beq	x8,x11,8000cb30 <__adddf3+0xa0>
8000ce98:	008006b7          	lui	x13,0x800
8000ce9c:	00d86833          	or	x16,x16,x13
8000cea0:	f95ff06f          	jal	x0,8000ce34 <__adddf3+0x3a4>
8000cea4:	fe070693          	addi	x13,x14,-32
8000cea8:	00d856b3          	srl	x13,x16,x13
8000ceac:	00000593          	addi	x11,x0,0
8000ceb0:	01170863          	beq	x14,x17,8000cec0 <__adddf3+0x430>
8000ceb4:	04000593          	addi	x11,x0,64
8000ceb8:	40e585b3          	sub	x11,x11,x14
8000cebc:	00b815b3          	sll	x11,x16,x11
8000cec0:	00c5e5b3          	or	x11,x11,x12
8000cec4:	00b035b3          	sltu	x11,x0,x11
8000cec8:	00b6e6b3          	or	x13,x13,x11
8000cecc:	00000713          	addi	x14,x0,0
8000ced0:	f99ff06f          	jal	x0,8000ce68 <__adddf3+0x3d8>
8000ced4:	00c866b3          	or	x13,x16,x12
8000ced8:	00d036b3          	sltu	x13,x0,x13
8000cedc:	ff1ff06f          	jal	x0,8000cecc <__adddf3+0x43c>
8000cee0:	0e070663          	beq	x14,x0,8000cfcc <__adddf3+0x53c>
8000cee4:	40888333          	sub	x6,x17,x8
8000cee8:	04041263          	bne	x8,x0,8000cf2c <__adddf3+0x49c>
8000ceec:	00a7e733          	or	x14,x15,x10
8000cef0:	02070663          	beq	x14,x0,8000cf1c <__adddf3+0x48c>
8000cef4:	fff30713          	addi	x14,x6,-1
8000cef8:	02071063          	bne	x14,x0,8000cf18 <__adddf3+0x488>
8000cefc:	40a60533          	sub	x10,x12,x10
8000cf00:	00a63733          	sltu	x14,x12,x10
8000cf04:	40f807b3          	sub	x15,x16,x15
8000cf08:	00050613          	addi	x12,x10,0
8000cf0c:	40e787b3          	sub	x15,x15,x14
8000cf10:	00068913          	addi	x18,x13,0 # 800000 <_start-0x7f800000>
8000cf14:	f15ff06f          	jal	x0,8000ce28 <__adddf3+0x398>
8000cf18:	02b31263          	bne	x6,x11,8000cf3c <__adddf3+0x4ac>
8000cf1c:	00068913          	addi	x18,x13,0
8000cf20:	00080793          	addi	x15,x16,0
8000cf24:	00030413          	addi	x8,x6,0
8000cf28:	de5ff06f          	jal	x0,8000cd0c <__adddf3+0x27c>
8000cf2c:	28b88463          	beq	x17,x11,8000d1b4 <__adddf3+0x724>
8000cf30:	00800737          	lui	x14,0x800
8000cf34:	00e7e7b3          	or	x15,x15,x14
8000cf38:	00030713          	addi	x14,x6,0
8000cf3c:	03800593          	addi	x11,x0,56
8000cf40:	08e5c063          	blt	x11,x14,8000cfc0 <__adddf3+0x530>
8000cf44:	01f00593          	addi	x11,x0,31
8000cf48:	02000e13          	addi	x28,x0,32
8000cf4c:	04e5c263          	blt	x11,x14,8000cf90 <__adddf3+0x500>
8000cf50:	40ee0e33          	sub	x28,x28,x14
8000cf54:	01c795b3          	sll	x11,x15,x28
8000cf58:	00e55333          	srl	x6,x10,x14
8000cf5c:	01c51e33          	sll	x28,x10,x28
8000cf60:	0065e5b3          	or	x11,x11,x6
8000cf64:	01c03e33          	sltu	x28,x0,x28
8000cf68:	01c5e5b3          	or	x11,x11,x28
8000cf6c:	00e7d733          	srl	x14,x15,x14
8000cf70:	40b605b3          	sub	x11,x12,x11
8000cf74:	00b637b3          	sltu	x15,x12,x11
8000cf78:	40e80733          	sub	x14,x16,x14
8000cf7c:	00058613          	addi	x12,x11,0
8000cf80:	40f707b3          	sub	x15,x14,x15
8000cf84:	00088413          	addi	x8,x17,0
8000cf88:	00068913          	addi	x18,x13,0
8000cf8c:	eedff06f          	jal	x0,8000ce78 <__adddf3+0x3e8>
8000cf90:	fe070593          	addi	x11,x14,-32 # 7fffe0 <_start-0x7f800020>
8000cf94:	00b7d5b3          	srl	x11,x15,x11
8000cf98:	00000313          	addi	x6,x0,0
8000cf9c:	01c70863          	beq	x14,x28,8000cfac <__adddf3+0x51c>
8000cfa0:	04000313          	addi	x6,x0,64
8000cfa4:	40e30333          	sub	x6,x6,x14
8000cfa8:	00679333          	sll	x6,x15,x6
8000cfac:	00a36333          	or	x6,x6,x10
8000cfb0:	00603333          	sltu	x6,x0,x6
8000cfb4:	0065e5b3          	or	x11,x11,x6
8000cfb8:	00000713          	addi	x14,x0,0
8000cfbc:	fb5ff06f          	jal	x0,8000cf70 <__adddf3+0x4e0>
8000cfc0:	00a7e5b3          	or	x11,x15,x10
8000cfc4:	00b035b3          	sltu	x11,x0,x11
8000cfc8:	ff1ff06f          	jal	x0,8000cfb8 <__adddf3+0x528>
8000cfcc:	00140713          	addi	x14,x8,1
8000cfd0:	7fe77713          	andi	x14,x14,2046
8000cfd4:	0a071063          	bne	x14,x0,8000d074 <__adddf3+0x5e4>
8000cfd8:	00a7e8b3          	or	x17,x15,x10
8000cfdc:	00c86733          	or	x14,x16,x12
8000cfe0:	06041863          	bne	x8,x0,8000d050 <__adddf3+0x5c0>
8000cfe4:	00089a63          	bne	x17,x0,8000cff8 <__adddf3+0x568>
8000cfe8:	00080793          	addi	x15,x16,0
8000cfec:	02071e63          	bne	x14,x0,8000d028 <__adddf3+0x598>
8000cff0:	00000913          	addi	x18,x0,0
8000cff4:	1b40006f          	jal	x0,8000d1a8 <__adddf3+0x718>
8000cff8:	18070c63          	beq	x14,x0,8000d190 <__adddf3+0x700>
8000cffc:	40c505b3          	sub	x11,x10,x12
8000d000:	00b538b3          	sltu	x17,x10,x11
8000d004:	41078733          	sub	x14,x15,x16
8000d008:	41170733          	sub	x14,x14,x17
8000d00c:	00871893          	slli	x17,x14,0x8
8000d010:	0208d663          	bge	x17,x0,8000d03c <__adddf3+0x5ac>
8000d014:	40a60533          	sub	x10,x12,x10
8000d018:	00a63733          	sltu	x14,x12,x10
8000d01c:	40f807b3          	sub	x15,x16,x15
8000d020:	00050613          	addi	x12,x10,0
8000d024:	40e787b3          	sub	x15,x15,x14
8000d028:	00068913          	addi	x18,x13,0
8000d02c:	00f66733          	or	x14,x12,x15
8000d030:	1a070063          	beq	x14,x0,8000d1d0 <__adddf3+0x740>
8000d034:	00000413          	addi	x8,x0,0
8000d038:	d81ff06f          	jal	x0,8000cdb8 <__adddf3+0x328>
8000d03c:	00e5e633          	or	x12,x11,x14
8000d040:	18060263          	beq	x12,x0,8000d1c4 <__adddf3+0x734>
8000d044:	00070793          	addi	x15,x14,0
8000d048:	00058613          	addi	x12,x11,0
8000d04c:	fe1ff06f          	jal	x0,8000d02c <__adddf3+0x59c>
8000d050:	00089e63          	bne	x17,x0,8000d06c <__adddf3+0x5dc>
8000d054:	00068913          	addi	x18,x13,0
8000d058:	14071063          	bne	x14,x0,8000d198 <__adddf3+0x708>
8000d05c:	00000913          	addi	x18,x0,0
8000d060:	004007b7          	lui	x15,0x400
8000d064:	00000613          	addi	x12,x0,0
8000d068:	1340006f          	jal	x0,8000d19c <__adddf3+0x70c>
8000d06c:	d0070ee3          	beq	x14,x0,8000cd88 <__adddf3+0x2f8>
8000d070:	fedff06f          	jal	x0,8000d05c <__adddf3+0x5cc>
8000d074:	40c50733          	sub	x14,x10,x12
8000d078:	00e535b3          	sltu	x11,x10,x14
8000d07c:	410784b3          	sub	x9,x15,x16
8000d080:	40b484b3          	sub	x9,x9,x11
8000d084:	00849593          	slli	x11,x9,0x8
8000d088:	00070993          	addi	x19,x14,0
8000d08c:	0605de63          	bge	x11,x0,8000d108 <__adddf3+0x678>
8000d090:	40a609b3          	sub	x19,x12,x10
8000d094:	40f804b3          	sub	x9,x16,x15
8000d098:	01363633          	sltu	x12,x12,x19
8000d09c:	40c484b3          	sub	x9,x9,x12
8000d0a0:	00068913          	addi	x18,x13,0
8000d0a4:	06048e63          	beq	x9,x0,8000d120 <__adddf3+0x690>
8000d0a8:	00048513          	addi	x10,x9,0
8000d0ac:	81cf40ef          	jal	x1,800010c8 <__clzsi2>
8000d0b0:	ff850713          	addi	x14,x10,-8
8000d0b4:	02000793          	addi	x15,x0,32
8000d0b8:	40e787b3          	sub	x15,x15,x14
8000d0bc:	00e494b3          	sll	x9,x9,x14
8000d0c0:	00f9d7b3          	srl	x15,x19,x15
8000d0c4:	0097e7b3          	or	x15,x15,x9
8000d0c8:	00e99633          	sll	x12,x19,x14
8000d0cc:	0a874463          	blt	x14,x8,8000d174 <__adddf3+0x6e4>
8000d0d0:	40870733          	sub	x14,x14,x8
8000d0d4:	00170513          	addi	x10,x14,1
8000d0d8:	01f00693          	addi	x13,x0,31
8000d0dc:	02000593          	addi	x11,x0,32
8000d0e0:	06a6c263          	blt	x13,x10,8000d144 <__adddf3+0x6b4>
8000d0e4:	40a585b3          	sub	x11,x11,x10
8000d0e8:	00b79733          	sll	x14,x15,x11
8000d0ec:	00a656b3          	srl	x13,x12,x10
8000d0f0:	00b615b3          	sll	x11,x12,x11
8000d0f4:	00d76733          	or	x14,x14,x13
8000d0f8:	00b035b3          	sltu	x11,x0,x11
8000d0fc:	00b76633          	or	x12,x14,x11
8000d100:	00a7d7b3          	srl	x15,x15,x10
8000d104:	f29ff06f          	jal	x0,8000d02c <__adddf3+0x59c>
8000d108:	00976633          	or	x12,x14,x9
8000d10c:	f8061ce3          	bne	x12,x0,8000d0a4 <__adddf3+0x614>
8000d110:	00000913          	addi	x18,x0,0
8000d114:	00000793          	addi	x15,x0,0
8000d118:	00000413          	addi	x8,x0,0
8000d11c:	bf1ff06f          	jal	x0,8000cd0c <__adddf3+0x27c>
8000d120:	00098513          	addi	x10,x19,0
8000d124:	fa5f30ef          	jal	x1,800010c8 <__clzsi2>
8000d128:	01850713          	addi	x14,x10,24
8000d12c:	01f00793          	addi	x15,x0,31
8000d130:	f8e7d2e3          	bge	x15,x14,8000d0b4 <__adddf3+0x624>
8000d134:	ff850793          	addi	x15,x10,-8
8000d138:	00f997b3          	sll	x15,x19,x15
8000d13c:	00000613          	addi	x12,x0,0
8000d140:	f8dff06f          	jal	x0,8000d0cc <__adddf3+0x63c>
8000d144:	fe170713          	addi	x14,x14,-31
8000d148:	00e7d733          	srl	x14,x15,x14
8000d14c:	00000693          	addi	x13,x0,0
8000d150:	00b50863          	beq	x10,x11,8000d160 <__adddf3+0x6d0>
8000d154:	04000693          	addi	x13,x0,64
8000d158:	40a686b3          	sub	x13,x13,x10
8000d15c:	00d796b3          	sll	x13,x15,x13
8000d160:	00d666b3          	or	x13,x12,x13
8000d164:	00d036b3          	sltu	x13,x0,x13
8000d168:	00d76633          	or	x12,x14,x13
8000d16c:	00000793          	addi	x15,x0,0
8000d170:	ebdff06f          	jal	x0,8000d02c <__adddf3+0x59c>
8000d174:	40e40433          	sub	x8,x8,x14
8000d178:	ff800737          	lui	x14,0xff800
8000d17c:	fff70713          	addi	x14,x14,-1 # ff7fffff <_stack_top+0x777fffff>
8000d180:	00e7f7b3          	and	x15,x15,x14
8000d184:	c35ff06f          	jal	x0,8000cdb8 <__adddf3+0x328>
8000d188:	00080793          	addi	x15,x16,0
8000d18c:	ea1ff06f          	jal	x0,8000d02c <__adddf3+0x59c>
8000d190:	00050613          	addi	x12,x10,0
8000d194:	e99ff06f          	jal	x0,8000d02c <__adddf3+0x59c>
8000d198:	00080793          	addi	x15,x16,0
8000d19c:	00058413          	addi	x8,x11,0
8000d1a0:	b6dff06f          	jal	x0,8000cd0c <__adddf3+0x27c>
8000d1a4:	00070413          	addi	x8,x14,0
8000d1a8:	00000793          	addi	x15,x0,0
8000d1ac:	00000613          	addi	x12,x0,0
8000d1b0:	b5dff06f          	jal	x0,8000cd0c <__adddf3+0x27c>
8000d1b4:	00068913          	addi	x18,x13,0
8000d1b8:	00080793          	addi	x15,x16,0
8000d1bc:	00088413          	addi	x8,x17,0
8000d1c0:	b4dff06f          	jal	x0,8000cd0c <__adddf3+0x27c>
8000d1c4:	00000913          	addi	x18,x0,0
8000d1c8:	00000793          	addi	x15,x0,0
8000d1cc:	b41ff06f          	jal	x0,8000cd0c <__adddf3+0x27c>
8000d1d0:	00000793          	addi	x15,x0,0
8000d1d4:	00000613          	addi	x12,x0,0
8000d1d8:	f41ff06f          	jal	x0,8000d118 <__adddf3+0x688>

8000d1dc <__divdf3>:
8000d1dc:	fd010113          	addi	x2,x2,-48
8000d1e0:	0145d713          	srli	x14,x11,0x14
8000d1e4:	02812423          	sw	x8,40(x2)
8000d1e8:	03212023          	sw	x18,32(x2)
8000d1ec:	01312e23          	sw	x19,28(x2)
8000d1f0:	01512a23          	sw	x21,20(x2)
8000d1f4:	01712623          	sw	x23,12(x2)
8000d1f8:	00c59413          	slli	x8,x11,0xc
8000d1fc:	02112623          	sw	x1,44(x2)
8000d200:	02912223          	sw	x9,36(x2)
8000d204:	01412c23          	sw	x20,24(x2)
8000d208:	01612823          	sw	x22,16(x2)
8000d20c:	7ff77713          	andi	x14,x14,2047
8000d210:	00050993          	addi	x19,x10,0
8000d214:	00060b93          	addi	x23,x12,0
8000d218:	00068a93          	addi	x21,x13,0
8000d21c:	00c45413          	srli	x8,x8,0xc
8000d220:	01f5d913          	srli	x18,x11,0x1f
8000d224:	08070e63          	beq	x14,x0,8000d2c0 <__divdf3+0xe4>
8000d228:	7ff00793          	addi	x15,x0,2047
8000d22c:	0ef70e63          	beq	x14,x15,8000d328 <__divdf3+0x14c>
8000d230:	01d55a13          	srli	x20,x10,0x1d
8000d234:	00341413          	slli	x8,x8,0x3
8000d238:	008a6a33          	or	x20,x20,x8
8000d23c:	008007b7          	lui	x15,0x800
8000d240:	00fa6a33          	or	x20,x20,x15
8000d244:	00351493          	slli	x9,x10,0x3
8000d248:	c0170993          	addi	x19,x14,-1023
8000d24c:	00000b13          	addi	x22,x0,0
8000d250:	014ad793          	srli	x15,x21,0x14
8000d254:	00ca9413          	slli	x8,x21,0xc
8000d258:	7ff7f793          	andi	x15,x15,2047
8000d25c:	00c45413          	srli	x8,x8,0xc
8000d260:	01fada93          	srli	x21,x21,0x1f
8000d264:	10078063          	beq	x15,x0,8000d364 <__divdf3+0x188>
8000d268:	7ff00693          	addi	x13,x0,2047
8000d26c:	16d78463          	beq	x15,x13,8000d3d4 <__divdf3+0x1f8>
8000d270:	00341413          	slli	x8,x8,0x3
8000d274:	01dbd693          	srli	x13,x23,0x1d
8000d278:	0086e6b3          	or	x13,x13,x8
8000d27c:	00800437          	lui	x8,0x800
8000d280:	0086e433          	or	x8,x13,x8
8000d284:	003b9f13          	slli	x30,x23,0x3
8000d288:	c0178793          	addi	x15,x15,-1023 # 7ffc01 <_start-0x7f8003ff>
8000d28c:	00000693          	addi	x13,x0,0
8000d290:	40f98733          	sub	x14,x19,x15
8000d294:	002b1793          	slli	x15,x22,0x2
8000d298:	00d7e7b3          	or	x15,x15,x13
8000d29c:	fff78793          	addi	x15,x15,-1
8000d2a0:	00e00613          	addi	x12,x0,14
8000d2a4:	01594833          	xor	x16,x18,x21
8000d2a8:	14f66e63          	bltu	x12,x15,8000d404 <__divdf3+0x228>
8000d2ac:	00279793          	slli	x15,x15,0x2
8000d2b0:	f6018613          	addi	x12,x3,-160 # 80011c30 <blanks.1+0x10>
8000d2b4:	00c787b3          	add	x15,x15,x12
8000d2b8:	0007a783          	lw	x15,0(x15)
8000d2bc:	00078067          	jalr	x0,0(x15)
8000d2c0:	00a46a33          	or	x20,x8,x10
8000d2c4:	060a0e63          	beq	x20,x0,8000d340 <__divdf3+0x164>
8000d2c8:	04040063          	beq	x8,x0,8000d308 <__divdf3+0x12c>
8000d2cc:	00040513          	addi	x10,x8,0 # 800000 <_start-0x7f800000>
8000d2d0:	df9f30ef          	jal	x1,800010c8 <__clzsi2>
8000d2d4:	00050793          	addi	x15,x10,0
8000d2d8:	ff550713          	addi	x14,x10,-11
8000d2dc:	01d00a13          	addi	x20,x0,29
8000d2e0:	ff878693          	addi	x13,x15,-8
8000d2e4:	40ea0a33          	sub	x20,x20,x14
8000d2e8:	00d41433          	sll	x8,x8,x13
8000d2ec:	0149da33          	srl	x20,x19,x20
8000d2f0:	008a6a33          	or	x20,x20,x8
8000d2f4:	00d99433          	sll	x8,x19,x13
8000d2f8:	c0d00713          	addi	x14,x0,-1011
8000d2fc:	40f709b3          	sub	x19,x14,x15
8000d300:	00040493          	addi	x9,x8,0
8000d304:	f49ff06f          	jal	x0,8000d24c <__divdf3+0x70>
8000d308:	dc1f30ef          	jal	x1,800010c8 <__clzsi2>
8000d30c:	01550713          	addi	x14,x10,21
8000d310:	01c00693          	addi	x13,x0,28
8000d314:	02050793          	addi	x15,x10,32
8000d318:	fce6d2e3          	bge	x13,x14,8000d2dc <__divdf3+0x100>
8000d31c:	ff850513          	addi	x10,x10,-8
8000d320:	00a99a33          	sll	x20,x19,x10
8000d324:	fd5ff06f          	jal	x0,8000d2f8 <__divdf3+0x11c>
8000d328:	00a46a33          	or	x20,x8,x10
8000d32c:	020a1263          	bne	x20,x0,8000d350 <__divdf3+0x174>
8000d330:	00000493          	addi	x9,x0,0
8000d334:	00070993          	addi	x19,x14,0
8000d338:	00200b13          	addi	x22,x0,2
8000d33c:	f15ff06f          	jal	x0,8000d250 <__divdf3+0x74>
8000d340:	00000493          	addi	x9,x0,0
8000d344:	00000993          	addi	x19,x0,0
8000d348:	00100b13          	addi	x22,x0,1
8000d34c:	f05ff06f          	jal	x0,8000d250 <__divdf3+0x74>
8000d350:	00050493          	addi	x9,x10,0
8000d354:	00040a13          	addi	x20,x8,0
8000d358:	00070993          	addi	x19,x14,0
8000d35c:	00300b13          	addi	x22,x0,3
8000d360:	ef1ff06f          	jal	x0,8000d250 <__divdf3+0x74>
8000d364:	01746f33          	or	x30,x8,x23
8000d368:	080f0063          	beq	x30,x0,8000d3e8 <__divdf3+0x20c>
8000d36c:	04040263          	beq	x8,x0,8000d3b0 <__divdf3+0x1d4>
8000d370:	00040513          	addi	x10,x8,0
8000d374:	d55f30ef          	jal	x1,800010c8 <__clzsi2>
8000d378:	00050693          	addi	x13,x10,0
8000d37c:	ff550793          	addi	x15,x10,-11
8000d380:	01d00593          	addi	x11,x0,29
8000d384:	ff868613          	addi	x12,x13,-8
8000d388:	40f585b3          	sub	x11,x11,x15
8000d38c:	00c41433          	sll	x8,x8,x12
8000d390:	00bbd5b3          	srl	x11,x23,x11
8000d394:	0085e5b3          	or	x11,x11,x8
8000d398:	00cb9433          	sll	x8,x23,x12
8000d39c:	c0d00793          	addi	x15,x0,-1011
8000d3a0:	00040f13          	addi	x30,x8,0
8000d3a4:	40d787b3          	sub	x15,x15,x13
8000d3a8:	00058413          	addi	x8,x11,0
8000d3ac:	ee1ff06f          	jal	x0,8000d28c <__divdf3+0xb0>
8000d3b0:	000b8513          	addi	x10,x23,0
8000d3b4:	d15f30ef          	jal	x1,800010c8 <__clzsi2>
8000d3b8:	01550793          	addi	x15,x10,21
8000d3bc:	01c00613          	addi	x12,x0,28
8000d3c0:	02050693          	addi	x13,x10,32
8000d3c4:	faf65ee3          	bge	x12,x15,8000d380 <__divdf3+0x1a4>
8000d3c8:	ff850593          	addi	x11,x10,-8
8000d3cc:	00bb95b3          	sll	x11,x23,x11
8000d3d0:	fcdff06f          	jal	x0,8000d39c <__divdf3+0x1c0>
8000d3d4:	01746f33          	or	x30,x8,x23
8000d3d8:	020f1063          	bne	x30,x0,8000d3f8 <__divdf3+0x21c>
8000d3dc:	00000413          	addi	x8,x0,0
8000d3e0:	00200693          	addi	x13,x0,2
8000d3e4:	eadff06f          	jal	x0,8000d290 <__divdf3+0xb4>
8000d3e8:	00000413          	addi	x8,x0,0
8000d3ec:	00000793          	addi	x15,x0,0
8000d3f0:	00100693          	addi	x13,x0,1
8000d3f4:	e9dff06f          	jal	x0,8000d290 <__divdf3+0xb4>
8000d3f8:	000b8f13          	addi	x30,x23,0
8000d3fc:	00300693          	addi	x13,x0,3
8000d400:	e91ff06f          	jal	x0,8000d290 <__divdf3+0xb4>
8000d404:	01446663          	bltu	x8,x20,8000d410 <__divdf3+0x234>
8000d408:	308a1863          	bne	x20,x8,8000d718 <__divdf3+0x53c>
8000d40c:	31e4e663          	bltu	x9,x30,8000d718 <__divdf3+0x53c>
8000d410:	01fa1693          	slli	x13,x20,0x1f
8000d414:	0014d793          	srli	x15,x9,0x1
8000d418:	01f49613          	slli	x12,x9,0x1f
8000d41c:	001a5a13          	srli	x20,x20,0x1
8000d420:	00f6e4b3          	or	x9,x13,x15
8000d424:	00841893          	slli	x17,x8,0x8
8000d428:	018f5693          	srli	x13,x30,0x18
8000d42c:	0116e6b3          	or	x13,x13,x17
8000d430:	0108d893          	srli	x17,x17,0x10
8000d434:	031a55b3          	divu	x11,x20,x17
8000d438:	01069e93          	slli	x29,x13,0x10
8000d43c:	010ede93          	srli	x29,x29,0x10
8000d440:	0104d793          	srli	x15,x9,0x10
8000d444:	008f1513          	slli	x10,x30,0x8
8000d448:	031a7a33          	remu	x20,x20,x17
8000d44c:	02be8333          	mul	x6,x29,x11
8000d450:	010a1a13          	slli	x20,x20,0x10
8000d454:	0147e7b3          	or	x15,x15,x20
8000d458:	0067fa63          	bgeu	x15,x6,8000d46c <__divdf3+0x290>
8000d45c:	00f687b3          	add	x15,x13,x15
8000d460:	00d7e463          	bltu	x15,x13,8000d468 <__divdf3+0x28c>
8000d464:	2c67e063          	bltu	x15,x6,8000d724 <__divdf3+0x548>
8000d468:	fff58593          	addi	x11,x11,-1
8000d46c:	406787b3          	sub	x15,x15,x6
8000d470:	0317d333          	divu	x6,x15,x17
8000d474:	01049493          	slli	x9,x9,0x10
8000d478:	0104d493          	srli	x9,x9,0x10
8000d47c:	0317f7b3          	remu	x15,x15,x17
8000d480:	026e8e33          	mul	x28,x29,x6
8000d484:	01079793          	slli	x15,x15,0x10
8000d488:	00f4e4b3          	or	x9,x9,x15
8000d48c:	01c4fa63          	bgeu	x9,x28,8000d4a0 <__divdf3+0x2c4>
8000d490:	009684b3          	add	x9,x13,x9
8000d494:	01c4f463          	bgeu	x9,x28,8000d49c <__divdf3+0x2c0>
8000d498:	28d4fc63          	bgeu	x9,x13,8000d730 <__divdf3+0x554>
8000d49c:	fff30313          	addi	x6,x6,-1
8000d4a0:	01059593          	slli	x11,x11,0x10
8000d4a4:	0065e5b3          	or	x11,x11,x6
8000d4a8:	41c484b3          	sub	x9,x9,x28
8000d4ac:	01059793          	slli	x15,x11,0x10
8000d4b0:	01051e13          	slli	x28,x10,0x10
8000d4b4:	0105df93          	srli	x31,x11,0x10
8000d4b8:	01055313          	srli	x6,x10,0x10
8000d4bc:	0107d793          	srli	x15,x15,0x10
8000d4c0:	010e5e13          	srli	x28,x28,0x10
8000d4c4:	03c782b3          	mul	x5,x15,x28
8000d4c8:	03cf83b3          	mul	x7,x31,x28
8000d4cc:	02f307b3          	mul	x15,x6,x15
8000d4d0:	00778f33          	add	x30,x15,x7
8000d4d4:	0102d793          	srli	x15,x5,0x10
8000d4d8:	01e787b3          	add	x15,x15,x30
8000d4dc:	026f8fb3          	mul	x31,x31,x6
8000d4e0:	0077f663          	bgeu	x15,x7,8000d4ec <__divdf3+0x310>
8000d4e4:	00010f37          	lui	x30,0x10
8000d4e8:	01ef8fb3          	add	x31,x31,x30
8000d4ec:	0107df13          	srli	x30,x15,0x10
8000d4f0:	01029293          	slli	x5,x5,0x10
8000d4f4:	01079793          	slli	x15,x15,0x10
8000d4f8:	0102d293          	srli	x5,x5,0x10
8000d4fc:	01ff0f33          	add	x30,x30,x31
8000d500:	005787b3          	add	x15,x15,x5
8000d504:	01e4e663          	bltu	x9,x30,8000d510 <__divdf3+0x334>
8000d508:	23e49a63          	bne	x9,x30,8000d73c <__divdf3+0x560>
8000d50c:	22f67863          	bgeu	x12,x15,8000d73c <__divdf3+0x560>
8000d510:	00a60fb3          	add	x31,x12,x10
8000d514:	00cfb2b3          	sltu	x5,x31,x12
8000d518:	00d283b3          	add	x7,x5,x13
8000d51c:	007484b3          	add	x9,x9,x7
8000d520:	fff58413          	addi	x8,x11,-1
8000d524:	000f8613          	addi	x12,x31,0
8000d528:	0096e663          	bltu	x13,x9,8000d534 <__divdf3+0x358>
8000d52c:	02029463          	bne	x5,x0,8000d554 <__divdf3+0x378>
8000d530:	02969263          	bne	x13,x9,8000d554 <__divdf3+0x378>
8000d534:	01e4e663          	bltu	x9,x30,8000d540 <__divdf3+0x364>
8000d538:	009f1e63          	bne	x30,x9,8000d554 <__divdf3+0x378>
8000d53c:	00fffc63          	bgeu	x31,x15,8000d554 <__divdf3+0x378>
8000d540:	01f50633          	add	x12,x10,x31
8000d544:	ffe58413          	addi	x8,x11,-2
8000d548:	00a635b3          	sltu	x11,x12,x10
8000d54c:	00d585b3          	add	x11,x11,x13
8000d550:	00b484b3          	add	x9,x9,x11
8000d554:	40f607b3          	sub	x15,x12,x15
8000d558:	41e484b3          	sub	x9,x9,x30
8000d55c:	00f63633          	sltu	x12,x12,x15
8000d560:	40c484b3          	sub	x9,x9,x12
8000d564:	fff00f13          	addi	x30,x0,-1
8000d568:	10968663          	beq	x13,x9,8000d674 <__divdf3+0x498>
8000d56c:	0314d5b3          	divu	x11,x9,x17
8000d570:	0107d613          	srli	x12,x15,0x10
8000d574:	0314f4b3          	remu	x9,x9,x17
8000d578:	02be8f33          	mul	x30,x29,x11
8000d57c:	01049493          	slli	x9,x9,0x10
8000d580:	00966633          	or	x12,x12,x9
8000d584:	01e67a63          	bgeu	x12,x30,8000d598 <__divdf3+0x3bc>
8000d588:	00c68633          	add	x12,x13,x12
8000d58c:	00d66463          	bltu	x12,x13,8000d594 <__divdf3+0x3b8>
8000d590:	1be66a63          	bltu	x12,x30,8000d744 <__divdf3+0x568>
8000d594:	fff58593          	addi	x11,x11,-1
8000d598:	41e60633          	sub	x12,x12,x30
8000d59c:	03165f33          	divu	x30,x12,x17
8000d5a0:	01079793          	slli	x15,x15,0x10
8000d5a4:	0107d793          	srli	x15,x15,0x10
8000d5a8:	03167633          	remu	x12,x12,x17
8000d5ac:	03ee8eb3          	mul	x29,x29,x30
8000d5b0:	01061613          	slli	x12,x12,0x10
8000d5b4:	00c7e7b3          	or	x15,x15,x12
8000d5b8:	01d7fa63          	bgeu	x15,x29,8000d5cc <__divdf3+0x3f0>
8000d5bc:	00f687b3          	add	x15,x13,x15
8000d5c0:	01d7f463          	bgeu	x15,x29,8000d5c8 <__divdf3+0x3ec>
8000d5c4:	18d7f663          	bgeu	x15,x13,8000d750 <__divdf3+0x574>
8000d5c8:	ffff0f13          	addi	x30,x30,-1 # ffff <_start-0x7fff0001>
8000d5cc:	01059613          	slli	x12,x11,0x10
8000d5d0:	01e66633          	or	x12,x12,x30
8000d5d4:	01061593          	slli	x11,x12,0x10
8000d5d8:	0105d593          	srli	x11,x11,0x10
8000d5dc:	41d787b3          	sub	x15,x15,x29
8000d5e0:	01065e93          	srli	x29,x12,0x10
8000d5e4:	02be0f33          	mul	x30,x28,x11
8000d5e8:	03ce8e33          	mul	x28,x29,x28
8000d5ec:	03d30eb3          	mul	x29,x6,x29
8000d5f0:	02b30333          	mul	x6,x6,x11
8000d5f4:	010f5593          	srli	x11,x30,0x10
8000d5f8:	01c30333          	add	x6,x6,x28
8000d5fc:	006585b3          	add	x11,x11,x6
8000d600:	01c5f663          	bgeu	x11,x28,8000d60c <__divdf3+0x430>
8000d604:	000108b7          	lui	x17,0x10
8000d608:	011e8eb3          	add	x29,x29,x17
8000d60c:	0105d893          	srli	x17,x11,0x10
8000d610:	010f1f13          	slli	x30,x30,0x10
8000d614:	01059593          	slli	x11,x11,0x10
8000d618:	010f5f13          	srli	x30,x30,0x10
8000d61c:	01d888b3          	add	x17,x17,x29
8000d620:	01e585b3          	add	x11,x11,x30
8000d624:	0117e663          	bltu	x15,x17,8000d630 <__divdf3+0x454>
8000d628:	05179463          	bne	x15,x17,8000d670 <__divdf3+0x494>
8000d62c:	12058863          	beq	x11,x0,8000d75c <__divdf3+0x580>
8000d630:	00f68333          	add	x6,x13,x15
8000d634:	fff60f13          	addi	x30,x12,-1
8000d638:	00030793          	addi	x15,x6,0
8000d63c:	02d36463          	bltu	x6,x13,8000d664 <__divdf3+0x488>
8000d640:	01136663          	bltu	x6,x17,8000d64c <__divdf3+0x470>
8000d644:	03131463          	bne	x6,x17,8000d66c <__divdf3+0x490>
8000d648:	00b57e63          	bgeu	x10,x11,8000d664 <__divdf3+0x488>
8000d64c:	ffe60f13          	addi	x30,x12,-2
8000d650:	00151613          	slli	x12,x10,0x1
8000d654:	00a637b3          	sltu	x15,x12,x10
8000d658:	00d787b3          	add	x15,x15,x13
8000d65c:	00f307b3          	add	x15,x6,x15
8000d660:	00060513          	addi	x10,x12,0
8000d664:	00b51463          	bne	x10,x11,8000d66c <__divdf3+0x490>
8000d668:	01178663          	beq	x15,x17,8000d674 <__divdf3+0x498>
8000d66c:	000f0613          	addi	x12,x30,0
8000d670:	00166f13          	ori	x30,x12,1
8000d674:	3ff70793          	addi	x15,x14,1023
8000d678:	12f05663          	bge	x0,x15,8000d7a4 <__divdf3+0x5c8>
8000d67c:	007f7693          	andi	x13,x30,7
8000d680:	02068063          	beq	x13,x0,8000d6a0 <__divdf3+0x4c4>
8000d684:	00ff7693          	andi	x13,x30,15
8000d688:	00400613          	addi	x12,x0,4
8000d68c:	00c68a63          	beq	x13,x12,8000d6a0 <__divdf3+0x4c4>
8000d690:	00cf06b3          	add	x13,x30,x12
8000d694:	01e6b633          	sltu	x12,x13,x30
8000d698:	00c40433          	add	x8,x8,x12
8000d69c:	00068f13          	addi	x30,x13,0
8000d6a0:	00741693          	slli	x13,x8,0x7
8000d6a4:	0006da63          	bge	x13,x0,8000d6b8 <__divdf3+0x4dc>
8000d6a8:	ff0007b7          	lui	x15,0xff000
8000d6ac:	fff78793          	addi	x15,x15,-1 # feffffff <_stack_top+0x76ffffff>
8000d6b0:	00f47433          	and	x8,x8,x15
8000d6b4:	40070793          	addi	x15,x14,1024
8000d6b8:	7fe00713          	addi	x14,x0,2046
8000d6bc:	1af74a63          	blt	x14,x15,8000d870 <__divdf3+0x694>
8000d6c0:	01d41713          	slli	x14,x8,0x1d
8000d6c4:	003f5f13          	srli	x30,x30,0x3
8000d6c8:	01e76733          	or	x14,x14,x30
8000d6cc:	00345413          	srli	x8,x8,0x3
8000d6d0:	00c41413          	slli	x8,x8,0xc
8000d6d4:	00c45413          	srli	x8,x8,0xc
8000d6d8:	01479793          	slli	x15,x15,0x14
8000d6dc:	02c12083          	lw	x1,44(x2)
8000d6e0:	0087e7b3          	or	x15,x15,x8
8000d6e4:	02812403          	lw	x8,40(x2)
8000d6e8:	01f81813          	slli	x16,x16,0x1f
8000d6ec:	02412483          	lw	x9,36(x2)
8000d6f0:	02012903          	lw	x18,32(x2)
8000d6f4:	01c12983          	lw	x19,28(x2)
8000d6f8:	01812a03          	lw	x20,24(x2)
8000d6fc:	01412a83          	lw	x21,20(x2)
8000d700:	01012b03          	lw	x22,16(x2)
8000d704:	00c12b83          	lw	x23,12(x2)
8000d708:	00070513          	addi	x10,x14,0
8000d70c:	0107e5b3          	or	x11,x15,x16
8000d710:	03010113          	addi	x2,x2,48
8000d714:	00008067          	jalr	x0,0(x1)
8000d718:	fff70713          	addi	x14,x14,-1
8000d71c:	00000613          	addi	x12,x0,0
8000d720:	d05ff06f          	jal	x0,8000d424 <__divdf3+0x248>
8000d724:	ffe58593          	addi	x11,x11,-2
8000d728:	00d787b3          	add	x15,x15,x13
8000d72c:	d41ff06f          	jal	x0,8000d46c <__divdf3+0x290>
8000d730:	ffe30313          	addi	x6,x6,-2
8000d734:	00d484b3          	add	x9,x9,x13
8000d738:	d69ff06f          	jal	x0,8000d4a0 <__divdf3+0x2c4>
8000d73c:	00058413          	addi	x8,x11,0
8000d740:	e15ff06f          	jal	x0,8000d554 <__divdf3+0x378>
8000d744:	ffe58593          	addi	x11,x11,-2
8000d748:	00d60633          	add	x12,x12,x13
8000d74c:	e4dff06f          	jal	x0,8000d598 <__divdf3+0x3bc>
8000d750:	ffef0f13          	addi	x30,x30,-2
8000d754:	00d787b3          	add	x15,x15,x13
8000d758:	e75ff06f          	jal	x0,8000d5cc <__divdf3+0x3f0>
8000d75c:	00000513          	addi	x10,x0,0
8000d760:	00060f13          	addi	x30,x12,0
8000d764:	f01ff06f          	jal	x0,8000d664 <__divdf3+0x488>
8000d768:	000a8813          	addi	x16,x21,0
8000d76c:	00068b13          	addi	x22,x13,0
8000d770:	00200793          	addi	x15,x0,2
8000d774:	0efb0e63          	beq	x22,x15,8000d870 <__divdf3+0x694>
8000d778:	00300793          	addi	x15,x0,3
8000d77c:	0efb0063          	beq	x22,x15,8000d85c <__divdf3+0x680>
8000d780:	00100793          	addi	x15,x0,1
8000d784:	eefb18e3          	bne	x22,x15,8000d674 <__divdf3+0x498>
8000d788:	00000413          	addi	x8,x0,0
8000d78c:	00000713          	addi	x14,x0,0
8000d790:	08c0006f          	jal	x0,8000d81c <__divdf3+0x640>
8000d794:	00090813          	addi	x16,x18,0
8000d798:	000a0413          	addi	x8,x20,0
8000d79c:	00048f13          	addi	x30,x9,0
8000d7a0:	fd1ff06f          	jal	x0,8000d770 <__divdf3+0x594>
8000d7a4:	08078063          	beq	x15,x0,8000d824 <__divdf3+0x648>
8000d7a8:	fc900693          	addi	x13,x0,-55
8000d7ac:	fcd7cee3          	blt	x15,x13,8000d788 <__divdf3+0x5ac>
8000d7b0:	fe200693          	addi	x13,x0,-30
8000d7b4:	06d7cc63          	blt	x15,x13,8000d82c <__divdf3+0x650>
8000d7b8:	00100693          	addi	x13,x0,1
8000d7bc:	40f686b3          	sub	x13,x13,x15
8000d7c0:	41e70713          	addi	x14,x14,1054
8000d7c4:	00df57b3          	srl	x15,x30,x13
8000d7c8:	00ef1f33          	sll	x30,x30,x14
8000d7cc:	01e03f33          	sltu	x30,x0,x30
8000d7d0:	00e41733          	sll	x14,x8,x14
8000d7d4:	00ef6f33          	or	x30,x30,x14
8000d7d8:	01e7e7b3          	or	x15,x15,x30
8000d7dc:	00d45433          	srl	x8,x8,x13
8000d7e0:	0077f713          	andi	x14,x15,7
8000d7e4:	02070063          	beq	x14,x0,8000d804 <__divdf3+0x628>
8000d7e8:	00f7f713          	andi	x14,x15,15
8000d7ec:	00400693          	addi	x13,x0,4
8000d7f0:	00d70a63          	beq	x14,x13,8000d804 <__divdf3+0x628>
8000d7f4:	00d78733          	add	x14,x15,x13
8000d7f8:	00f736b3          	sltu	x13,x14,x15
8000d7fc:	00d40433          	add	x8,x8,x13
8000d800:	00070793          	addi	x15,x14,0
8000d804:	00841713          	slli	x14,x8,0x8
8000d808:	06074c63          	blt	x14,x0,8000d880 <__divdf3+0x6a4>
8000d80c:	01d41713          	slli	x14,x8,0x1d
8000d810:	0037d793          	srli	x15,x15,0x3
8000d814:	00f76733          	or	x14,x14,x15
8000d818:	00345413          	srli	x8,x8,0x3
8000d81c:	00000793          	addi	x15,x0,0
8000d820:	eb1ff06f          	jal	x0,8000d6d0 <__divdf3+0x4f4>
8000d824:	00100693          	addi	x13,x0,1
8000d828:	f99ff06f          	jal	x0,8000d7c0 <__divdf3+0x5e4>
8000d82c:	fe100593          	addi	x11,x0,-31
8000d830:	40f586b3          	sub	x13,x11,x15
8000d834:	00d456b3          	srl	x13,x8,x13
8000d838:	00000613          	addi	x12,x0,0
8000d83c:	00b78663          	beq	x15,x11,8000d848 <__divdf3+0x66c>
8000d840:	43e70713          	addi	x14,x14,1086
8000d844:	00e41633          	sll	x12,x8,x14
8000d848:	01e66633          	or	x12,x12,x30
8000d84c:	00c03633          	sltu	x12,x0,x12
8000d850:	00c6e7b3          	or	x15,x13,x12
8000d854:	00000413          	addi	x8,x0,0
8000d858:	f89ff06f          	jal	x0,8000d7e0 <__divdf3+0x604>
8000d85c:	00080437          	lui	x8,0x80
8000d860:	00000713          	addi	x14,x0,0
8000d864:	7ff00793          	addi	x15,x0,2047
8000d868:	00000813          	addi	x16,x0,0
8000d86c:	e65ff06f          	jal	x0,8000d6d0 <__divdf3+0x4f4>
8000d870:	00000413          	addi	x8,x0,0
8000d874:	00000713          	addi	x14,x0,0
8000d878:	7ff00793          	addi	x15,x0,2047
8000d87c:	e55ff06f          	jal	x0,8000d6d0 <__divdf3+0x4f4>
8000d880:	00000413          	addi	x8,x0,0
8000d884:	00000713          	addi	x14,x0,0
8000d888:	00100793          	addi	x15,x0,1
8000d88c:	e45ff06f          	jal	x0,8000d6d0 <__divdf3+0x4f4>

8000d890 <__eqdf2>:
8000d890:	001007b7          	lui	x15,0x100
8000d894:	0145d813          	srli	x16,x11,0x14
8000d898:	fff78793          	addi	x15,x15,-1 # fffff <_start-0x7ff00001>
8000d89c:	0146d313          	srli	x6,x13,0x14
8000d8a0:	7ff87813          	andi	x16,x16,2047
8000d8a4:	7ff00e93          	addi	x29,x0,2047
8000d8a8:	00b7f733          	and	x14,x15,x11
8000d8ac:	00050893          	addi	x17,x10,0
8000d8b0:	01f5df93          	srli	x31,x11,0x1f
8000d8b4:	00d7f7b3          	and	x15,x15,x13
8000d8b8:	7ff37313          	andi	x6,x6,2047
8000d8bc:	01f6df13          	srli	x30,x13,0x1f
8000d8c0:	01d81863          	bne	x16,x29,8000d8d0 <__eqdf2+0x40>
8000d8c4:	00a76e33          	or	x28,x14,x10
8000d8c8:	00100513          	addi	x10,x0,1
8000d8cc:	040e1263          	bne	x28,x0,8000d910 <__eqdf2+0x80>
8000d8d0:	01d31863          	bne	x6,x29,8000d8e0 <__eqdf2+0x50>
8000d8d4:	00c7e7b3          	or	x15,x15,x12
8000d8d8:	00100513          	addi	x10,x0,1
8000d8dc:	02079a63          	bne	x15,x0,8000d910 <__eqdf2+0x80>
8000d8e0:	00b6c6b3          	xor	x13,x13,x11
8000d8e4:	00169693          	slli	x13,x13,0x1
8000d8e8:	02069263          	bne	x13,x0,8000d90c <__eqdf2+0x7c>
8000d8ec:	03161063          	bne	x12,x17,8000d90c <__eqdf2+0x7c>
8000d8f0:	00000513          	addi	x10,x0,0
8000d8f4:	01ef8e63          	beq	x31,x30,8000d910 <__eqdf2+0x80>
8000d8f8:	00100513          	addi	x10,x0,1
8000d8fc:	00081a63          	bne	x16,x0,8000d910 <__eqdf2+0x80>
8000d900:	01176733          	or	x14,x14,x17
8000d904:	00e03533          	sltu	x10,x0,x14
8000d908:	00008067          	jalr	x0,0(x1)
8000d90c:	00100513          	addi	x10,x0,1
8000d910:	00008067          	jalr	x0,0(x1)

8000d914 <__gedf2>:
8000d914:	0145d893          	srli	x17,x11,0x14
8000d918:	00100737          	lui	x14,0x100
8000d91c:	fff70713          	addi	x14,x14,-1 # fffff <_start-0x7ff00001>
8000d920:	0146d813          	srli	x16,x13,0x14
8000d924:	7ff8f893          	andi	x17,x17,2047
8000d928:	7ff00793          	addi	x15,x0,2047
8000d92c:	00b77333          	and	x6,x14,x11
8000d930:	7ff87813          	andi	x16,x16,2047
8000d934:	00d77733          	and	x14,x14,x13
8000d938:	01f5d593          	srli	x11,x11,0x1f
8000d93c:	01f6d693          	srli	x13,x13,0x1f
8000d940:	02f88063          	beq	x17,x15,8000d960 <__gedf2+0x4c>
8000d944:	7ff00e13          	addi	x28,x0,2047
8000d948:	00080793          	addi	x15,x16,0
8000d94c:	03c81463          	bne	x16,x28,8000d974 <__gedf2+0x60>
8000d950:	00c76e33          	or	x28,x14,x12
8000d954:	020e0063          	beq	x28,x0,8000d974 <__gedf2+0x60>
8000d958:	ffe00793          	addi	x15,x0,-2
8000d95c:	0100006f          	jal	x0,8000d96c <__gedf2+0x58>
8000d960:	00a36e33          	or	x28,x6,x10
8000d964:	ffe00793          	addi	x15,x0,-2
8000d968:	fc0e0ee3          	beq	x28,x0,8000d944 <__gedf2+0x30>
8000d96c:	00078513          	addi	x10,x15,0
8000d970:	00008067          	jalr	x0,0(x1)
8000d974:	00000e13          	addi	x28,x0,0
8000d978:	00089663          	bne	x17,x0,8000d984 <__gedf2+0x70>
8000d97c:	00a36e33          	or	x28,x6,x10
8000d980:	001e3e13          	sltiu	x28,x28,1
8000d984:	04081863          	bne	x16,x0,8000d9d4 <__gedf2+0xc0>
8000d988:	00c76eb3          	or	x29,x14,x12
8000d98c:	000e0a63          	beq	x28,x0,8000d9a0 <__gedf2+0x8c>
8000d990:	fc0e8ee3          	beq	x29,x0,8000d96c <__gedf2+0x58>
8000d994:	00169793          	slli	x15,x13,0x1
8000d998:	fff78793          	addi	x15,x15,-1
8000d99c:	fd1ff06f          	jal	x0,8000d96c <__gedf2+0x58>
8000d9a0:	020e9c63          	bne	x29,x0,8000d9d8 <__gedf2+0xc4>
8000d9a4:	40b005b3          	sub	x11,x0,x11
8000d9a8:	0015e793          	ori	x15,x11,1
8000d9ac:	fc1ff06f          	jal	x0,8000d96c <__gedf2+0x58>
8000d9b0:	ff08c2e3          	blt	x17,x16,8000d994 <__gedf2+0x80>
8000d9b4:	fe6768e3          	bltu	x14,x6,8000d9a4 <__gedf2+0x90>
8000d9b8:	00a67463          	bgeu	x12,x10,8000d9c0 <__gedf2+0xac>
8000d9bc:	fee304e3          	beq	x6,x14,8000d9a4 <__gedf2+0x90>
8000d9c0:	00c56663          	bltu	x10,x12,8000d9cc <__gedf2+0xb8>
8000d9c4:	00000793          	addi	x15,x0,0
8000d9c8:	fae372e3          	bgeu	x6,x14,8000d96c <__gedf2+0x58>
8000d9cc:	00159793          	slli	x15,x11,0x1
8000d9d0:	fc9ff06f          	jal	x0,8000d998 <__gedf2+0x84>
8000d9d4:	fc0e10e3          	bne	x28,x0,8000d994 <__gedf2+0x80>
8000d9d8:	fcb696e3          	bne	x13,x11,8000d9a4 <__gedf2+0x90>
8000d9dc:	fd185ae3          	bge	x16,x17,8000d9b0 <__gedf2+0x9c>
8000d9e0:	40d006b3          	sub	x13,x0,x13
8000d9e4:	0016e793          	ori	x15,x13,1
8000d9e8:	f85ff06f          	jal	x0,8000d96c <__gedf2+0x58>

8000d9ec <__ledf2>:
8000d9ec:	0145d893          	srli	x17,x11,0x14
8000d9f0:	00100737          	lui	x14,0x100
8000d9f4:	fff70713          	addi	x14,x14,-1 # fffff <_start-0x7ff00001>
8000d9f8:	0146d813          	srli	x16,x13,0x14
8000d9fc:	7ff8f893          	andi	x17,x17,2047
8000da00:	7ff00793          	addi	x15,x0,2047
8000da04:	00b77333          	and	x6,x14,x11
8000da08:	7ff87813          	andi	x16,x16,2047
8000da0c:	00d77733          	and	x14,x14,x13
8000da10:	01f5d593          	srli	x11,x11,0x1f
8000da14:	01f6d693          	srli	x13,x13,0x1f
8000da18:	02f88063          	beq	x17,x15,8000da38 <__ledf2+0x4c>
8000da1c:	7ff00e13          	addi	x28,x0,2047
8000da20:	00080793          	addi	x15,x16,0
8000da24:	03c81463          	bne	x16,x28,8000da4c <__ledf2+0x60>
8000da28:	00c76e33          	or	x28,x14,x12
8000da2c:	020e0063          	beq	x28,x0,8000da4c <__ledf2+0x60>
8000da30:	00200793          	addi	x15,x0,2
8000da34:	0100006f          	jal	x0,8000da44 <__ledf2+0x58>
8000da38:	00a36e33          	or	x28,x6,x10
8000da3c:	00200793          	addi	x15,x0,2
8000da40:	fc0e0ee3          	beq	x28,x0,8000da1c <__ledf2+0x30>
8000da44:	00078513          	addi	x10,x15,0
8000da48:	00008067          	jalr	x0,0(x1)
8000da4c:	00000e13          	addi	x28,x0,0
8000da50:	00089663          	bne	x17,x0,8000da5c <__ledf2+0x70>
8000da54:	00a36e33          	or	x28,x6,x10
8000da58:	001e3e13          	sltiu	x28,x28,1
8000da5c:	04081863          	bne	x16,x0,8000daac <__ledf2+0xc0>
8000da60:	00c76eb3          	or	x29,x14,x12
8000da64:	000e0a63          	beq	x28,x0,8000da78 <__ledf2+0x8c>
8000da68:	fc0e8ee3          	beq	x29,x0,8000da44 <__ledf2+0x58>
8000da6c:	00169793          	slli	x15,x13,0x1
8000da70:	fff78793          	addi	x15,x15,-1
8000da74:	fd1ff06f          	jal	x0,8000da44 <__ledf2+0x58>
8000da78:	020e9c63          	bne	x29,x0,8000dab0 <__ledf2+0xc4>
8000da7c:	40b005b3          	sub	x11,x0,x11
8000da80:	0015e793          	ori	x15,x11,1
8000da84:	fc1ff06f          	jal	x0,8000da44 <__ledf2+0x58>
8000da88:	ff08c2e3          	blt	x17,x16,8000da6c <__ledf2+0x80>
8000da8c:	fe6768e3          	bltu	x14,x6,8000da7c <__ledf2+0x90>
8000da90:	00a67463          	bgeu	x12,x10,8000da98 <__ledf2+0xac>
8000da94:	fee304e3          	beq	x6,x14,8000da7c <__ledf2+0x90>
8000da98:	00c56663          	bltu	x10,x12,8000daa4 <__ledf2+0xb8>
8000da9c:	00000793          	addi	x15,x0,0
8000daa0:	fae372e3          	bgeu	x6,x14,8000da44 <__ledf2+0x58>
8000daa4:	00159793          	slli	x15,x11,0x1
8000daa8:	fc9ff06f          	jal	x0,8000da70 <__ledf2+0x84>
8000daac:	fc0e10e3          	bne	x28,x0,8000da6c <__ledf2+0x80>
8000dab0:	fcb696e3          	bne	x13,x11,8000da7c <__ledf2+0x90>
8000dab4:	fd185ae3          	bge	x16,x17,8000da88 <__ledf2+0x9c>
8000dab8:	40d006b3          	sub	x13,x0,x13
8000dabc:	0016e793          	ori	x15,x13,1
8000dac0:	f85ff06f          	jal	x0,8000da44 <__ledf2+0x58>

8000dac4 <__muldf3>:
8000dac4:	fd010113          	addi	x2,x2,-48
8000dac8:	01312e23          	sw	x19,28(x2)
8000dacc:	0145d993          	srli	x19,x11,0x14
8000dad0:	02812423          	sw	x8,40(x2)
8000dad4:	02912223          	sw	x9,36(x2)
8000dad8:	01412c23          	sw	x20,24(x2)
8000dadc:	01512a23          	sw	x21,20(x2)
8000dae0:	01712623          	sw	x23,12(x2)
8000dae4:	00c59493          	slli	x9,x11,0xc
8000dae8:	02112623          	sw	x1,44(x2)
8000daec:	03212023          	sw	x18,32(x2)
8000daf0:	01612823          	sw	x22,16(x2)
8000daf4:	7ff9f993          	andi	x19,x19,2047
8000daf8:	00050413          	addi	x8,x10,0
8000dafc:	00060b93          	addi	x23,x12,0
8000db00:	00068a13          	addi	x20,x13,0
8000db04:	00c4d493          	srli	x9,x9,0xc
8000db08:	01f5da93          	srli	x21,x11,0x1f
8000db0c:	0c098263          	beq	x19,x0,8000dbd0 <__muldf3+0x10c>
8000db10:	7ff00793          	addi	x15,x0,2047
8000db14:	12f98463          	beq	x19,x15,8000dc3c <__muldf3+0x178>
8000db18:	00349493          	slli	x9,x9,0x3
8000db1c:	01d55793          	srli	x15,x10,0x1d
8000db20:	0097e7b3          	or	x15,x15,x9
8000db24:	008004b7          	lui	x9,0x800
8000db28:	0097e4b3          	or	x9,x15,x9
8000db2c:	00351913          	slli	x18,x10,0x3
8000db30:	c0198993          	addi	x19,x19,-1023
8000db34:	00000b13          	addi	x22,x0,0
8000db38:	014a5713          	srli	x14,x20,0x14
8000db3c:	00ca1413          	slli	x8,x20,0xc
8000db40:	7ff77713          	andi	x14,x14,2047
8000db44:	00c45413          	srli	x8,x8,0xc
8000db48:	01fa5a13          	srli	x20,x20,0x1f
8000db4c:	12070063          	beq	x14,x0,8000dc6c <__muldf3+0x1a8>
8000db50:	7ff00793          	addi	x15,x0,2047
8000db54:	18f70463          	beq	x14,x15,8000dcdc <__muldf3+0x218>
8000db58:	00341413          	slli	x8,x8,0x3
8000db5c:	01dbd793          	srli	x15,x23,0x1d
8000db60:	0087e7b3          	or	x15,x15,x8
8000db64:	00800437          	lui	x8,0x800
8000db68:	0087e433          	or	x8,x15,x8
8000db6c:	c0170713          	addi	x14,x14,-1023
8000db70:	003b9793          	slli	x15,x23,0x3
8000db74:	00000813          	addi	x16,x0,0
8000db78:	00e989b3          	add	x19,x19,x14
8000db7c:	002b1713          	slli	x14,x22,0x2
8000db80:	01076733          	or	x14,x14,x16
8000db84:	00a00693          	addi	x13,x0,10
8000db88:	00198513          	addi	x10,x19,1
8000db8c:	1ae6c263          	blt	x13,x14,8000dd30 <__muldf3+0x26c>
8000db90:	00200613          	addi	x12,x0,2
8000db94:	014ac5b3          	xor	x11,x21,x20
8000db98:	00100693          	addi	x13,x0,1
8000db9c:	16e64863          	blt	x12,x14,8000dd0c <__muldf3+0x248>
8000dba0:	fff70713          	addi	x14,x14,-1
8000dba4:	1ae6e663          	bltu	x13,x14,8000dd50 <__muldf3+0x28c>
8000dba8:	00080b13          	addi	x22,x16,0
8000dbac:	00200713          	addi	x14,x0,2
8000dbb0:	4ceb0e63          	beq	x22,x14,8000e08c <__muldf3+0x5c8>
8000dbb4:	00300713          	addi	x14,x0,3
8000dbb8:	4ceb0463          	beq	x22,x14,8000e080 <__muldf3+0x5bc>
8000dbbc:	00100713          	addi	x14,x0,1
8000dbc0:	34eb1463          	bne	x22,x14,8000df08 <__muldf3+0x444>
8000dbc4:	00000413          	addi	x8,x0,0
8000dbc8:	00000613          	addi	x12,x0,0
8000dbcc:	4640006f          	jal	x0,8000e030 <__muldf3+0x56c>
8000dbd0:	00a4e933          	or	x18,x9,x10
8000dbd4:	06090e63          	beq	x18,x0,8000dc50 <__muldf3+0x18c>
8000dbd8:	04048263          	beq	x9,x0,8000dc1c <__muldf3+0x158>
8000dbdc:	00048513          	addi	x10,x9,0 # 800000 <_start-0x7f800000>
8000dbe0:	ce8f30ef          	jal	x1,800010c8 <__clzsi2>
8000dbe4:	00050713          	addi	x14,x10,0
8000dbe8:	ff550693          	addi	x13,x10,-11
8000dbec:	01d00793          	addi	x15,x0,29
8000dbf0:	ff870613          	addi	x12,x14,-8
8000dbf4:	40d787b3          	sub	x15,x15,x13
8000dbf8:	00c494b3          	sll	x9,x9,x12
8000dbfc:	00f457b3          	srl	x15,x8,x15
8000dc00:	0097e7b3          	or	x15,x15,x9
8000dc04:	00c414b3          	sll	x9,x8,x12
8000dc08:	c0d00993          	addi	x19,x0,-1011
8000dc0c:	00048913          	addi	x18,x9,0
8000dc10:	40e989b3          	sub	x19,x19,x14
8000dc14:	00078493          	addi	x9,x15,0
8000dc18:	f1dff06f          	jal	x0,8000db34 <__muldf3+0x70>
8000dc1c:	cacf30ef          	jal	x1,800010c8 <__clzsi2>
8000dc20:	01550693          	addi	x13,x10,21
8000dc24:	01c00793          	addi	x15,x0,28
8000dc28:	02050713          	addi	x14,x10,32
8000dc2c:	fcd7d0e3          	bge	x15,x13,8000dbec <__muldf3+0x128>
8000dc30:	ff850793          	addi	x15,x10,-8
8000dc34:	00f417b3          	sll	x15,x8,x15
8000dc38:	fd1ff06f          	jal	x0,8000dc08 <__muldf3+0x144>
8000dc3c:	00a4e933          	or	x18,x9,x10
8000dc40:	02091063          	bne	x18,x0,8000dc60 <__muldf3+0x19c>
8000dc44:	00000493          	addi	x9,x0,0
8000dc48:	00200b13          	addi	x22,x0,2
8000dc4c:	eedff06f          	jal	x0,8000db38 <__muldf3+0x74>
8000dc50:	00000493          	addi	x9,x0,0
8000dc54:	00000993          	addi	x19,x0,0
8000dc58:	00100b13          	addi	x22,x0,1
8000dc5c:	eddff06f          	jal	x0,8000db38 <__muldf3+0x74>
8000dc60:	00050913          	addi	x18,x10,0
8000dc64:	00300b13          	addi	x22,x0,3
8000dc68:	ed1ff06f          	jal	x0,8000db38 <__muldf3+0x74>
8000dc6c:	017467b3          	or	x15,x8,x23
8000dc70:	08078063          	beq	x15,x0,8000dcf0 <__muldf3+0x22c>
8000dc74:	04040263          	beq	x8,x0,8000dcb8 <__muldf3+0x1f4>
8000dc78:	00040513          	addi	x10,x8,0 # 800000 <_start-0x7f800000>
8000dc7c:	c4cf30ef          	jal	x1,800010c8 <__clzsi2>
8000dc80:	00050793          	addi	x15,x10,0
8000dc84:	ff550713          	addi	x14,x10,-11
8000dc88:	01d00693          	addi	x13,x0,29
8000dc8c:	ff878613          	addi	x12,x15,-8
8000dc90:	40e686b3          	sub	x13,x13,x14
8000dc94:	00c41433          	sll	x8,x8,x12
8000dc98:	00dbd6b3          	srl	x13,x23,x13
8000dc9c:	0086e6b3          	or	x13,x13,x8
8000dca0:	00cb9433          	sll	x8,x23,x12
8000dca4:	c0d00713          	addi	x14,x0,-1011
8000dca8:	40f70733          	sub	x14,x14,x15
8000dcac:	00040793          	addi	x15,x8,0
8000dcb0:	00068413          	addi	x8,x13,0
8000dcb4:	ec1ff06f          	jal	x0,8000db74 <__muldf3+0xb0>
8000dcb8:	000b8513          	addi	x10,x23,0
8000dcbc:	c0cf30ef          	jal	x1,800010c8 <__clzsi2>
8000dcc0:	01550713          	addi	x14,x10,21
8000dcc4:	01c00693          	addi	x13,x0,28
8000dcc8:	02050793          	addi	x15,x10,32
8000dccc:	fae6dee3          	bge	x13,x14,8000dc88 <__muldf3+0x1c4>
8000dcd0:	ff850693          	addi	x13,x10,-8
8000dcd4:	00db96b3          	sll	x13,x23,x13
8000dcd8:	fcdff06f          	jal	x0,8000dca4 <__muldf3+0x1e0>
8000dcdc:	017467b3          	or	x15,x8,x23
8000dce0:	02079063          	bne	x15,x0,8000dd00 <__muldf3+0x23c>
8000dce4:	00000413          	addi	x8,x0,0
8000dce8:	00200813          	addi	x16,x0,2
8000dcec:	e8dff06f          	jal	x0,8000db78 <__muldf3+0xb4>
8000dcf0:	00000413          	addi	x8,x0,0
8000dcf4:	00000713          	addi	x14,x0,0
8000dcf8:	00100813          	addi	x16,x0,1
8000dcfc:	e7dff06f          	jal	x0,8000db78 <__muldf3+0xb4>
8000dd00:	000b8793          	addi	x15,x23,0
8000dd04:	00300813          	addi	x16,x0,3
8000dd08:	e71ff06f          	jal	x0,8000db78 <__muldf3+0xb4>
8000dd0c:	00e69733          	sll	x14,x13,x14
8000dd10:	53077613          	andi	x12,x14,1328
8000dd14:	02061863          	bne	x12,x0,8000dd44 <__muldf3+0x280>
8000dd18:	24077693          	andi	x13,x14,576
8000dd1c:	34069a63          	bne	x13,x0,8000e070 <__muldf3+0x5ac>
8000dd20:	08877713          	andi	x14,x14,136
8000dd24:	02070663          	beq	x14,x0,8000dd50 <__muldf3+0x28c>
8000dd28:	000a0593          	addi	x11,x20,0
8000dd2c:	e7dff06f          	jal	x0,8000dba8 <__muldf3+0xe4>
8000dd30:	00f00693          	addi	x13,x0,15
8000dd34:	34d70663          	beq	x14,x13,8000e080 <__muldf3+0x5bc>
8000dd38:	00b00693          	addi	x13,x0,11
8000dd3c:	000a8593          	addi	x11,x21,0
8000dd40:	fed704e3          	beq	x14,x13,8000dd28 <__muldf3+0x264>
8000dd44:	00048413          	addi	x8,x9,0
8000dd48:	00090793          	addi	x15,x18,0
8000dd4c:	e61ff06f          	jal	x0,8000dbac <__muldf3+0xe8>
8000dd50:	01095893          	srli	x17,x18,0x10
8000dd54:	01079e13          	slli	x28,x15,0x10
8000dd58:	01091913          	slli	x18,x18,0x10
8000dd5c:	0107d613          	srli	x12,x15,0x10
8000dd60:	01095913          	srli	x18,x18,0x10
8000dd64:	010e5e13          	srli	x28,x28,0x10
8000dd68:	03c907b3          	mul	x15,x18,x28
8000dd6c:	03c88333          	mul	x6,x17,x28
8000dd70:	0107d813          	srli	x16,x15,0x10
8000dd74:	03260733          	mul	x14,x12,x18
8000dd78:	00670733          	add	x14,x14,x6
8000dd7c:	00e80833          	add	x16,x16,x14
8000dd80:	02c886b3          	mul	x13,x17,x12
8000dd84:	00687663          	bgeu	x16,x6,8000dd90 <__muldf3+0x2cc>
8000dd88:	00010737          	lui	x14,0x10
8000dd8c:	00e686b3          	add	x13,x13,x14
8000dd90:	01045713          	srli	x14,x8,0x10
8000dd94:	01079793          	slli	x15,x15,0x10
8000dd98:	01041413          	slli	x8,x8,0x10
8000dd9c:	0107d793          	srli	x15,x15,0x10
8000dda0:	01045413          	srli	x8,x8,0x10
8000dda4:	01085f93          	srli	x31,x16,0x10
8000dda8:	01081813          	slli	x16,x16,0x10
8000ddac:	02890f33          	mul	x30,x18,x8
8000ddb0:	00f80833          	add	x16,x16,x15
8000ddb4:	03270933          	mul	x18,x14,x18
8000ddb8:	010f5313          	srli	x6,x30,0x10
8000ddbc:	028887b3          	mul	x15,x17,x8
8000ddc0:	00f90933          	add	x18,x18,x15
8000ddc4:	01230333          	add	x6,x6,x18
8000ddc8:	02e888b3          	mul	x17,x17,x14
8000ddcc:	00f37663          	bgeu	x6,x15,8000ddd8 <__muldf3+0x314>
8000ddd0:	000107b7          	lui	x15,0x10
8000ddd4:	00f888b3          	add	x17,x17,x15
8000ddd8:	010f1f13          	slli	x30,x30,0x10
8000dddc:	010f5f13          	srli	x30,x30,0x10
8000dde0:	01031793          	slli	x15,x6,0x10
8000dde4:	01e787b3          	add	x15,x15,x30
8000dde8:	0104df13          	srli	x30,x9,0x10
8000ddec:	01049493          	slli	x9,x9,0x10
8000ddf0:	0104d493          	srli	x9,x9,0x10
8000ddf4:	03c482b3          	mul	x5,x9,x28
8000ddf8:	01035e93          	srli	x29,x6,0x10
8000ddfc:	011e8eb3          	add	x29,x29,x17
8000de00:	00ff8fb3          	add	x31,x31,x15
8000de04:	03cf0e33          	mul	x28,x30,x28
8000de08:	0102d893          	srli	x17,x5,0x10
8000de0c:	03e603b3          	mul	x7,x12,x30
8000de10:	02960633          	mul	x12,x12,x9
8000de14:	01c60633          	add	x12,x12,x28
8000de18:	00c888b3          	add	x17,x17,x12
8000de1c:	01c8f663          	bgeu	x17,x28,8000de28 <__muldf3+0x364>
8000de20:	00010637          	lui	x12,0x10
8000de24:	00c383b3          	add	x7,x7,x12
8000de28:	02848633          	mul	x12,x9,x8
8000de2c:	01029293          	slli	x5,x5,0x10
8000de30:	0108d313          	srli	x6,x17,0x10
8000de34:	0102d293          	srli	x5,x5,0x10
8000de38:	01089893          	slli	x17,x17,0x10
8000de3c:	00730333          	add	x6,x6,x7
8000de40:	005888b3          	add	x17,x17,x5
8000de44:	028f0433          	mul	x8,x30,x8
8000de48:	01065e13          	srli	x28,x12,0x10
8000de4c:	03e70f33          	mul	x30,x14,x30
8000de50:	02970733          	mul	x14,x14,x9
8000de54:	00870733          	add	x14,x14,x8
8000de58:	00ee0e33          	add	x28,x28,x14
8000de5c:	008e7663          	bgeu	x28,x8,8000de68 <__muldf3+0x3a4>
8000de60:	00010737          	lui	x14,0x10
8000de64:	00ef0f33          	add	x30,x30,x14
8000de68:	01061613          	slli	x12,x12,0x10
8000de6c:	010e1713          	slli	x14,x28,0x10
8000de70:	01065613          	srli	x12,x12,0x10
8000de74:	01f686b3          	add	x13,x13,x31
8000de78:	00c70733          	add	x14,x14,x12
8000de7c:	01d70eb3          	add	x29,x14,x29
8000de80:	00f6b7b3          	sltu	x15,x13,x15
8000de84:	00fe87b3          	add	x15,x29,x15
8000de88:	011688b3          	add	x17,x13,x17
8000de8c:	00678333          	add	x6,x15,x6
8000de90:	00d8b6b3          	sltu	x13,x17,x13
8000de94:	00eeb633          	sltu	x12,x29,x14
8000de98:	00d306b3          	add	x13,x6,x13
8000de9c:	01d7beb3          	sltu	x29,x15,x29
8000dea0:	00f33733          	sltu	x14,x6,x15
8000dea4:	01d66633          	or	x12,x12,x29
8000dea8:	0066b333          	sltu	x6,x13,x6
8000deac:	010e5e13          	srli	x28,x28,0x10
8000deb0:	00989793          	slli	x15,x17,0x9
8000deb4:	01c60633          	add	x12,x12,x28
8000deb8:	00676733          	or	x14,x14,x6
8000debc:	00c70733          	add	x14,x14,x12
8000dec0:	0107e7b3          	or	x15,x15,x16
8000dec4:	01e70733          	add	x14,x14,x30
8000dec8:	00f037b3          	sltu	x15,x0,x15
8000decc:	0178d893          	srli	x17,x17,0x17
8000ded0:	00971713          	slli	x14,x14,0x9
8000ded4:	0176d413          	srli	x8,x13,0x17
8000ded8:	0117e7b3          	or	x15,x15,x17
8000dedc:	00969693          	slli	x13,x13,0x9
8000dee0:	00d7e7b3          	or	x15,x15,x13
8000dee4:	00771693          	slli	x13,x14,0x7
8000dee8:	00876433          	or	x8,x14,x8
8000deec:	0c06d263          	bge	x13,x0,8000dfb0 <__muldf3+0x4ec>
8000def0:	0017d713          	srli	x14,x15,0x1
8000def4:	0017f793          	andi	x15,x15,1
8000def8:	00f76733          	or	x14,x14,x15
8000defc:	01f41793          	slli	x15,x8,0x1f
8000df00:	00f767b3          	or	x15,x14,x15
8000df04:	00145413          	srli	x8,x8,0x1
8000df08:	3ff50713          	addi	x14,x10,1023
8000df0c:	0ae05663          	bge	x0,x14,8000dfb8 <__muldf3+0x4f4>
8000df10:	0077f693          	andi	x13,x15,7
8000df14:	02068063          	beq	x13,x0,8000df34 <__muldf3+0x470>
8000df18:	00f7f693          	andi	x13,x15,15
8000df1c:	00400613          	addi	x12,x0,4
8000df20:	00c68a63          	beq	x13,x12,8000df34 <__muldf3+0x470>
8000df24:	00c786b3          	add	x13,x15,x12
8000df28:	00f6b633          	sltu	x12,x13,x15
8000df2c:	00c40433          	add	x8,x8,x12
8000df30:	00068793          	addi	x15,x13,0
8000df34:	00741693          	slli	x13,x8,0x7
8000df38:	0006da63          	bge	x13,x0,8000df4c <__muldf3+0x488>
8000df3c:	ff000737          	lui	x14,0xff000
8000df40:	fff70713          	addi	x14,x14,-1 # feffffff <_stack_top+0x76ffffff>
8000df44:	00e47433          	and	x8,x8,x14
8000df48:	40050713          	addi	x14,x10,1024
8000df4c:	7fe00693          	addi	x13,x0,2046
8000df50:	12e6ce63          	blt	x13,x14,8000e08c <__muldf3+0x5c8>
8000df54:	01d41613          	slli	x12,x8,0x1d
8000df58:	0037d793          	srli	x15,x15,0x3
8000df5c:	00f66633          	or	x12,x12,x15
8000df60:	00345413          	srli	x8,x8,0x3
8000df64:	00c41413          	slli	x8,x8,0xc
8000df68:	00c45413          	srli	x8,x8,0xc
8000df6c:	01471713          	slli	x14,x14,0x14
8000df70:	02c12083          	lw	x1,44(x2)
8000df74:	00876733          	or	x14,x14,x8
8000df78:	02812403          	lw	x8,40(x2)
8000df7c:	01f59593          	slli	x11,x11,0x1f
8000df80:	00b767b3          	or	x15,x14,x11
8000df84:	02412483          	lw	x9,36(x2)
8000df88:	02012903          	lw	x18,32(x2)
8000df8c:	01c12983          	lw	x19,28(x2)
8000df90:	01812a03          	lw	x20,24(x2)
8000df94:	01412a83          	lw	x21,20(x2)
8000df98:	01012b03          	lw	x22,16(x2)
8000df9c:	00c12b83          	lw	x23,12(x2)
8000dfa0:	00060513          	addi	x10,x12,0 # 10000 <_start-0x7fff0000>
8000dfa4:	00078593          	addi	x11,x15,0 # 10000 <_start-0x7fff0000>
8000dfa8:	03010113          	addi	x2,x2,48
8000dfac:	00008067          	jalr	x0,0(x1)
8000dfb0:	00098513          	addi	x10,x19,0
8000dfb4:	f55ff06f          	jal	x0,8000df08 <__muldf3+0x444>
8000dfb8:	08070063          	beq	x14,x0,8000e038 <__muldf3+0x574>
8000dfbc:	fc900693          	addi	x13,x0,-55
8000dfc0:	c0d742e3          	blt	x14,x13,8000dbc4 <__muldf3+0x100>
8000dfc4:	fe200693          	addi	x13,x0,-30
8000dfc8:	06d74c63          	blt	x14,x13,8000e040 <__muldf3+0x57c>
8000dfcc:	00100693          	addi	x13,x0,1
8000dfd0:	40e68733          	sub	x14,x13,x14
8000dfd4:	41e50513          	addi	x10,x10,1054
8000dfd8:	00e7d6b3          	srl	x13,x15,x14
8000dfdc:	00a797b3          	sll	x15,x15,x10
8000dfe0:	00f037b3          	sltu	x15,x0,x15
8000dfe4:	00a41533          	sll	x10,x8,x10
8000dfe8:	00a7e7b3          	or	x15,x15,x10
8000dfec:	00d7e7b3          	or	x15,x15,x13
8000dff0:	00e45433          	srl	x8,x8,x14
8000dff4:	0077f713          	andi	x14,x15,7
8000dff8:	02070063          	beq	x14,x0,8000e018 <__muldf3+0x554>
8000dffc:	00f7f713          	andi	x14,x15,15
8000e000:	00400693          	addi	x13,x0,4
8000e004:	00d70a63          	beq	x14,x13,8000e018 <__muldf3+0x554>
8000e008:	00d78733          	add	x14,x15,x13
8000e00c:	00f736b3          	sltu	x13,x14,x15
8000e010:	00d40433          	add	x8,x8,x13
8000e014:	00070793          	addi	x15,x14,0
8000e018:	00841713          	slli	x14,x8,0x8
8000e01c:	08074063          	blt	x14,x0,8000e09c <__muldf3+0x5d8>
8000e020:	01d41613          	slli	x12,x8,0x1d
8000e024:	0037d793          	srli	x15,x15,0x3
8000e028:	00f66633          	or	x12,x12,x15
8000e02c:	00345413          	srli	x8,x8,0x3
8000e030:	00000713          	addi	x14,x0,0
8000e034:	f31ff06f          	jal	x0,8000df64 <__muldf3+0x4a0>
8000e038:	00100713          	addi	x14,x0,1
8000e03c:	f99ff06f          	jal	x0,8000dfd4 <__muldf3+0x510>
8000e040:	fe100813          	addi	x16,x0,-31
8000e044:	40e806b3          	sub	x13,x16,x14
8000e048:	00d456b3          	srl	x13,x8,x13
8000e04c:	00000613          	addi	x12,x0,0
8000e050:	01070663          	beq	x14,x16,8000e05c <__muldf3+0x598>
8000e054:	43e50513          	addi	x10,x10,1086
8000e058:	00a41633          	sll	x12,x8,x10
8000e05c:	00c7e7b3          	or	x15,x15,x12
8000e060:	00f037b3          	sltu	x15,x0,x15
8000e064:	00f6e7b3          	or	x15,x13,x15
8000e068:	00000413          	addi	x8,x0,0
8000e06c:	f89ff06f          	jal	x0,8000dff4 <__muldf3+0x530>
8000e070:	00080437          	lui	x8,0x80
8000e074:	7ff00713          	addi	x14,x0,2047
8000e078:	00000593          	addi	x11,x0,0
8000e07c:	ee9ff06f          	jal	x0,8000df64 <__muldf3+0x4a0>
8000e080:	00080437          	lui	x8,0x80
8000e084:	00000613          	addi	x12,x0,0
8000e088:	fedff06f          	jal	x0,8000e074 <__muldf3+0x5b0>
8000e08c:	00000413          	addi	x8,x0,0
8000e090:	00000613          	addi	x12,x0,0
8000e094:	7ff00713          	addi	x14,x0,2047
8000e098:	ecdff06f          	jal	x0,8000df64 <__muldf3+0x4a0>
8000e09c:	00000413          	addi	x8,x0,0
8000e0a0:	00000613          	addi	x12,x0,0
8000e0a4:	00100713          	addi	x14,x0,1
8000e0a8:	ebdff06f          	jal	x0,8000df64 <__muldf3+0x4a0>

8000e0ac <__subdf3>:
8000e0ac:	00100837          	lui	x16,0x100
8000e0b0:	fff80813          	addi	x16,x16,-1 # fffff <_start-0x7ff00001>
8000e0b4:	fe010113          	addi	x2,x2,-32
8000e0b8:	00b877b3          	and	x15,x16,x11
8000e0bc:	0145d713          	srli	x14,x11,0x14
8000e0c0:	00d87833          	and	x16,x16,x13
8000e0c4:	0146d893          	srli	x17,x13,0x14
8000e0c8:	00912a23          	sw	x9,20(x2)
8000e0cc:	00379793          	slli	x15,x15,0x3
8000e0d0:	7ff77493          	andi	x9,x14,2047
8000e0d4:	01d55713          	srli	x14,x10,0x1d
8000e0d8:	01212823          	sw	x18,16(x2)
8000e0dc:	00f767b3          	or	x15,x14,x15
8000e0e0:	01f5d913          	srli	x18,x11,0x1f
8000e0e4:	01d65713          	srli	x14,x12,0x1d
8000e0e8:	00381813          	slli	x16,x16,0x3
8000e0ec:	00112e23          	sw	x1,28(x2)
8000e0f0:	00812c23          	sw	x8,24(x2)
8000e0f4:	01312623          	sw	x19,12(x2)
8000e0f8:	7ff8f893          	andi	x17,x17,2047
8000e0fc:	7ff00593          	addi	x11,x0,2047
8000e100:	00351513          	slli	x10,x10,0x3
8000e104:	01f6d693          	srli	x13,x13,0x1f
8000e108:	01076733          	or	x14,x14,x16
8000e10c:	00361613          	slli	x12,x12,0x3
8000e110:	00b89663          	bne	x17,x11,8000e11c <__subdf3+0x70>
8000e114:	00c765b3          	or	x11,x14,x12
8000e118:	00059463          	bne	x11,x0,8000e120 <__subdf3+0x74>
8000e11c:	0016c693          	xori	x13,x13,1
8000e120:	41148833          	sub	x16,x9,x17
8000e124:	7ff00593          	addi	x11,x0,2047
8000e128:	31269463          	bne	x13,x18,8000e430 <__subdf3+0x384>
8000e12c:	11005263          	bge	x0,x16,8000e230 <__subdf3+0x184>
8000e130:	02089c63          	bne	x17,x0,8000e168 <__subdf3+0xbc>
8000e134:	00c766b3          	or	x13,x14,x12
8000e138:	02068463          	beq	x13,x0,8000e160 <__subdf3+0xb4>
8000e13c:	fff48813          	addi	x16,x9,-1
8000e140:	00081e63          	bne	x16,x0,8000e15c <__subdf3+0xb0>
8000e144:	00c50633          	add	x12,x10,x12
8000e148:	00e787b3          	add	x15,x15,x14
8000e14c:	00a63533          	sltu	x10,x12,x10
8000e150:	00a787b3          	add	x15,x15,x10
8000e154:	00100493          	addi	x9,x0,1
8000e158:	0600006f          	jal	x0,8000e1b8 <__subdf3+0x10c>
8000e15c:	00b49c63          	bne	x9,x11,8000e174 <__subdf3+0xc8>
8000e160:	00050613          	addi	x12,x10,0
8000e164:	1d80006f          	jal	x0,8000e33c <__subdf3+0x290>
8000e168:	feb48ce3          	beq	x9,x11,8000e160 <__subdf3+0xb4>
8000e16c:	008006b7          	lui	x13,0x800
8000e170:	00d76733          	or	x14,x14,x13
8000e174:	03800693          	addi	x13,x0,56
8000e178:	0b06c663          	blt	x13,x16,8000e224 <__subdf3+0x178>
8000e17c:	01f00693          	addi	x13,x0,31
8000e180:	02000893          	addi	x17,x0,32
8000e184:	0706c863          	blt	x13,x16,8000e1f4 <__subdf3+0x148>
8000e188:	410888b3          	sub	x17,x17,x16
8000e18c:	011716b3          	sll	x13,x14,x17
8000e190:	010655b3          	srl	x11,x12,x16
8000e194:	011618b3          	sll	x17,x12,x17
8000e198:	00b6e6b3          	or	x13,x13,x11
8000e19c:	011038b3          	sltu	x17,x0,x17
8000e1a0:	0116e6b3          	or	x13,x13,x17
8000e1a4:	01075833          	srl	x16,x14,x16
8000e1a8:	00a68633          	add	x12,x13,x10
8000e1ac:	00f80833          	add	x16,x16,x15
8000e1b0:	00d636b3          	sltu	x13,x12,x13
8000e1b4:	00d807b3          	add	x15,x16,x13
8000e1b8:	00879713          	slli	x14,x15,0x8
8000e1bc:	22075663          	bge	x14,x0,8000e3e8 <__subdf3+0x33c>
8000e1c0:	00148493          	addi	x9,x9,1
8000e1c4:	7ff00713          	addi	x14,x0,2047
8000e1c8:	60e48863          	beq	x9,x14,8000e7d8 <__subdf3+0x72c>
8000e1cc:	ff800737          	lui	x14,0xff800
8000e1d0:	fff70713          	addi	x14,x14,-1 # ff7fffff <_stack_top+0x777fffff>
8000e1d4:	00e7f7b3          	and	x15,x15,x14
8000e1d8:	00165713          	srli	x14,x12,0x1
8000e1dc:	00167613          	andi	x12,x12,1
8000e1e0:	00c76733          	or	x14,x14,x12
8000e1e4:	01f79613          	slli	x12,x15,0x1f
8000e1e8:	00e66633          	or	x12,x12,x14
8000e1ec:	0017d793          	srli	x15,x15,0x1
8000e1f0:	1f80006f          	jal	x0,8000e3e8 <__subdf3+0x33c>
8000e1f4:	fe080693          	addi	x13,x16,-32
8000e1f8:	00d756b3          	srl	x13,x14,x13
8000e1fc:	00000593          	addi	x11,x0,0
8000e200:	01180863          	beq	x16,x17,8000e210 <__subdf3+0x164>
8000e204:	04000593          	addi	x11,x0,64
8000e208:	410585b3          	sub	x11,x11,x16
8000e20c:	00b715b3          	sll	x11,x14,x11
8000e210:	00c5e5b3          	or	x11,x11,x12
8000e214:	00b035b3          	sltu	x11,x0,x11
8000e218:	00b6e6b3          	or	x13,x13,x11
8000e21c:	00000813          	addi	x16,x0,0
8000e220:	f89ff06f          	jal	x0,8000e1a8 <__subdf3+0xfc>
8000e224:	00c766b3          	or	x13,x14,x12
8000e228:	00d036b3          	sltu	x13,x0,x13
8000e22c:	ff1ff06f          	jal	x0,8000e21c <__subdf3+0x170>
8000e230:	0c080263          	beq	x16,x0,8000e2f4 <__subdf3+0x248>
8000e234:	409886b3          	sub	x13,x17,x9
8000e238:	02049263          	bne	x9,x0,8000e25c <__subdf3+0x1b0>
8000e23c:	00a7e833          	or	x16,x15,x10
8000e240:	00080863          	beq	x16,x0,8000e250 <__subdf3+0x1a4>
8000e244:	fff68813          	addi	x16,x13,-1 # 7fffff <_start-0x7f800001>
8000e248:	ee080ee3          	beq	x16,x0,8000e144 <__subdf3+0x98>
8000e24c:	02b69063          	bne	x13,x11,8000e26c <__subdf3+0x1c0>
8000e250:	00070793          	addi	x15,x14,0
8000e254:	00068493          	addi	x9,x13,0
8000e258:	0e40006f          	jal	x0,8000e33c <__subdf3+0x290>
8000e25c:	58b88663          	beq	x17,x11,8000e7e8 <__subdf3+0x73c>
8000e260:	008005b7          	lui	x11,0x800
8000e264:	00b7e7b3          	or	x15,x15,x11
8000e268:	00068813          	addi	x16,x13,0
8000e26c:	03800693          	addi	x13,x0,56
8000e270:	0706cc63          	blt	x13,x16,8000e2e8 <__subdf3+0x23c>
8000e274:	01f00693          	addi	x13,x0,31
8000e278:	02000313          	addi	x6,x0,32
8000e27c:	0306ce63          	blt	x13,x16,8000e2b8 <__subdf3+0x20c>
8000e280:	41030333          	sub	x6,x6,x16
8000e284:	006796b3          	sll	x13,x15,x6
8000e288:	010555b3          	srl	x11,x10,x16
8000e28c:	00651333          	sll	x6,x10,x6
8000e290:	00b6e6b3          	or	x13,x13,x11
8000e294:	00603333          	sltu	x6,x0,x6
8000e298:	0066e6b3          	or	x13,x13,x6
8000e29c:	0107d833          	srl	x16,x15,x16
8000e2a0:	00c68633          	add	x12,x13,x12
8000e2a4:	00e80833          	add	x16,x16,x14
8000e2a8:	00d636b3          	sltu	x13,x12,x13
8000e2ac:	00d807b3          	add	x15,x16,x13
8000e2b0:	00088493          	addi	x9,x17,0 # 10000 <_start-0x7fff0000>
8000e2b4:	f05ff06f          	jal	x0,8000e1b8 <__subdf3+0x10c>
8000e2b8:	fe080693          	addi	x13,x16,-32
8000e2bc:	00d7d6b3          	srl	x13,x15,x13
8000e2c0:	00000593          	addi	x11,x0,0
8000e2c4:	00680863          	beq	x16,x6,8000e2d4 <__subdf3+0x228>
8000e2c8:	04000593          	addi	x11,x0,64
8000e2cc:	410585b3          	sub	x11,x11,x16
8000e2d0:	00b795b3          	sll	x11,x15,x11
8000e2d4:	00a5e5b3          	or	x11,x11,x10
8000e2d8:	00b035b3          	sltu	x11,x0,x11
8000e2dc:	00b6e6b3          	or	x13,x13,x11
8000e2e0:	00000813          	addi	x16,x0,0
8000e2e4:	fbdff06f          	jal	x0,8000e2a0 <__subdf3+0x1f4>
8000e2e8:	00a7e6b3          	or	x13,x15,x10
8000e2ec:	00d036b3          	sltu	x13,x0,x13
8000e2f0:	ff1ff06f          	jal	x0,8000e2e0 <__subdf3+0x234>
8000e2f4:	00148693          	addi	x13,x9,1
8000e2f8:	7fe6f813          	andi	x16,x13,2046
8000e2fc:	0c081263          	bne	x16,x0,8000e3c0 <__subdf3+0x314>
8000e300:	00a7e6b3          	or	x13,x15,x10
8000e304:	0a049463          	bne	x9,x0,8000e3ac <__subdf3+0x300>
8000e308:	4a068863          	beq	x13,x0,8000e7b8 <__subdf3+0x70c>
8000e30c:	00c766b3          	or	x13,x14,x12
8000e310:	4a068863          	beq	x13,x0,8000e7c0 <__subdf3+0x714>
8000e314:	00c50633          	add	x12,x10,x12
8000e318:	00e787b3          	add	x15,x15,x14
8000e31c:	00a63533          	sltu	x10,x12,x10
8000e320:	00a787b3          	add	x15,x15,x10
8000e324:	00879713          	slli	x14,x15,0x8
8000e328:	32075a63          	bge	x14,x0,8000e65c <__subdf3+0x5b0>
8000e32c:	ff800737          	lui	x14,0xff800
8000e330:	fff70713          	addi	x14,x14,-1 # ff7fffff <_stack_top+0x777fffff>
8000e334:	00e7f7b3          	and	x15,x15,x14
8000e338:	00100493          	addi	x9,x0,1
8000e33c:	01d79693          	slli	x13,x15,0x1d
8000e340:	00365613          	srli	x12,x12,0x3
8000e344:	7ff00713          	addi	x14,x0,2047
8000e348:	00c6e6b3          	or	x13,x13,x12
8000e34c:	0037d793          	srli	x15,x15,0x3
8000e350:	00e49e63          	bne	x9,x14,8000e36c <__subdf3+0x2c0>
8000e354:	00f6e6b3          	or	x13,x13,x15
8000e358:	00000793          	addi	x15,x0,0
8000e35c:	00068863          	beq	x13,x0,8000e36c <__subdf3+0x2c0>
8000e360:	000807b7          	lui	x15,0x80
8000e364:	00000693          	addi	x13,x0,0
8000e368:	00000913          	addi	x18,x0,0
8000e36c:	7ff4f713          	andi	x14,x9,2047
8000e370:	00c79793          	slli	x15,x15,0xc
8000e374:	01c12083          	lw	x1,28(x2)
8000e378:	01812403          	lw	x8,24(x2)
8000e37c:	00c7d793          	srli	x15,x15,0xc
8000e380:	01471713          	slli	x14,x14,0x14
8000e384:	01f91593          	slli	x11,x18,0x1f
8000e388:	00f76733          	or	x14,x14,x15
8000e38c:	00b767b3          	or	x15,x14,x11
8000e390:	01412483          	lw	x9,20(x2)
8000e394:	01012903          	lw	x18,16(x2)
8000e398:	00c12983          	lw	x19,12(x2)
8000e39c:	00068513          	addi	x10,x13,0
8000e3a0:	00078593          	addi	x11,x15,0 # 80000 <_start-0x7ff80000>
8000e3a4:	02010113          	addi	x2,x2,32
8000e3a8:	00008067          	jalr	x0,0(x1)
8000e3ac:	40068e63          	beq	x13,x0,8000e7c8 <__subdf3+0x71c>
8000e3b0:	00c76733          	or	x14,x14,x12
8000e3b4:	2c071c63          	bne	x14,x0,8000e68c <__subdf3+0x5e0>
8000e3b8:	00050613          	addi	x12,x10,0
8000e3bc:	4100006f          	jal	x0,8000e7cc <__subdf3+0x720>
8000e3c0:	40b68a63          	beq	x13,x11,8000e7d4 <__subdf3+0x728>
8000e3c4:	00c50633          	add	x12,x10,x12
8000e3c8:	00e787b3          	add	x15,x15,x14
8000e3cc:	00a63533          	sltu	x10,x12,x10
8000e3d0:	00a787b3          	add	x15,x15,x10
8000e3d4:	01f79713          	slli	x14,x15,0x1f
8000e3d8:	00165613          	srli	x12,x12,0x1
8000e3dc:	00c76633          	or	x12,x14,x12
8000e3e0:	0017d793          	srli	x15,x15,0x1
8000e3e4:	00068493          	addi	x9,x13,0
8000e3e8:	00767713          	andi	x14,x12,7
8000e3ec:	02070063          	beq	x14,x0,8000e40c <__subdf3+0x360>
8000e3f0:	00f67713          	andi	x14,x12,15
8000e3f4:	00400693          	addi	x13,x0,4
8000e3f8:	00d70a63          	beq	x14,x13,8000e40c <__subdf3+0x360>
8000e3fc:	00d60733          	add	x14,x12,x13
8000e400:	00c736b3          	sltu	x13,x14,x12
8000e404:	00d787b3          	add	x15,x15,x13
8000e408:	00070613          	addi	x12,x14,0
8000e40c:	00879713          	slli	x14,x15,0x8
8000e410:	f20756e3          	bge	x14,x0,8000e33c <__subdf3+0x290>
8000e414:	00148493          	addi	x9,x9,1
8000e418:	7ff00713          	addi	x14,x0,2047
8000e41c:	3ae48e63          	beq	x9,x14,8000e7d8 <__subdf3+0x72c>
8000e420:	ff800737          	lui	x14,0xff800
8000e424:	fff70713          	addi	x14,x14,-1 # ff7fffff <_stack_top+0x777fffff>
8000e428:	00e7f7b3          	and	x15,x15,x14
8000e42c:	f11ff06f          	jal	x0,8000e33c <__subdf3+0x290>
8000e430:	0f005063          	bge	x0,x16,8000e510 <__subdf3+0x464>
8000e434:	08089863          	bne	x17,x0,8000e4c4 <__subdf3+0x418>
8000e438:	00c766b3          	or	x13,x14,x12
8000e43c:	d20682e3          	beq	x13,x0,8000e160 <__subdf3+0xb4>
8000e440:	fff48813          	addi	x16,x9,-1
8000e444:	00081e63          	bne	x16,x0,8000e460 <__subdf3+0x3b4>
8000e448:	40c50633          	sub	x12,x10,x12
8000e44c:	40e787b3          	sub	x15,x15,x14
8000e450:	00c53533          	sltu	x10,x10,x12
8000e454:	40a787b3          	sub	x15,x15,x10
8000e458:	00100493          	addi	x9,x0,1
8000e45c:	04c0006f          	jal	x0,8000e4a8 <__subdf3+0x3fc>
8000e460:	d0b480e3          	beq	x9,x11,8000e160 <__subdf3+0xb4>
8000e464:	03800693          	addi	x13,x0,56
8000e468:	0906ce63          	blt	x13,x16,8000e504 <__subdf3+0x458>
8000e46c:	01f00693          	addi	x13,x0,31
8000e470:	02000893          	addi	x17,x0,32
8000e474:	0706c063          	blt	x13,x16,8000e4d4 <__subdf3+0x428>
8000e478:	410888b3          	sub	x17,x17,x16
8000e47c:	011716b3          	sll	x13,x14,x17
8000e480:	010655b3          	srl	x11,x12,x16
8000e484:	011618b3          	sll	x17,x12,x17
8000e488:	00b6e6b3          	or	x13,x13,x11
8000e48c:	011038b3          	sltu	x17,x0,x17
8000e490:	0116e6b3          	or	x13,x13,x17
8000e494:	01075833          	srl	x16,x14,x16
8000e498:	40d50633          	sub	x12,x10,x13
8000e49c:	41078833          	sub	x16,x15,x16
8000e4a0:	00c53533          	sltu	x10,x10,x12
8000e4a4:	40a807b3          	sub	x15,x16,x10
8000e4a8:	00879713          	slli	x14,x15,0x8
8000e4ac:	f2075ee3          	bge	x14,x0,8000e3e8 <__subdf3+0x33c>
8000e4b0:	00800437          	lui	x8,0x800
8000e4b4:	fff40413          	addi	x8,x8,-1 # 7fffff <_start-0x7f800001>
8000e4b8:	0087f433          	and	x8,x15,x8
8000e4bc:	00060993          	addi	x19,x12,0
8000e4c0:	2140006f          	jal	x0,8000e6d4 <__subdf3+0x628>
8000e4c4:	c8b48ee3          	beq	x9,x11,8000e160 <__subdf3+0xb4>
8000e4c8:	008006b7          	lui	x13,0x800
8000e4cc:	00d76733          	or	x14,x14,x13
8000e4d0:	f95ff06f          	jal	x0,8000e464 <__subdf3+0x3b8>
8000e4d4:	fe080693          	addi	x13,x16,-32
8000e4d8:	00d756b3          	srl	x13,x14,x13
8000e4dc:	00000593          	addi	x11,x0,0
8000e4e0:	01180863          	beq	x16,x17,8000e4f0 <__subdf3+0x444>
8000e4e4:	04000593          	addi	x11,x0,64
8000e4e8:	410585b3          	sub	x11,x11,x16
8000e4ec:	00b715b3          	sll	x11,x14,x11
8000e4f0:	00c5e5b3          	or	x11,x11,x12
8000e4f4:	00b035b3          	sltu	x11,x0,x11
8000e4f8:	00b6e6b3          	or	x13,x13,x11
8000e4fc:	00000813          	addi	x16,x0,0
8000e500:	f99ff06f          	jal	x0,8000e498 <__subdf3+0x3ec>
8000e504:	00c766b3          	or	x13,x14,x12
8000e508:	00d036b3          	sltu	x13,x0,x13
8000e50c:	ff1ff06f          	jal	x0,8000e4fc <__subdf3+0x450>
8000e510:	0e080663          	beq	x16,x0,8000e5fc <__subdf3+0x550>
8000e514:	40988333          	sub	x6,x17,x9
8000e518:	04049263          	bne	x9,x0,8000e55c <__subdf3+0x4b0>
8000e51c:	00a7e833          	or	x16,x15,x10
8000e520:	02080663          	beq	x16,x0,8000e54c <__subdf3+0x4a0>
8000e524:	fff30813          	addi	x16,x6,-1
8000e528:	02081063          	bne	x16,x0,8000e548 <__subdf3+0x49c>
8000e52c:	40a60533          	sub	x10,x12,x10
8000e530:	00a635b3          	sltu	x11,x12,x10
8000e534:	40f707b3          	sub	x15,x14,x15
8000e538:	00050613          	addi	x12,x10,0
8000e53c:	40b787b3          	sub	x15,x15,x11
8000e540:	00068913          	addi	x18,x13,0 # 800000 <_start-0x7f800000>
8000e544:	f15ff06f          	jal	x0,8000e458 <__subdf3+0x3ac>
8000e548:	02b31263          	bne	x6,x11,8000e56c <__subdf3+0x4c0>
8000e54c:	00068913          	addi	x18,x13,0
8000e550:	00070793          	addi	x15,x14,0
8000e554:	00030493          	addi	x9,x6,0
8000e558:	de5ff06f          	jal	x0,8000e33c <__subdf3+0x290>
8000e55c:	28b88463          	beq	x17,x11,8000e7e4 <__subdf3+0x738>
8000e560:	008005b7          	lui	x11,0x800
8000e564:	00b7e7b3          	or	x15,x15,x11
8000e568:	00030813          	addi	x16,x6,0
8000e56c:	03800593          	addi	x11,x0,56
8000e570:	0905c063          	blt	x11,x16,8000e5f0 <__subdf3+0x544>
8000e574:	01f00593          	addi	x11,x0,31
8000e578:	02000e13          	addi	x28,x0,32
8000e57c:	0505c263          	blt	x11,x16,8000e5c0 <__subdf3+0x514>
8000e580:	410e0e33          	sub	x28,x28,x16
8000e584:	01c795b3          	sll	x11,x15,x28
8000e588:	01055333          	srl	x6,x10,x16
8000e58c:	01c51e33          	sll	x28,x10,x28
8000e590:	0065e5b3          	or	x11,x11,x6
8000e594:	01c03e33          	sltu	x28,x0,x28
8000e598:	01c5e5b3          	or	x11,x11,x28
8000e59c:	0107d833          	srl	x16,x15,x16
8000e5a0:	40b605b3          	sub	x11,x12,x11
8000e5a4:	00b637b3          	sltu	x15,x12,x11
8000e5a8:	41070833          	sub	x16,x14,x16
8000e5ac:	00058613          	addi	x12,x11,0 # 800000 <_start-0x7f800000>
8000e5b0:	40f807b3          	sub	x15,x16,x15
8000e5b4:	00088493          	addi	x9,x17,0
8000e5b8:	00068913          	addi	x18,x13,0
8000e5bc:	eedff06f          	jal	x0,8000e4a8 <__subdf3+0x3fc>
8000e5c0:	fe080593          	addi	x11,x16,-32
8000e5c4:	00b7d5b3          	srl	x11,x15,x11
8000e5c8:	00000313          	addi	x6,x0,0
8000e5cc:	01c80863          	beq	x16,x28,8000e5dc <__subdf3+0x530>
8000e5d0:	04000313          	addi	x6,x0,64
8000e5d4:	41030333          	sub	x6,x6,x16
8000e5d8:	00679333          	sll	x6,x15,x6
8000e5dc:	00a36333          	or	x6,x6,x10
8000e5e0:	00603333          	sltu	x6,x0,x6
8000e5e4:	0065e5b3          	or	x11,x11,x6
8000e5e8:	00000813          	addi	x16,x0,0
8000e5ec:	fb5ff06f          	jal	x0,8000e5a0 <__subdf3+0x4f4>
8000e5f0:	00a7e5b3          	or	x11,x15,x10
8000e5f4:	00b035b3          	sltu	x11,x0,x11
8000e5f8:	ff1ff06f          	jal	x0,8000e5e8 <__subdf3+0x53c>
8000e5fc:	00148813          	addi	x16,x9,1
8000e600:	7fe87813          	andi	x16,x16,2046
8000e604:	0a081063          	bne	x16,x0,8000e6a4 <__subdf3+0x5f8>
8000e608:	00c76833          	or	x16,x14,x12
8000e60c:	00a7e8b3          	or	x17,x15,x10
8000e610:	06049863          	bne	x9,x0,8000e680 <__subdf3+0x5d4>
8000e614:	00089a63          	bne	x17,x0,8000e628 <__subdf3+0x57c>
8000e618:	00070793          	addi	x15,x14,0
8000e61c:	02081e63          	bne	x16,x0,8000e658 <__subdf3+0x5ac>
8000e620:	00000913          	addi	x18,x0,0
8000e624:	1b40006f          	jal	x0,8000e7d8 <__subdf3+0x72c>
8000e628:	18080c63          	beq	x16,x0,8000e7c0 <__subdf3+0x714>
8000e62c:	40c50833          	sub	x16,x10,x12
8000e630:	010538b3          	sltu	x17,x10,x16
8000e634:	40e785b3          	sub	x11,x15,x14
8000e638:	411585b3          	sub	x11,x11,x17
8000e63c:	00859893          	slli	x17,x11,0x8
8000e640:	0208d663          	bge	x17,x0,8000e66c <__subdf3+0x5c0>
8000e644:	40a60533          	sub	x10,x12,x10
8000e648:	00a635b3          	sltu	x11,x12,x10
8000e64c:	40f707b3          	sub	x15,x14,x15
8000e650:	00050613          	addi	x12,x10,0
8000e654:	40b787b3          	sub	x15,x15,x11
8000e658:	00068913          	addi	x18,x13,0
8000e65c:	00f66733          	or	x14,x12,x15
8000e660:	1a070063          	beq	x14,x0,8000e800 <__subdf3+0x754>
8000e664:	00000493          	addi	x9,x0,0
8000e668:	d81ff06f          	jal	x0,8000e3e8 <__subdf3+0x33c>
8000e66c:	00b86633          	or	x12,x16,x11
8000e670:	18060263          	beq	x12,x0,8000e7f4 <__subdf3+0x748>
8000e674:	00058793          	addi	x15,x11,0
8000e678:	00080613          	addi	x12,x16,0
8000e67c:	fe1ff06f          	jal	x0,8000e65c <__subdf3+0x5b0>
8000e680:	00089e63          	bne	x17,x0,8000e69c <__subdf3+0x5f0>
8000e684:	00068913          	addi	x18,x13,0
8000e688:	14081063          	bne	x16,x0,8000e7c8 <__subdf3+0x71c>
8000e68c:	00000913          	addi	x18,x0,0
8000e690:	004007b7          	lui	x15,0x400
8000e694:	00000613          	addi	x12,x0,0
8000e698:	1340006f          	jal	x0,8000e7cc <__subdf3+0x720>
8000e69c:	d0080ee3          	beq	x16,x0,8000e3b8 <__subdf3+0x30c>
8000e6a0:	fedff06f          	jal	x0,8000e68c <__subdf3+0x5e0>
8000e6a4:	40c505b3          	sub	x11,x10,x12
8000e6a8:	00b53833          	sltu	x16,x10,x11
8000e6ac:	40e78433          	sub	x8,x15,x14
8000e6b0:	41040433          	sub	x8,x8,x16
8000e6b4:	00841813          	slli	x16,x8,0x8
8000e6b8:	00058993          	addi	x19,x11,0
8000e6bc:	06085e63          	bge	x16,x0,8000e738 <__subdf3+0x68c>
8000e6c0:	40a609b3          	sub	x19,x12,x10
8000e6c4:	40f70433          	sub	x8,x14,x15
8000e6c8:	01363633          	sltu	x12,x12,x19
8000e6cc:	40c40433          	sub	x8,x8,x12
8000e6d0:	00068913          	addi	x18,x13,0
8000e6d4:	06040e63          	beq	x8,x0,8000e750 <__subdf3+0x6a4>
8000e6d8:	00040513          	addi	x10,x8,0
8000e6dc:	9edf20ef          	jal	x1,800010c8 <__clzsi2>
8000e6e0:	ff850713          	addi	x14,x10,-8
8000e6e4:	02000793          	addi	x15,x0,32
8000e6e8:	40e787b3          	sub	x15,x15,x14
8000e6ec:	00e41433          	sll	x8,x8,x14
8000e6f0:	00f9d7b3          	srl	x15,x19,x15
8000e6f4:	0087e7b3          	or	x15,x15,x8
8000e6f8:	00e99633          	sll	x12,x19,x14
8000e6fc:	0a974463          	blt	x14,x9,8000e7a4 <__subdf3+0x6f8>
8000e700:	40970733          	sub	x14,x14,x9
8000e704:	00170513          	addi	x10,x14,1
8000e708:	01f00693          	addi	x13,x0,31
8000e70c:	02000593          	addi	x11,x0,32
8000e710:	06a6c263          	blt	x13,x10,8000e774 <__subdf3+0x6c8>
8000e714:	40a585b3          	sub	x11,x11,x10
8000e718:	00b79733          	sll	x14,x15,x11
8000e71c:	00a656b3          	srl	x13,x12,x10
8000e720:	00b615b3          	sll	x11,x12,x11
8000e724:	00d76733          	or	x14,x14,x13
8000e728:	00b035b3          	sltu	x11,x0,x11
8000e72c:	00b76633          	or	x12,x14,x11
8000e730:	00a7d7b3          	srl	x15,x15,x10
8000e734:	f29ff06f          	jal	x0,8000e65c <__subdf3+0x5b0>
8000e738:	0085e633          	or	x12,x11,x8
8000e73c:	f8061ce3          	bne	x12,x0,8000e6d4 <__subdf3+0x628>
8000e740:	00000913          	addi	x18,x0,0
8000e744:	00000793          	addi	x15,x0,0
8000e748:	00000493          	addi	x9,x0,0
8000e74c:	bf1ff06f          	jal	x0,8000e33c <__subdf3+0x290>
8000e750:	00098513          	addi	x10,x19,0
8000e754:	975f20ef          	jal	x1,800010c8 <__clzsi2>
8000e758:	01850713          	addi	x14,x10,24
8000e75c:	01f00793          	addi	x15,x0,31
8000e760:	f8e7d2e3          	bge	x15,x14,8000e6e4 <__subdf3+0x638>
8000e764:	ff850793          	addi	x15,x10,-8
8000e768:	00f997b3          	sll	x15,x19,x15
8000e76c:	00000613          	addi	x12,x0,0
8000e770:	f8dff06f          	jal	x0,8000e6fc <__subdf3+0x650>
8000e774:	fe170713          	addi	x14,x14,-31
8000e778:	00e7d733          	srl	x14,x15,x14
8000e77c:	00000693          	addi	x13,x0,0
8000e780:	00b50863          	beq	x10,x11,8000e790 <__subdf3+0x6e4>
8000e784:	04000693          	addi	x13,x0,64
8000e788:	40a686b3          	sub	x13,x13,x10
8000e78c:	00d796b3          	sll	x13,x15,x13
8000e790:	00d666b3          	or	x13,x12,x13
8000e794:	00d036b3          	sltu	x13,x0,x13
8000e798:	00d76633          	or	x12,x14,x13
8000e79c:	00000793          	addi	x15,x0,0
8000e7a0:	ebdff06f          	jal	x0,8000e65c <__subdf3+0x5b0>
8000e7a4:	40e484b3          	sub	x9,x9,x14
8000e7a8:	ff800737          	lui	x14,0xff800
8000e7ac:	fff70713          	addi	x14,x14,-1 # ff7fffff <_stack_top+0x777fffff>
8000e7b0:	00e7f7b3          	and	x15,x15,x14
8000e7b4:	c35ff06f          	jal	x0,8000e3e8 <__subdf3+0x33c>
8000e7b8:	00070793          	addi	x15,x14,0
8000e7bc:	ea1ff06f          	jal	x0,8000e65c <__subdf3+0x5b0>
8000e7c0:	00050613          	addi	x12,x10,0
8000e7c4:	e99ff06f          	jal	x0,8000e65c <__subdf3+0x5b0>
8000e7c8:	00070793          	addi	x15,x14,0
8000e7cc:	00058493          	addi	x9,x11,0
8000e7d0:	b6dff06f          	jal	x0,8000e33c <__subdf3+0x290>
8000e7d4:	00068493          	addi	x9,x13,0
8000e7d8:	00000793          	addi	x15,x0,0
8000e7dc:	00000613          	addi	x12,x0,0
8000e7e0:	b5dff06f          	jal	x0,8000e33c <__subdf3+0x290>
8000e7e4:	00068913          	addi	x18,x13,0
8000e7e8:	00070793          	addi	x15,x14,0
8000e7ec:	00088493          	addi	x9,x17,0
8000e7f0:	b4dff06f          	jal	x0,8000e33c <__subdf3+0x290>
8000e7f4:	00000913          	addi	x18,x0,0
8000e7f8:	00000793          	addi	x15,x0,0
8000e7fc:	b41ff06f          	jal	x0,8000e33c <__subdf3+0x290>
8000e800:	00000793          	addi	x15,x0,0
8000e804:	00000613          	addi	x12,x0,0
8000e808:	f41ff06f          	jal	x0,8000e748 <__subdf3+0x69c>

8000e80c <__fixdfsi>:
8000e80c:	0145d713          	srli	x14,x11,0x14
8000e810:	001006b7          	lui	x13,0x100
8000e814:	fff68793          	addi	x15,x13,-1 # fffff <_start-0x7ff00001>
8000e818:	7ff77713          	andi	x14,x14,2047
8000e81c:	3fe00613          	addi	x12,x0,1022
8000e820:	00b7f7b3          	and	x15,x15,x11
8000e824:	01f5d593          	srli	x11,x11,0x1f
8000e828:	04e65c63          	bge	x12,x14,8000e880 <__fixdfsi+0x74>
8000e82c:	41d00613          	addi	x12,x0,1053
8000e830:	00e65a63          	bge	x12,x14,8000e844 <__fixdfsi+0x38>
8000e834:	80000537          	lui	x10,0x80000
8000e838:	fff50513          	addi	x10,x10,-1 # 7fffffff <_start-0x1>
8000e83c:	00a58533          	add	x10,x11,x10
8000e840:	00008067          	jalr	x0,0(x1)
8000e844:	00d7e7b3          	or	x15,x15,x13
8000e848:	41300693          	addi	x13,x0,1043
8000e84c:	02e6d463          	bge	x13,x14,8000e874 <__fixdfsi+0x68>
8000e850:	bed70693          	addi	x13,x14,-1043
8000e854:	00d797b3          	sll	x15,x15,x13
8000e858:	43300693          	addi	x13,x0,1075
8000e85c:	40e68733          	sub	x14,x13,x14
8000e860:	00e55533          	srl	x10,x10,x14
8000e864:	00a7e533          	or	x10,x15,x10
8000e868:	00058e63          	beq	x11,x0,8000e884 <__fixdfsi+0x78>
8000e86c:	40a00533          	sub	x10,x0,x10
8000e870:	00008067          	jalr	x0,0(x1)
8000e874:	40e686b3          	sub	x13,x13,x14
8000e878:	00d7d533          	srl	x10,x15,x13
8000e87c:	fedff06f          	jal	x0,8000e868 <__fixdfsi+0x5c>
8000e880:	00000513          	addi	x10,x0,0
8000e884:	00008067          	jalr	x0,0(x1)

8000e888 <__floatsidf>:
8000e888:	ff010113          	addi	x2,x2,-16
8000e88c:	00112623          	sw	x1,12(x2)
8000e890:	00812423          	sw	x8,8(x2)
8000e894:	00912223          	sw	x9,4(x2)
8000e898:	00050793          	addi	x15,x10,0
8000e89c:	08050063          	beq	x10,x0,8000e91c <__floatsidf+0x94>
8000e8a0:	41f55713          	srai	x14,x10,0x1f
8000e8a4:	00a74433          	xor	x8,x14,x10
8000e8a8:	40e40433          	sub	x8,x8,x14
8000e8ac:	01f55493          	srli	x9,x10,0x1f
8000e8b0:	00040513          	addi	x10,x8,0
8000e8b4:	815f20ef          	jal	x1,800010c8 <__clzsi2>
8000e8b8:	41e00793          	addi	x15,x0,1054
8000e8bc:	00a00713          	addi	x14,x0,10
8000e8c0:	40a787b3          	sub	x15,x15,x10
8000e8c4:	04a74463          	blt	x14,x10,8000e90c <__floatsidf+0x84>
8000e8c8:	00b00713          	addi	x14,x0,11
8000e8cc:	40a70733          	sub	x14,x14,x10
8000e8d0:	01550513          	addi	x10,x10,21
8000e8d4:	00e45733          	srl	x14,x8,x14
8000e8d8:	00a41433          	sll	x8,x8,x10
8000e8dc:	00c12083          	lw	x1,12(x2)
8000e8e0:	00040513          	addi	x10,x8,0
8000e8e4:	00c71713          	slli	x14,x14,0xc
8000e8e8:	00812403          	lw	x8,8(x2)
8000e8ec:	01479793          	slli	x15,x15,0x14
8000e8f0:	00c75713          	srli	x14,x14,0xc
8000e8f4:	01f49493          	slli	x9,x9,0x1f
8000e8f8:	00e7e7b3          	or	x15,x15,x14
8000e8fc:	0097e5b3          	or	x11,x15,x9
8000e900:	00412483          	lw	x9,4(x2)
8000e904:	01010113          	addi	x2,x2,16
8000e908:	00008067          	jalr	x0,0(x1)
8000e90c:	ff550513          	addi	x10,x10,-11
8000e910:	00a41733          	sll	x14,x8,x10
8000e914:	00000413          	addi	x8,x0,0
8000e918:	fc5ff06f          	jal	x0,8000e8dc <__floatsidf+0x54>
8000e91c:	00000493          	addi	x9,x0,0
8000e920:	00000713          	addi	x14,x0,0
8000e924:	ff1ff06f          	jal	x0,8000e914 <__floatsidf+0x8c>

8000e928 <__eqtf2>:
8000e928:	00c52883          	lw	x17,12(x10)
8000e92c:	00c5a303          	lw	x6,12(x11)
8000e930:	0005a683          	lw	x13,0(x11)
8000e934:	0045a603          	lw	x12,4(x11)
8000e938:	0085a703          	lw	x14,8(x11)
8000e93c:	000085b7          	lui	x11,0x8
8000e940:	0108d813          	srli	x16,x17,0x10
8000e944:	fff58593          	addi	x11,x11,-1 # 7fff <_start-0x7fff8001>
8000e948:	01089e13          	slli	x28,x17,0x10
8000e94c:	01031293          	slli	x5,x6,0x10
8000e950:	01035793          	srli	x15,x6,0x10
8000e954:	00b87833          	and	x16,x16,x11
8000e958:	00052e83          	lw	x29,0(x10)
8000e95c:	00452f83          	lw	x31,4(x10)
8000e960:	00852f03          	lw	x30,8(x10)
8000e964:	ff010113          	addi	x2,x2,-16
8000e968:	010e5e13          	srli	x28,x28,0x10
8000e96c:	01f8d893          	srli	x17,x17,0x1f
8000e970:	0102d293          	srli	x5,x5,0x10
8000e974:	00b7f7b3          	and	x15,x15,x11
8000e978:	01f35313          	srli	x6,x6,0x1f
8000e97c:	02b81063          	bne	x16,x11,8000e99c <__eqtf2+0x74>
8000e980:	01dfe5b3          	or	x11,x31,x29
8000e984:	01e5e5b3          	or	x11,x11,x30
8000e988:	01c5e5b3          	or	x11,x11,x28
8000e98c:	00100513          	addi	x10,x0,1
8000e990:	06059c63          	bne	x11,x0,8000ea08 <__eqtf2+0xe0>
8000e994:	07079a63          	bne	x15,x16,8000ea08 <__eqtf2+0xe0>
8000e998:	0080006f          	jal	x0,8000e9a0 <__eqtf2+0x78>
8000e99c:	00b79c63          	bne	x15,x11,8000e9b4 <__eqtf2+0x8c>
8000e9a0:	00c6e5b3          	or	x11,x13,x12
8000e9a4:	00e5e5b3          	or	x11,x11,x14
8000e9a8:	0055e5b3          	or	x11,x11,x5
8000e9ac:	00100513          	addi	x10,x0,1
8000e9b0:	04059c63          	bne	x11,x0,8000ea08 <__eqtf2+0xe0>
8000e9b4:	41d686b3          	sub	x13,x13,x29
8000e9b8:	40cf8633          	sub	x12,x31,x12
8000e9bc:	00d036b3          	sltu	x13,x0,x13
8000e9c0:	00c03633          	sltu	x12,x0,x12
8000e9c4:	410787b3          	sub	x15,x15,x16
8000e9c8:	00c6e6b3          	or	x13,x13,x12
8000e9cc:	00f037b3          	sltu	x15,x0,x15
8000e9d0:	40ef0733          	sub	x14,x30,x14
8000e9d4:	00d7e7b3          	or	x15,x15,x13
8000e9d8:	00e03733          	sltu	x14,x0,x14
8000e9dc:	00f76733          	or	x14,x14,x15
8000e9e0:	02071863          	bne	x14,x0,8000ea10 <__eqtf2+0xe8>
8000e9e4:	025e1663          	bne	x28,x5,8000ea10 <__eqtf2+0xe8>
8000e9e8:	00000513          	addi	x10,x0,0
8000e9ec:	00688e63          	beq	x17,x6,8000ea08 <__eqtf2+0xe0>
8000e9f0:	00100513          	addi	x10,x0,1
8000e9f4:	00081a63          	bne	x16,x0,8000ea08 <__eqtf2+0xe0>
8000e9f8:	01dfe533          	or	x10,x31,x29
8000e9fc:	01e56533          	or	x10,x10,x30
8000ea00:	01c56533          	or	x10,x10,x28
8000ea04:	00a03533          	sltu	x10,x0,x10
8000ea08:	01010113          	addi	x2,x2,16
8000ea0c:	00008067          	jalr	x0,0(x1)
8000ea10:	00100513          	addi	x10,x0,1
8000ea14:	ff5ff06f          	jal	x0,8000ea08 <__eqtf2+0xe0>

8000ea18 <__getf2>:
8000ea18:	00c52783          	lw	x15,12(x10)
8000ea1c:	00c5a683          	lw	x13,12(x11)
8000ea20:	00008737          	lui	x14,0x8
8000ea24:	fff70713          	addi	x14,x14,-1 # 7fff <_start-0x7fff8001>
8000ea28:	0005a283          	lw	x5,0(x11)
8000ea2c:	0045a303          	lw	x6,4(x11)
8000ea30:	0085a383          	lw	x7,8(x11)
8000ea34:	0107d593          	srli	x11,x15,0x10
8000ea38:	01079e13          	slli	x28,x15,0x10
8000ea3c:	0106d613          	srli	x12,x13,0x10
8000ea40:	00e5f5b3          	and	x11,x11,x14
8000ea44:	00052f03          	lw	x30,0(x10)
8000ea48:	00452883          	lw	x17,4(x10)
8000ea4c:	00852f83          	lw	x31,8(x10)
8000ea50:	ff010113          	addi	x2,x2,-16
8000ea54:	010e5e13          	srli	x28,x28,0x10
8000ea58:	01f7d793          	srli	x15,x15,0x1f
8000ea5c:	00e67633          	and	x12,x12,x14
8000ea60:	01f6de93          	srli	x29,x13,0x1f
8000ea64:	00e59c63          	bne	x11,x14,8000ea7c <__getf2+0x64>
8000ea68:	01e8e733          	or	x14,x17,x30
8000ea6c:	01f76733          	or	x14,x14,x31
8000ea70:	01c76733          	or	x14,x14,x28
8000ea74:	ffe00513          	addi	x10,x0,-2
8000ea78:	06071a63          	bne	x14,x0,8000eaec <__getf2+0xd4>
8000ea7c:	00008737          	lui	x14,0x8
8000ea80:	01069693          	slli	x13,x13,0x10
8000ea84:	fff70713          	addi	x14,x14,-1 # 7fff <_start-0x7fff8001>
8000ea88:	0106d693          	srli	x13,x13,0x10
8000ea8c:	00060513          	addi	x10,x12,0
8000ea90:	00e61a63          	bne	x12,x14,8000eaa4 <__getf2+0x8c>
8000ea94:	00536733          	or	x14,x6,x5
8000ea98:	00776733          	or	x14,x14,x7
8000ea9c:	00d76733          	or	x14,x14,x13
8000eaa0:	04071a63          	bne	x14,x0,8000eaf4 <__getf2+0xdc>
8000eaa4:	00000713          	addi	x14,x0,0
8000eaa8:	00059a63          	bne	x11,x0,8000eabc <__getf2+0xa4>
8000eaac:	01e8e733          	or	x14,x17,x30
8000eab0:	01f76733          	or	x14,x14,x31
8000eab4:	01c76733          	or	x14,x14,x28
8000eab8:	00173713          	sltiu	x14,x14,1
8000eabc:	04061463          	bne	x12,x0,8000eb04 <__getf2+0xec>
8000eac0:	00536833          	or	x16,x6,x5
8000eac4:	00786833          	or	x16,x16,x7
8000eac8:	00d86833          	or	x16,x16,x13
8000eacc:	00070a63          	beq	x14,x0,8000eae0 <__getf2+0xc8>
8000ead0:	00080e63          	beq	x16,x0,8000eaec <__getf2+0xd4>
8000ead4:	001e9513          	slli	x10,x29,0x1
8000ead8:	fff50513          	addi	x10,x10,-1
8000eadc:	0100006f          	jal	x0,8000eaec <__getf2+0xd4>
8000eae0:	02081463          	bne	x16,x0,8000eb08 <__getf2+0xf0>
8000eae4:	40f00533          	sub	x10,x0,x15
8000eae8:	00156513          	ori	x10,x10,1
8000eaec:	01010113          	addi	x2,x2,16
8000eaf0:	00008067          	jalr	x0,0(x1)
8000eaf4:	ffe00513          	addi	x10,x0,-2
8000eaf8:	ff5ff06f          	jal	x0,8000eaec <__getf2+0xd4>
8000eafc:	00000513          	addi	x10,x0,0
8000eb00:	fedff06f          	jal	x0,8000eaec <__getf2+0xd4>
8000eb04:	fc0718e3          	bne	x14,x0,8000ead4 <__getf2+0xbc>
8000eb08:	fcfe9ee3          	bne	x29,x15,8000eae4 <__getf2+0xcc>
8000eb0c:	41d00533          	sub	x10,x0,x29
8000eb10:	fcb64ce3          	blt	x12,x11,8000eae8 <__getf2+0xd0>
8000eb14:	fcc5c0e3          	blt	x11,x12,8000ead4 <__getf2+0xbc>
8000eb18:	fdc6e6e3          	bltu	x13,x28,8000eae4 <__getf2+0xcc>
8000eb1c:	02de1463          	bne	x28,x13,8000eb44 <__getf2+0x12c>
8000eb20:	fdf3e2e3          	bltu	x7,x31,8000eae4 <__getf2+0xcc>
8000eb24:	03f39063          	bne	x7,x31,8000eb44 <__getf2+0x12c>
8000eb28:	fb136ee3          	bltu	x6,x17,8000eae4 <__getf2+0xcc>
8000eb2c:	41130733          	sub	x14,x6,x17
8000eb30:	01e2f463          	bgeu	x5,x30,8000eb38 <__getf2+0x120>
8000eb34:	fa0708e3          	beq	x14,x0,8000eae4 <__getf2+0xcc>
8000eb38:	0068e663          	bltu	x17,x6,8000eb44 <__getf2+0x12c>
8000eb3c:	fc5f70e3          	bgeu	x30,x5,8000eafc <__getf2+0xe4>
8000eb40:	fa071ee3          	bne	x14,x0,8000eafc <__getf2+0xe4>
8000eb44:	00179513          	slli	x10,x15,0x1
8000eb48:	f91ff06f          	jal	x0,8000ead8 <__getf2+0xc0>

8000eb4c <__letf2>:
8000eb4c:	00c52783          	lw	x15,12(x10)
8000eb50:	00c5a683          	lw	x13,12(x11)
8000eb54:	00008737          	lui	x14,0x8
8000eb58:	fff70713          	addi	x14,x14,-1 # 7fff <_start-0x7fff8001>
8000eb5c:	0005a283          	lw	x5,0(x11)
8000eb60:	0045a303          	lw	x6,4(x11)
8000eb64:	0085a383          	lw	x7,8(x11)
8000eb68:	0107d593          	srli	x11,x15,0x10
8000eb6c:	01079e13          	slli	x28,x15,0x10
8000eb70:	0106d613          	srli	x12,x13,0x10
8000eb74:	00e5f5b3          	and	x11,x11,x14
8000eb78:	00052f03          	lw	x30,0(x10)
8000eb7c:	00452883          	lw	x17,4(x10)
8000eb80:	00852f83          	lw	x31,8(x10)
8000eb84:	ff010113          	addi	x2,x2,-16
8000eb88:	010e5e13          	srli	x28,x28,0x10
8000eb8c:	01f7d793          	srli	x15,x15,0x1f
8000eb90:	00e67633          	and	x12,x12,x14
8000eb94:	01f6de93          	srli	x29,x13,0x1f
8000eb98:	00e59c63          	bne	x11,x14,8000ebb0 <__letf2+0x64>
8000eb9c:	01e8e733          	or	x14,x17,x30
8000eba0:	01f76733          	or	x14,x14,x31
8000eba4:	01c76733          	or	x14,x14,x28
8000eba8:	00200513          	addi	x10,x0,2
8000ebac:	06071a63          	bne	x14,x0,8000ec20 <__letf2+0xd4>
8000ebb0:	00008737          	lui	x14,0x8
8000ebb4:	01069693          	slli	x13,x13,0x10
8000ebb8:	fff70713          	addi	x14,x14,-1 # 7fff <_start-0x7fff8001>
8000ebbc:	0106d693          	srli	x13,x13,0x10
8000ebc0:	00060513          	addi	x10,x12,0
8000ebc4:	00e61a63          	bne	x12,x14,8000ebd8 <__letf2+0x8c>
8000ebc8:	00536733          	or	x14,x6,x5
8000ebcc:	00776733          	or	x14,x14,x7
8000ebd0:	00d76733          	or	x14,x14,x13
8000ebd4:	04071a63          	bne	x14,x0,8000ec28 <__letf2+0xdc>
8000ebd8:	00000713          	addi	x14,x0,0
8000ebdc:	00059a63          	bne	x11,x0,8000ebf0 <__letf2+0xa4>
8000ebe0:	01e8e733          	or	x14,x17,x30
8000ebe4:	01f76733          	or	x14,x14,x31
8000ebe8:	01c76733          	or	x14,x14,x28
8000ebec:	00173713          	sltiu	x14,x14,1
8000ebf0:	04061463          	bne	x12,x0,8000ec38 <__letf2+0xec>
8000ebf4:	00536833          	or	x16,x6,x5
8000ebf8:	00786833          	or	x16,x16,x7
8000ebfc:	00d86833          	or	x16,x16,x13
8000ec00:	00070a63          	beq	x14,x0,8000ec14 <__letf2+0xc8>
8000ec04:	00080e63          	beq	x16,x0,8000ec20 <__letf2+0xd4>
8000ec08:	001e9513          	slli	x10,x29,0x1
8000ec0c:	fff50513          	addi	x10,x10,-1
8000ec10:	0100006f          	jal	x0,8000ec20 <__letf2+0xd4>
8000ec14:	02081463          	bne	x16,x0,8000ec3c <__letf2+0xf0>
8000ec18:	40f00533          	sub	x10,x0,x15
8000ec1c:	00156513          	ori	x10,x10,1
8000ec20:	01010113          	addi	x2,x2,16
8000ec24:	00008067          	jalr	x0,0(x1)
8000ec28:	00200513          	addi	x10,x0,2
8000ec2c:	ff5ff06f          	jal	x0,8000ec20 <__letf2+0xd4>
8000ec30:	00000513          	addi	x10,x0,0
8000ec34:	fedff06f          	jal	x0,8000ec20 <__letf2+0xd4>
8000ec38:	fc0718e3          	bne	x14,x0,8000ec08 <__letf2+0xbc>
8000ec3c:	fcfe9ee3          	bne	x29,x15,8000ec18 <__letf2+0xcc>
8000ec40:	41d00533          	sub	x10,x0,x29
8000ec44:	fcb64ce3          	blt	x12,x11,8000ec1c <__letf2+0xd0>
8000ec48:	fcc5c0e3          	blt	x11,x12,8000ec08 <__letf2+0xbc>
8000ec4c:	fdc6e6e3          	bltu	x13,x28,8000ec18 <__letf2+0xcc>
8000ec50:	02de1463          	bne	x28,x13,8000ec78 <__letf2+0x12c>
8000ec54:	fdf3e2e3          	bltu	x7,x31,8000ec18 <__letf2+0xcc>
8000ec58:	03f39063          	bne	x7,x31,8000ec78 <__letf2+0x12c>
8000ec5c:	fb136ee3          	bltu	x6,x17,8000ec18 <__letf2+0xcc>
8000ec60:	41130733          	sub	x14,x6,x17
8000ec64:	01e2f463          	bgeu	x5,x30,8000ec6c <__letf2+0x120>
8000ec68:	fa0708e3          	beq	x14,x0,8000ec18 <__letf2+0xcc>
8000ec6c:	0068e663          	bltu	x17,x6,8000ec78 <__letf2+0x12c>
8000ec70:	fc5f70e3          	bgeu	x30,x5,8000ec30 <__letf2+0xe4>
8000ec74:	fa071ee3          	bne	x14,x0,8000ec30 <__letf2+0xe4>
8000ec78:	00179513          	slli	x10,x15,0x1
8000ec7c:	f91ff06f          	jal	x0,8000ec0c <__letf2+0xc0>

8000ec80 <__multf3>:
8000ec80:	f5010113          	addi	x2,x2,-176
8000ec84:	09412c23          	sw	x20,152(x2)
8000ec88:	00c5aa03          	lw	x20,12(x11)
8000ec8c:	0045a783          	lw	x15,4(x11)
8000ec90:	0085a683          	lw	x13,8(x11)
8000ec94:	00a12423          	sw	x10,8(x2)
8000ec98:	0005a503          	lw	x10,0(x11)
8000ec9c:	0b212023          	sw	x18,160(x2)
8000eca0:	09512a23          	sw	x21,148(x2)
8000eca4:	00c62903          	lw	x18,12(x12)
8000eca8:	00462a83          	lw	x21,4(x12)
8000ecac:	09612823          	sw	x22,144(x2)
8000ecb0:	09712623          	sw	x23,140(x2)
8000ecb4:	00062b03          	lw	x22,0(x12)
8000ecb8:	00862b83          	lw	x23,8(x12)
8000ecbc:	010a1713          	slli	x14,x20,0x10
8000ecc0:	00008637          	lui	x12,0x8
8000ecc4:	0a912223          	sw	x9,164(x2)
8000ecc8:	01075713          	srli	x14,x14,0x10
8000eccc:	010a5493          	srli	x9,x20,0x10
8000ecd0:	fff60613          	addi	x12,x12,-1 # 7fff <_start-0x7fff8001>
8000ecd4:	0a812423          	sw	x8,168(x2)
8000ecd8:	0a112623          	sw	x1,172(x2)
8000ecdc:	09312e23          	sw	x19,156(x2)
8000ece0:	09812423          	sw	x24,136(x2)
8000ece4:	09912223          	sw	x25,132(x2)
8000ece8:	09a12023          	sw	x26,128(x2)
8000ecec:	07b12e23          	sw	x27,124(x2)
8000ecf0:	04a12823          	sw	x10,80(x2)
8000ecf4:	04f12a23          	sw	x15,84(x2)
8000ecf8:	04d12c23          	sw	x13,88(x2)
8000ecfc:	05412e23          	sw	x20,92(x2)
8000ed00:	02a12023          	sw	x10,32(x2)
8000ed04:	02f12223          	sw	x15,36(x2)
8000ed08:	02d12423          	sw	x13,40(x2)
8000ed0c:	02e12623          	sw	x14,44(x2)
8000ed10:	00c4f4b3          	and	x9,x9,x12
8000ed14:	01fa5413          	srli	x8,x20,0x1f
8000ed18:	16048ee3          	beq	x9,x0,8000f694 <__multf3+0xa14>
8000ed1c:	28c484e3          	beq	x9,x12,8000f7a4 <__multf3+0xb24>
8000ed20:	000107b7          	lui	x15,0x10
8000ed24:	00f76733          	or	x14,x14,x15
8000ed28:	02e12623          	sw	x14,44(x2)
8000ed2c:	02010613          	addi	x12,x2,32
8000ed30:	02c10793          	addi	x15,x2,44
8000ed34:	0007a703          	lw	x14,0(x15) # 10000 <_start-0x7fff0000>
8000ed38:	ffc7a683          	lw	x13,-4(x15)
8000ed3c:	ffc78793          	addi	x15,x15,-4
8000ed40:	00371713          	slli	x14,x14,0x3
8000ed44:	01d6d693          	srli	x13,x13,0x1d
8000ed48:	00d76733          	or	x14,x14,x13
8000ed4c:	00e7a223          	sw	x14,4(x15)
8000ed50:	fef612e3          	bne	x12,x15,8000ed34 <__multf3+0xb4>
8000ed54:	ffffc7b7          	lui	x15,0xffffc
8000ed58:	00351513          	slli	x10,x10,0x3
8000ed5c:	00178793          	addi	x15,x15,1 # ffffc001 <_stack_top+0x77ffc001>
8000ed60:	02a12023          	sw	x10,32(x2)
8000ed64:	00f484b3          	add	x9,x9,x15
8000ed68:	00000993          	addi	x19,x0,0
8000ed6c:	01091513          	slli	x10,x18,0x10
8000ed70:	00008737          	lui	x14,0x8
8000ed74:	01095793          	srli	x15,x18,0x10
8000ed78:	01055513          	srli	x10,x10,0x10
8000ed7c:	fff70713          	addi	x14,x14,-1 # 7fff <_start-0x7fff8001>
8000ed80:	05212e23          	sw	x18,92(x2)
8000ed84:	05612823          	sw	x22,80(x2)
8000ed88:	05512a23          	sw	x21,84(x2)
8000ed8c:	05712c23          	sw	x23,88(x2)
8000ed90:	03612823          	sw	x22,48(x2)
8000ed94:	03512a23          	sw	x21,52(x2)
8000ed98:	03712c23          	sw	x23,56(x2)
8000ed9c:	02a12e23          	sw	x10,60(x2)
8000eda0:	00e7f7b3          	and	x15,x15,x14
8000eda4:	01f95913          	srli	x18,x18,0x1f
8000eda8:	220782e3          	beq	x15,x0,8000f7cc <__multf3+0xb4c>
8000edac:	32e78ae3          	beq	x15,x14,8000f8e0 <__multf3+0xc60>
8000edb0:	00010737          	lui	x14,0x10
8000edb4:	00e56533          	or	x10,x10,x14
8000edb8:	02a12e23          	sw	x10,60(x2)
8000edbc:	03010593          	addi	x11,x2,48
8000edc0:	03c10713          	addi	x14,x2,60
8000edc4:	00072683          	lw	x13,0(x14) # 10000 <_start-0x7fff0000>
8000edc8:	ffc72603          	lw	x12,-4(x14)
8000edcc:	ffc70713          	addi	x14,x14,-4
8000edd0:	00369693          	slli	x13,x13,0x3
8000edd4:	01d65613          	srli	x12,x12,0x1d
8000edd8:	00c6e6b3          	or	x13,x13,x12
8000eddc:	00d72223          	sw	x13,4(x14)
8000ede0:	fee592e3          	bne	x11,x14,8000edc4 <__multf3+0x144>
8000ede4:	ffffc737          	lui	x14,0xffffc
8000ede8:	003b1b13          	slli	x22,x22,0x3
8000edec:	00170713          	addi	x14,x14,1 # ffffc001 <_stack_top+0x77ffc001>
8000edf0:	03612823          	sw	x22,48(x2)
8000edf4:	00e787b3          	add	x15,x15,x14
8000edf8:	00000713          	addi	x14,x0,0
8000edfc:	009787b3          	add	x15,x15,x9
8000ee00:	00f12823          	sw	x15,16(x2)
8000ee04:	00178793          	addi	x15,x15,1
8000ee08:	00f12623          	sw	x15,12(x2)
8000ee0c:	00299793          	slli	x15,x19,0x2
8000ee10:	00e7e7b3          	or	x15,x15,x14
8000ee14:	00a00693          	addi	x13,x0,10
8000ee18:	32f6c0e3          	blt	x13,x15,8000f938 <__multf3+0xcb8>
8000ee1c:	00200613          	addi	x12,x0,2
8000ee20:	01244433          	xor	x8,x8,x18
8000ee24:	00100693          	addi	x13,x0,1
8000ee28:	2cf64ae3          	blt	x12,x15,8000f8fc <__multf3+0xc7c>
8000ee2c:	fff78793          	addi	x15,x15,-1
8000ee30:	30f6fee3          	bgeu	x13,x15,8000f94c <__multf3+0xccc>
8000ee34:	02012803          	lw	x16,32(x2)
8000ee38:	03012e03          	lw	x28,48(x2)
8000ee3c:	01085993          	srli	x19,x16,0x10
8000ee40:	010e5693          	srli	x13,x28,0x10
8000ee44:	01081813          	slli	x16,x16,0x10
8000ee48:	010e1e13          	slli	x28,x28,0x10
8000ee4c:	01085813          	srli	x16,x16,0x10
8000ee50:	010e5e13          	srli	x28,x28,0x10
8000ee54:	030e0633          	mul	x12,x28,x16
8000ee58:	03c985b3          	mul	x11,x19,x28
8000ee5c:	01065793          	srli	x15,x12,0x10
8000ee60:	03068733          	mul	x14,x13,x16
8000ee64:	00b70733          	add	x14,x14,x11
8000ee68:	00e787b3          	add	x15,x15,x14
8000ee6c:	02d98c33          	mul	x24,x19,x13
8000ee70:	00b7f663          	bgeu	x15,x11,8000ee7c <__multf3+0x1fc>
8000ee74:	00010737          	lui	x14,0x10
8000ee78:	00ec0c33          	add	x24,x24,x14
8000ee7c:	03412303          	lw	x6,52(x2)
8000ee80:	01061613          	slli	x12,x12,0x10
8000ee84:	01065613          	srli	x12,x12,0x10
8000ee88:	01035493          	srli	x9,x6,0x10
8000ee8c:	0107d713          	srli	x14,x15,0x10
8000ee90:	01031313          	slli	x6,x6,0x10
8000ee94:	01079793          	slli	x15,x15,0x10
8000ee98:	00c787b3          	add	x15,x15,x12
8000ee9c:	01035313          	srli	x6,x6,0x10
8000eea0:	026985b3          	mul	x11,x19,x6
8000eea4:	00f12a23          	sw	x15,20(x2)
8000eea8:	04f12823          	sw	x15,80(x2)
8000eeac:	03048633          	mul	x12,x9,x16
8000eeb0:	030307b3          	mul	x15,x6,x16
8000eeb4:	00b60633          	add	x12,x12,x11
8000eeb8:	0107df13          	srli	x30,x15,0x10
8000eebc:	00cf0f33          	add	x30,x30,x12
8000eec0:	02998bb3          	mul	x23,x19,x9
8000eec4:	00bf7663          	bgeu	x30,x11,8000eed0 <__multf3+0x250>
8000eec8:	00010637          	lui	x12,0x10
8000eecc:	00cb8bb3          	add	x23,x23,x12
8000eed0:	02412503          	lw	x10,36(x2)
8000eed4:	01079793          	slli	x15,x15,0x10
8000eed8:	0107d793          	srli	x15,x15,0x10
8000eedc:	01055913          	srli	x18,x10,0x10
8000eee0:	01051513          	slli	x10,x10,0x10
8000eee4:	01055513          	srli	x10,x10,0x10
8000eee8:	010f5613          	srli	x12,x30,0x10
8000eeec:	010f1f13          	slli	x30,x30,0x10
8000eef0:	00ff0f33          	add	x30,x30,x15
8000eef4:	03c90fb3          	mul	x31,x18,x28
8000eef8:	01e70733          	add	x14,x14,x30
8000eefc:	03c507b3          	mul	x15,x10,x28
8000ef00:	02a688b3          	mul	x17,x13,x10
8000ef04:	0107de93          	srli	x29,x15,0x10
8000ef08:	01f888b3          	add	x17,x17,x31
8000ef0c:	011e8eb3          	add	x29,x29,x17
8000ef10:	032685b3          	mul	x11,x13,x18
8000ef14:	01fef663          	bgeu	x29,x31,8000ef20 <__multf3+0x2a0>
8000ef18:	000108b7          	lui	x17,0x10
8000ef1c:	011585b3          	add	x11,x11,x17
8000ef20:	010eda93          	srli	x21,x29,0x10
8000ef24:	00ba8ab3          	add	x21,x21,x11
8000ef28:	01079793          	slli	x15,x15,0x10
8000ef2c:	0107d793          	srli	x15,x15,0x10
8000ef30:	010e9e93          	slli	x29,x29,0x10
8000ef34:	00fe8eb3          	add	x29,x29,x15
8000ef38:	02a305b3          	mul	x11,x6,x10
8000ef3c:	026908b3          	mul	x17,x18,x6
8000ef40:	0105d793          	srli	x15,x11,0x10
8000ef44:	02a482b3          	mul	x5,x9,x10
8000ef48:	011282b3          	add	x5,x5,x17
8000ef4c:	005787b3          	add	x15,x15,x5
8000ef50:	03248fb3          	mul	x31,x9,x18
8000ef54:	0117f663          	bgeu	x15,x17,8000ef60 <__multf3+0x2e0>
8000ef58:	000108b7          	lui	x17,0x10
8000ef5c:	011f8fb3          	add	x31,x31,x17
8000ef60:	0107d893          	srli	x17,x15,0x10
8000ef64:	01f888b3          	add	x17,x17,x31
8000ef68:	01112c23          	sw	x17,24(x2)
8000ef6c:	03812883          	lw	x17,56(x2)
8000ef70:	01059593          	slli	x11,x11,0x10
8000ef74:	0105d593          	srli	x11,x11,0x10
8000ef78:	0108d293          	srli	x5,x17,0x10
8000ef7c:	01079793          	slli	x15,x15,0x10
8000ef80:	01089893          	slli	x17,x17,0x10
8000ef84:	00b787b3          	add	x15,x15,x11
8000ef88:	0108d893          	srli	x17,x17,0x10
8000ef8c:	030885b3          	mul	x11,x17,x16
8000ef90:	00f12e23          	sw	x15,28(x2)
8000ef94:	031983b3          	mul	x7,x19,x17
8000ef98:	0105da13          	srli	x20,x11,0x10
8000ef9c:	030287b3          	mul	x15,x5,x16
8000efa0:	007787b3          	add	x15,x15,x7
8000efa4:	00fa07b3          	add	x15,x20,x15
8000efa8:	02598fb3          	mul	x31,x19,x5
8000efac:	0077f663          	bgeu	x15,x7,8000efb8 <__multf3+0x338>
8000efb0:	000103b7          	lui	x7,0x10
8000efb4:	007f8fb3          	add	x31,x31,x7
8000efb8:	01059593          	slli	x11,x11,0x10
8000efbc:	0107da13          	srli	x20,x15,0x10
8000efc0:	0105d593          	srli	x11,x11,0x10
8000efc4:	01079793          	slli	x15,x15,0x10
8000efc8:	00b787b3          	add	x15,x15,x11
8000efcc:	02812583          	lw	x11,40(x2)
8000efd0:	01fa0a33          	add	x20,x20,x31
8000efd4:	0105d393          	srli	x7,x11,0x10
8000efd8:	01059593          	slli	x11,x11,0x10
8000efdc:	0105d593          	srli	x11,x11,0x10
8000efe0:	03c58fb3          	mul	x31,x11,x28
8000efe4:	03c38d33          	mul	x26,x7,x28
8000efe8:	010fdd93          	srli	x27,x31,0x10
8000efec:	02b68b33          	mul	x22,x13,x11
8000eff0:	01ab0b33          	add	x22,x22,x26
8000eff4:	016d8b33          	add	x22,x27,x22
8000eff8:	02768cb3          	mul	x25,x13,x7
8000effc:	01ab7663          	bgeu	x22,x26,8000f008 <__multf3+0x388>
8000f000:	00010d37          	lui	x26,0x10
8000f004:	01ac8cb3          	add	x25,x25,x26
8000f008:	00ec0733          	add	x14,x24,x14
8000f00c:	01e73f33          	sltu	x30,x14,x30
8000f010:	01e60633          	add	x12,x12,x30
8000f014:	01760633          	add	x12,x12,x23
8000f018:	01d70eb3          	add	x29,x14,x29
8000f01c:	01560ab3          	add	x21,x12,x21
8000f020:	010f9f93          	slli	x31,x31,0x10
8000f024:	00eeb733          	sltu	x14,x29,x14
8000f028:	00ea8733          	add	x14,x21,x14
8000f02c:	010b5d13          	srli	x26,x22,0x10
8000f030:	010fdf93          	srli	x31,x31,0x10
8000f034:	010b1b13          	slli	x22,x22,0x10
8000f038:	01fb0fb3          	add	x31,x22,x31
8000f03c:	00cabb33          	sltu	x22,x21,x12
8000f040:	01573ab3          	sltu	x21,x14,x21
8000f044:	01e63633          	sltu	x12,x12,x30
8000f048:	01c12f03          	lw	x30,28(x2)
8000f04c:	015b6b33          	or	x22,x22,x21
8000f050:	01812a83          	lw	x21,24(x2)
8000f054:	00cb0633          	add	x12,x22,x12
8000f058:	01e70f33          	add	x30,x14,x30
8000f05c:	01560ab3          	add	x21,x12,x21
8000f060:	00ef3733          	sltu	x14,x30,x14
8000f064:	00ea8733          	add	x14,x21,x14
8000f068:	00ff07b3          	add	x15,x30,x15
8000f06c:	01470a33          	add	x20,x14,x20
8000f070:	01e7bf33          	sltu	x30,x15,x30
8000f074:	01ea0f33          	add	x30,x20,x30
8000f078:	00cab633          	sltu	x12,x21,x12
8000f07c:	01573ab3          	sltu	x21,x14,x21
8000f080:	00ea3733          	sltu	x14,x20,x14
8000f084:	014f3a33          	sltu	x20,x30,x20
8000f088:	01476733          	or	x14,x14,x20
8000f08c:	03c12a03          	lw	x20,60(x2)
8000f090:	01566633          	or	x12,x12,x21
8000f094:	00e60633          	add	x12,x12,x14
8000f098:	010a5a93          	srli	x21,x20,0x10
8000f09c:	010a1a13          	slli	x20,x20,0x10
8000f0a0:	010a5a13          	srli	x20,x20,0x10
8000f0a4:	030a0733          	mul	x14,x20,x16
8000f0a8:	01f78fb3          	add	x31,x15,x31
8000f0ac:	019d0cb3          	add	x25,x26,x25
8000f0b0:	019f0cb3          	add	x25,x30,x25
8000f0b4:	00ffb7b3          	sltu	x15,x31,x15
8000f0b8:	00fc87b3          	add	x15,x25,x15
8000f0bc:	01ecbf33          	sltu	x30,x25,x30
8000f0c0:	0197bcb3          	sltu	x25,x15,x25
8000f0c4:	019f6f33          	or	x30,x30,x25
8000f0c8:	00cf0f33          	add	x30,x30,x12
8000f0cc:	03498b33          	mul	x22,x19,x20
8000f0d0:	01075613          	srli	x12,x14,0x10
8000f0d4:	05d12a23          	sw	x29,84(x2)
8000f0d8:	05f12c23          	sw	x31,88(x2)
8000f0dc:	030a8833          	mul	x16,x21,x16
8000f0e0:	01680833          	add	x16,x16,x22
8000f0e4:	01060633          	add	x12,x12,x16
8000f0e8:	035989b3          	mul	x19,x19,x21
8000f0ec:	01667663          	bgeu	x12,x22,8000f0f8 <__multf3+0x478>
8000f0f0:	00010837          	lui	x16,0x10
8000f0f4:	010989b3          	add	x19,x19,x16
8000f0f8:	02c12b03          	lw	x22,44(x2)
8000f0fc:	01065813          	srli	x16,x12,0x10
8000f100:	013809b3          	add	x19,x16,x19
8000f104:	01071713          	slli	x14,x14,0x10
8000f108:	010b5813          	srli	x16,x22,0x10
8000f10c:	010b1b13          	slli	x22,x22,0x10
8000f110:	01075713          	srli	x14,x14,0x10
8000f114:	010b5b13          	srli	x22,x22,0x10
8000f118:	01061613          	slli	x12,x12,0x10
8000f11c:	03068bb3          	mul	x23,x13,x16
8000f120:	00e60633          	add	x12,x12,x14
8000f124:	036686b3          	mul	x13,x13,x22
8000f128:	03cb0733          	mul	x14,x22,x28
8000f12c:	03c80e33          	mul	x28,x16,x28
8000f130:	01075c13          	srli	x24,x14,0x10
8000f134:	01c686b3          	add	x13,x13,x28
8000f138:	00dc06b3          	add	x13,x24,x13
8000f13c:	01c6f663          	bgeu	x13,x28,8000f148 <__multf3+0x4c8>
8000f140:	00010e37          	lui	x28,0x10
8000f144:	01cb8bb3          	add	x23,x23,x28
8000f148:	0106de13          	srli	x28,x13,0x10
8000f14c:	01071713          	slli	x14,x14,0x10
8000f150:	017e0e33          	add	x28,x28,x23
8000f154:	01069693          	slli	x13,x13,0x10
8000f158:	01075713          	srli	x14,x14,0x10
8000f15c:	00e68db3          	add	x27,x13,x14
8000f160:	01c12c23          	sw	x28,24(x2)
8000f164:	031506b3          	mul	x13,x10,x17
8000f168:	03190e33          	mul	x28,x18,x17
8000f16c:	0106dc13          	srli	x24,x13,0x10
8000f170:	02a28733          	mul	x14,x5,x10
8000f174:	01c70733          	add	x14,x14,x28
8000f178:	00ec0733          	add	x14,x24,x14
8000f17c:	02590bb3          	mul	x23,x18,x5
8000f180:	01c77663          	bgeu	x14,x28,8000f18c <__multf3+0x50c>
8000f184:	00010e37          	lui	x28,0x10
8000f188:	01cb8bb3          	add	x23,x23,x28
8000f18c:	01069693          	slli	x13,x13,0x10
8000f190:	01075e13          	srli	x28,x14,0x10
8000f194:	0106d693          	srli	x13,x13,0x10
8000f198:	01071713          	slli	x14,x14,0x10
8000f19c:	017e0e33          	add	x28,x28,x23
8000f1a0:	00d70733          	add	x14,x14,x13
8000f1a4:	02638c33          	mul	x24,x7,x6
8000f1a8:	02b306b3          	mul	x13,x6,x11
8000f1ac:	02b48bb3          	mul	x23,x9,x11
8000f1b0:	0106dd13          	srli	x26,x13,0x10
8000f1b4:	018b8bb3          	add	x23,x23,x24
8000f1b8:	017d0bb3          	add	x23,x26,x23
8000f1bc:	02748cb3          	mul	x25,x9,x7
8000f1c0:	018bf663          	bgeu	x23,x24,8000f1cc <__multf3+0x54c>
8000f1c4:	00010c37          	lui	x24,0x10
8000f1c8:	018c8cb3          	add	x25,x25,x24
8000f1cc:	010bdc13          	srli	x24,x23,0x10
8000f1d0:	00c78633          	add	x12,x15,x12
8000f1d4:	019c0c33          	add	x24,x24,x25
8000f1d8:	01069693          	slli	x13,x13,0x10
8000f1dc:	01812c83          	lw	x25,24(x2)
8000f1e0:	013f09b3          	add	x19,x30,x19
8000f1e4:	010b9b93          	slli	x23,x23,0x10
8000f1e8:	00f637b3          	sltu	x15,x12,x15
8000f1ec:	0106d693          	srli	x13,x13,0x10
8000f1f0:	00f987b3          	add	x15,x19,x15
8000f1f4:	00db86b3          	add	x13,x23,x13
8000f1f8:	01b60bb3          	add	x23,x12,x27
8000f1fc:	01978cb3          	add	x25,x15,x25
8000f200:	00cbb633          	sltu	x12,x23,x12
8000f204:	00cc8633          	add	x12,x25,x12
8000f208:	00eb8733          	add	x14,x23,x14
8000f20c:	01c60e33          	add	x28,x12,x28
8000f210:	01773bb3          	sltu	x23,x14,x23
8000f214:	017e0bb3          	add	x23,x28,x23
8000f218:	00d706b3          	add	x13,x14,x13
8000f21c:	018b8c33          	add	x24,x23,x24
8000f220:	01e9bf33          	sltu	x30,x19,x30
8000f224:	00e6b733          	sltu	x14,x13,x14
8000f228:	0137b9b3          	sltu	x19,x15,x19
8000f22c:	00fcb7b3          	sltu	x15,x25,x15
8000f230:	01963cb3          	sltu	x25,x12,x25
8000f234:	013f69b3          	or	x19,x30,x19
8000f238:	00ce3633          	sltu	x12,x28,x12
8000f23c:	0197e7b3          	or	x15,x15,x25
8000f240:	01cbbe33          	sltu	x28,x23,x28
8000f244:	00ec0733          	add	x14,x24,x14
8000f248:	00f987b3          	add	x15,x19,x15
8000f24c:	01c66633          	or	x12,x12,x28
8000f250:	017c3e33          	sltu	x28,x24,x23
8000f254:	01873c33          	sltu	x24,x14,x24
8000f258:	00f60633          	add	x12,x12,x15
8000f25c:	018e6e33          	or	x28,x28,x24
8000f260:	03138f33          	mul	x30,x7,x17
8000f264:	00ce0e33          	add	x28,x28,x12
8000f268:	04d12e23          	sw	x13,92(x2)
8000f26c:	02b88633          	mul	x12,x17,x11
8000f270:	02b28bb3          	mul	x23,x5,x11
8000f274:	01065793          	srli	x15,x12,0x10
8000f278:	01eb8bb3          	add	x23,x23,x30
8000f27c:	017787b3          	add	x15,x15,x23
8000f280:	027289b3          	mul	x19,x5,x7
8000f284:	01e7f663          	bgeu	x15,x30,8000f290 <__multf3+0x610>
8000f288:	00010f37          	lui	x30,0x10
8000f28c:	01e989b3          	add	x19,x19,x30
8000f290:	01061613          	slli	x12,x12,0x10
8000f294:	0107df13          	srli	x30,x15,0x10
8000f298:	01065613          	srli	x12,x12,0x10
8000f29c:	01079793          	slli	x15,x15,0x10
8000f2a0:	00c787b3          	add	x15,x15,x12
8000f2a4:	013f0f33          	add	x30,x30,x19
8000f2a8:	02aa0633          	mul	x12,x20,x10
8000f2ac:	03490bb3          	mul	x23,x18,x20
8000f2b0:	01065993          	srli	x19,x12,0x10
8000f2b4:	02aa8533          	mul	x10,x21,x10
8000f2b8:	01750533          	add	x10,x10,x23
8000f2bc:	00a989b3          	add	x19,x19,x10
8000f2c0:	03590933          	mul	x18,x18,x21
8000f2c4:	0179f663          	bgeu	x19,x23,8000f2d0 <__multf3+0x650>
8000f2c8:	00010537          	lui	x10,0x10
8000f2cc:	00a90933          	add	x18,x18,x10
8000f2d0:	01061613          	slli	x12,x12,0x10
8000f2d4:	0109d513          	srli	x10,x19,0x10
8000f2d8:	01065613          	srli	x12,x12,0x10
8000f2dc:	01099993          	slli	x19,x19,0x10
8000f2e0:	00c989b3          	add	x19,x19,x12
8000f2e4:	01250933          	add	x18,x10,x18
8000f2e8:	026b0633          	mul	x12,x22,x6
8000f2ec:	03048bb3          	mul	x23,x9,x16
8000f2f0:	01065513          	srli	x10,x12,0x10
8000f2f4:	02680333          	mul	x6,x16,x6
8000f2f8:	036484b3          	mul	x9,x9,x22
8000f2fc:	006484b3          	add	x9,x9,x6
8000f300:	00950533          	add	x10,x10,x9
8000f304:	00657663          	bgeu	x10,x6,8000f310 <__multf3+0x690>
8000f308:	00010337          	lui	x6,0x10
8000f30c:	006b8bb3          	add	x23,x23,x6
8000f310:	01061613          	slli	x12,x12,0x10
8000f314:	01055313          	srli	x6,x10,0x10
8000f318:	01065613          	srli	x12,x12,0x10
8000f31c:	01051513          	slli	x10,x10,0x10
8000f320:	034384b3          	mul	x9,x7,x20
8000f324:	00c50533          	add	x10,x10,x12
8000f328:	01730333          	add	x6,x6,x23
8000f32c:	02ba0633          	mul	x12,x20,x11
8000f330:	02ba85b3          	mul	x11,x21,x11
8000f334:	01065b93          	srli	x23,x12,0x10
8000f338:	009585b3          	add	x11,x11,x9
8000f33c:	00bb85b3          	add	x11,x23,x11
8000f340:	035383b3          	mul	x7,x7,x21
8000f344:	0095f663          	bgeu	x11,x9,8000f350 <__multf3+0x6d0>
8000f348:	000104b7          	lui	x9,0x10
8000f34c:	009383b3          	add	x7,x7,x9
8000f350:	0105d493          	srli	x9,x11,0x10
8000f354:	007483b3          	add	x7,x9,x7
8000f358:	01061613          	slli	x12,x12,0x10
8000f35c:	01065613          	srli	x12,x12,0x10
8000f360:	01059593          	slli	x11,x11,0x10
8000f364:	00c585b3          	add	x11,x11,x12
8000f368:	031b04b3          	mul	x9,x22,x17
8000f36c:	03028bb3          	mul	x23,x5,x16
8000f370:	0104d613          	srli	x12,x9,0x10
8000f374:	031808b3          	mul	x17,x16,x17
8000f378:	036282b3          	mul	x5,x5,x22
8000f37c:	011282b3          	add	x5,x5,x17
8000f380:	00560633          	add	x12,x12,x5
8000f384:	01167663          	bgeu	x12,x17,8000f390 <__multf3+0x710>
8000f388:	000108b7          	lui	x17,0x10
8000f38c:	011b8bb3          	add	x23,x23,x17
8000f390:	00f707b3          	add	x15,x14,x15
8000f394:	01ee0f33          	add	x30,x28,x30
8000f398:	00e7b733          	sltu	x14,x15,x14
8000f39c:	00ef0733          	add	x14,x30,x14
8000f3a0:	013789b3          	add	x19,x15,x19
8000f3a4:	01270933          	add	x18,x14,x18
8000f3a8:	00f9b7b3          	sltu	x15,x19,x15
8000f3ac:	00f902b3          	add	x5,x18,x15
8000f3b0:	00a987b3          	add	x15,x19,x10
8000f3b4:	036a0533          	mul	x10,x20,x22
8000f3b8:	00628333          	add	x6,x5,x6
8000f3bc:	06f12023          	sw	x15,96(x2)
8000f3c0:	0137b7b3          	sltu	x15,x15,x19
8000f3c4:	00f307b3          	add	x15,x6,x15
8000f3c8:	01cf3e33          	sltu	x28,x30,x28
8000f3cc:	01e73f33          	sltu	x30,x14,x30
8000f3d0:	00e93733          	sltu	x14,x18,x14
8000f3d4:	0122b933          	sltu	x18,x5,x18
8000f3d8:	01276733          	or	x14,x14,x18
8000f3dc:	03480a33          	mul	x20,x16,x20
8000f3e0:	005332b3          	sltu	x5,x6,x5
8000f3e4:	01ee6e33          	or	x28,x28,x30
8000f3e8:	0067b333          	sltu	x6,x15,x6
8000f3ec:	00ee0e33          	add	x28,x28,x14
8000f3f0:	01049493          	slli	x9,x9,0x10
8000f3f4:	0062e2b3          	or	x5,x5,x6
8000f3f8:	00b785b3          	add	x11,x15,x11
8000f3fc:	01065893          	srli	x17,x12,0x10
8000f400:	01c282b3          	add	x5,x5,x28
8000f404:	030a8833          	mul	x16,x21,x16
8000f408:	01061613          	slli	x12,x12,0x10
8000f40c:	0104d493          	srli	x9,x9,0x10
8000f410:	007283b3          	add	x7,x5,x7
8000f414:	00960633          	add	x12,x12,x9
8000f418:	00f5b7b3          	sltu	x15,x11,x15
8000f41c:	00f387b3          	add	x15,x7,x15
8000f420:	00c58633          	add	x12,x11,x12
8000f424:	017888b3          	add	x17,x17,x23
8000f428:	011788b3          	add	x17,x15,x17
8000f42c:	036a8ab3          	mul	x21,x21,x22
8000f430:	06c12223          	sw	x12,100(x2)
8000f434:	00b63633          	sltu	x12,x12,x11
8000f438:	00c88633          	add	x12,x17,x12
8000f43c:	01055713          	srli	x14,x10,0x10
8000f440:	0053b2b3          	sltu	x5,x7,x5
8000f444:	0077b3b3          	sltu	x7,x15,x7
8000f448:	00f8b7b3          	sltu	x15,x17,x15
8000f44c:	011638b3          	sltu	x17,x12,x17
8000f450:	0072e2b3          	or	x5,x5,x7
8000f454:	014a8ab3          	add	x21,x21,x20
8000f458:	01570733          	add	x14,x14,x21
8000f45c:	0117e7b3          	or	x15,x15,x17
8000f460:	01477663          	bgeu	x14,x20,8000f46c <__multf3+0x7ec>
8000f464:	000105b7          	lui	x11,0x10
8000f468:	00b80833          	add	x16,x16,x11
8000f46c:	01051513          	slli	x10,x10,0x10
8000f470:	01075593          	srli	x11,x14,0x10
8000f474:	01055513          	srli	x10,x10,0x10
8000f478:	01071713          	slli	x14,x14,0x10
8000f47c:	00a70733          	add	x14,x14,x10
8000f480:	005585b3          	add	x11,x11,x5
8000f484:	00e60733          	add	x14,x12,x14
8000f488:	00f587b3          	add	x15,x11,x15
8000f48c:	00c73633          	sltu	x12,x14,x12
8000f490:	00f60633          	add	x12,x12,x15
8000f494:	01412783          	lw	x15,20(x2)
8000f498:	01060633          	add	x12,x12,x16
8000f49c:	00d69693          	slli	x13,x13,0xd
8000f4a0:	01d7e7b3          	or	x15,x15,x29
8000f4a4:	00ffefb3          	or	x31,x31,x15
8000f4a8:	06c12623          	sw	x12,108(x2)
8000f4ac:	06e12423          	sw	x14,104(x2)
8000f4b0:	01f6e6b3          	or	x13,x13,x31
8000f4b4:	05010793          	addi	x15,x2,80
8000f4b8:	06010593          	addi	x11,x2,96
8000f4bc:	00c7a703          	lw	x14,12(x15)
8000f4c0:	0107a603          	lw	x12,16(x15)
8000f4c4:	00478793          	addi	x15,x15,4
8000f4c8:	01375713          	srli	x14,x14,0x13
8000f4cc:	00d61613          	slli	x12,x12,0xd
8000f4d0:	00c76733          	or	x14,x14,x12
8000f4d4:	fee7ae23          	sw	x14,-4(x15)
8000f4d8:	fef592e3          	bne	x11,x15,8000f4bc <__multf3+0x83c>
8000f4dc:	05012783          	lw	x15,80(x2)
8000f4e0:	00d036b3          	sltu	x13,x0,x13
8000f4e4:	05c12703          	lw	x14,92(x2)
8000f4e8:	00f6e6b3          	or	x13,x13,x15
8000f4ec:	05812783          	lw	x15,88(x2)
8000f4f0:	04e12623          	sw	x14,76(x2)
8000f4f4:	04d12023          	sw	x13,64(x2)
8000f4f8:	04f12423          	sw	x15,72(x2)
8000f4fc:	05412783          	lw	x15,84(x2)
8000f500:	04f12223          	sw	x15,68(x2)
8000f504:	00b71793          	slli	x15,x14,0xb
8000f508:	4a07da63          	bge	x15,x0,8000f9bc <__multf3+0xd3c>
8000f50c:	01f69693          	slli	x13,x13,0x1f
8000f510:	04010793          	addi	x15,x2,64
8000f514:	04c10513          	addi	x10,x2,76
8000f518:	0007a603          	lw	x12,0(x15)
8000f51c:	0047a583          	lw	x11,4(x15)
8000f520:	00478793          	addi	x15,x15,4
8000f524:	00165613          	srli	x12,x12,0x1
8000f528:	01f59593          	slli	x11,x11,0x1f
8000f52c:	00b66633          	or	x12,x12,x11
8000f530:	fec7ae23          	sw	x12,-4(x15)
8000f534:	fef512e3          	bne	x10,x15,8000f518 <__multf3+0x898>
8000f538:	04012783          	lw	x15,64(x2)
8000f53c:	01f6d693          	srli	x13,x13,0x1f
8000f540:	00175713          	srli	x14,x14,0x1
8000f544:	00d7e7b3          	or	x15,x15,x13
8000f548:	04e12623          	sw	x14,76(x2)
8000f54c:	04f12023          	sw	x15,64(x2)
8000f550:	00c12703          	lw	x14,12(x2)
8000f554:	000047b7          	lui	x15,0x4
8000f558:	fff78793          	addi	x15,x15,-1 # 3fff <_start-0x7fffc001>
8000f55c:	00f707b3          	add	x15,x14,x15
8000f560:	46f05463          	bge	x0,x15,8000f9c8 <__multf3+0xd48>
8000f564:	04012703          	lw	x14,64(x2)
8000f568:	00777693          	andi	x13,x14,7
8000f56c:	04068663          	beq	x13,x0,8000f5b8 <__multf3+0x938>
8000f570:	00f77693          	andi	x13,x14,15
8000f574:	00400613          	addi	x12,x0,4
8000f578:	04c68063          	beq	x13,x12,8000f5b8 <__multf3+0x938>
8000f57c:	00c706b3          	add	x13,x14,x12
8000f580:	ffc73713          	sltiu	x14,x14,-4
8000f584:	04d12023          	sw	x13,64(x2)
8000f588:	00173693          	sltiu	x13,x14,1
8000f58c:	04412703          	lw	x14,68(x2)
8000f590:	00e68733          	add	x14,x13,x14
8000f594:	04e12223          	sw	x14,68(x2)
8000f598:	00d73733          	sltu	x14,x14,x13
8000f59c:	04812683          	lw	x13,72(x2)
8000f5a0:	00e68733          	add	x14,x13,x14
8000f5a4:	04e12423          	sw	x14,72(x2)
8000f5a8:	00d73733          	sltu	x14,x14,x13
8000f5ac:	04c12683          	lw	x13,76(x2)
8000f5b0:	00d70733          	add	x14,x14,x13
8000f5b4:	04e12623          	sw	x14,76(x2)
8000f5b8:	04c12703          	lw	x14,76(x2)
8000f5bc:	00b71693          	slli	x13,x14,0xb
8000f5c0:	0206d063          	bge	x13,x0,8000f5e0 <__multf3+0x960>
8000f5c4:	00c12683          	lw	x13,12(x2)
8000f5c8:	fff007b7          	lui	x15,0xfff00
8000f5cc:	fff78793          	addi	x15,x15,-1 # ffefffff <_stack_top+0x77efffff>
8000f5d0:	00f77733          	and	x14,x14,x15
8000f5d4:	000047b7          	lui	x15,0x4
8000f5d8:	04e12623          	sw	x14,76(x2)
8000f5dc:	00f687b3          	add	x15,x13,x15
8000f5e0:	04010693          	addi	x13,x2,64
8000f5e4:	04c10513          	addi	x10,x2,76
8000f5e8:	0006a603          	lw	x12,0(x13)
8000f5ec:	0046a583          	lw	x11,4(x13)
8000f5f0:	00468693          	addi	x13,x13,4
8000f5f4:	00365613          	srli	x12,x12,0x3
8000f5f8:	01d59593          	slli	x11,x11,0x1d
8000f5fc:	00b66633          	or	x12,x12,x11
8000f600:	fec6ae23          	sw	x12,-4(x13)
8000f604:	fed512e3          	bne	x10,x13,8000f5e8 <__multf3+0x968>
8000f608:	000086b7          	lui	x13,0x8
8000f60c:	ffe68693          	addi	x13,x13,-2 # 7ffe <_start-0x7fff8002>
8000f610:	58f6ca63          	blt	x13,x15,8000fba4 <__multf3+0xf24>
8000f614:	00375713          	srli	x14,x14,0x3
8000f618:	04e12623          	sw	x14,76(x2)
8000f61c:	04c12703          	lw	x14,76(x2)
8000f620:	0ac12083          	lw	x1,172(x2)
8000f624:	0a412483          	lw	x9,164(x2)
8000f628:	04e11e23          	sh	x14,92(x2)
8000f62c:	00f41713          	slli	x14,x8,0xf
8000f630:	00f767b3          	or	x15,x14,x15
8000f634:	04f11f23          	sh	x15,94(x2)
8000f638:	00812703          	lw	x14,8(x2)
8000f63c:	04012783          	lw	x15,64(x2)
8000f640:	0a812403          	lw	x8,168(x2)
8000f644:	0a012903          	lw	x18,160(x2)
8000f648:	00f72023          	sw	x15,0(x14) # 10000 <_start-0x7fff0000>
8000f64c:	04412783          	lw	x15,68(x2)
8000f650:	09c12983          	lw	x19,156(x2)
8000f654:	09812a03          	lw	x20,152(x2)
8000f658:	00f72223          	sw	x15,4(x14)
8000f65c:	04812783          	lw	x15,72(x2)
8000f660:	09412a83          	lw	x21,148(x2)
8000f664:	09012b03          	lw	x22,144(x2)
8000f668:	00f72423          	sw	x15,8(x14)
8000f66c:	05c12783          	lw	x15,92(x2)
8000f670:	08c12b83          	lw	x23,140(x2)
8000f674:	08812c03          	lw	x24,136(x2)
8000f678:	00f72623          	sw	x15,12(x14)
8000f67c:	08412c83          	lw	x25,132(x2)
8000f680:	08012d03          	lw	x26,128(x2)
8000f684:	07c12d83          	lw	x27,124(x2)
8000f688:	00070513          	addi	x10,x14,0
8000f68c:	0b010113          	addi	x2,x2,176
8000f690:	00008067          	jalr	x0,0(x1)
8000f694:	00a7e633          	or	x12,x15,x10
8000f698:	00d66633          	or	x12,x12,x13
8000f69c:	00e66633          	or	x12,x12,x14
8000f6a0:	12060063          	beq	x12,x0,8000f7c0 <__multf3+0xb40>
8000f6a4:	04070863          	beq	x14,x0,8000f6f4 <__multf3+0xa74>
8000f6a8:	00070513          	addi	x10,x14,0
8000f6ac:	a1df10ef          	jal	x1,800010c8 <__clzsi2>
8000f6b0:	ff450693          	addi	x13,x10,-12 # fff4 <_start-0x7fff000c>
8000f6b4:	4056d713          	srai	x14,x13,0x5
8000f6b8:	01f6f693          	andi	x13,x13,31
8000f6bc:	02c10793          	addi	x15,x2,44
8000f6c0:	06068463          	beq	x13,x0,8000f728 <__multf3+0xaa8>
8000f6c4:	02000893          	addi	x17,x0,32
8000f6c8:	00271813          	slli	x16,x14,0x2
8000f6cc:	40d888b3          	sub	x17,x17,x13
8000f6d0:	02010593          	addi	x11,x2,32
8000f6d4:	410787b3          	sub	x15,x15,x16
8000f6d8:	08f59a63          	bne	x11,x15,8000f76c <__multf3+0xaec>
8000f6dc:	fff70793          	addi	x15,x14,-1
8000f6e0:	02012703          	lw	x14,32(x2)
8000f6e4:	010585b3          	add	x11,x11,x16
8000f6e8:	00d71733          	sll	x14,x14,x13
8000f6ec:	00e5a023          	sw	x14,0(x11) # 10000 <_start-0x7fff0000>
8000f6f0:	0600006f          	jal	x0,8000f750 <__multf3+0xad0>
8000f6f4:	00068a63          	beq	x13,x0,8000f708 <__multf3+0xa88>
8000f6f8:	00068513          	addi	x10,x13,0
8000f6fc:	9cdf10ef          	jal	x1,800010c8 <__clzsi2>
8000f700:	02050513          	addi	x10,x10,32
8000f704:	fadff06f          	jal	x0,8000f6b0 <__multf3+0xa30>
8000f708:	00078a63          	beq	x15,x0,8000f71c <__multf3+0xa9c>
8000f70c:	00078513          	addi	x10,x15,0 # 4000 <_start-0x7fffc000>
8000f710:	9b9f10ef          	jal	x1,800010c8 <__clzsi2>
8000f714:	04050513          	addi	x10,x10,64
8000f718:	f99ff06f          	jal	x0,8000f6b0 <__multf3+0xa30>
8000f71c:	9adf10ef          	jal	x1,800010c8 <__clzsi2>
8000f720:	06050513          	addi	x10,x10,96
8000f724:	f8dff06f          	jal	x0,8000f6b0 <__multf3+0xa30>
8000f728:	ffc00613          	addi	x12,x0,-4
8000f72c:	02c70633          	mul	x12,x14,x12
8000f730:	00300693          	addi	x13,x0,3
8000f734:	00c785b3          	add	x11,x15,x12
8000f738:	0005a583          	lw	x11,0(x11)
8000f73c:	fff68693          	addi	x13,x13,-1
8000f740:	ffc78793          	addi	x15,x15,-4
8000f744:	00b7a223          	sw	x11,4(x15)
8000f748:	fee6d6e3          	bge	x13,x14,8000f734 <__multf3+0xab4>
8000f74c:	fff70793          	addi	x15,x14,-1
8000f750:	fff00693          	addi	x13,x0,-1
8000f754:	02010613          	addi	x12,x2,32
8000f758:	02d79c63          	bne	x15,x13,8000f790 <__multf3+0xb10>
8000f75c:	ffffc4b7          	lui	x9,0xffffc
8000f760:	01148493          	addi	x9,x9,17 # ffffc011 <_stack_top+0x77ffc011>
8000f764:	40a484b3          	sub	x9,x9,x10
8000f768:	e00ff06f          	jal	x0,8000ed68 <__multf3+0xe8>
8000f76c:	0007a603          	lw	x12,0(x15)
8000f770:	ffc7a303          	lw	x6,-4(x15)
8000f774:	01078e33          	add	x28,x15,x16
8000f778:	00d61633          	sll	x12,x12,x13
8000f77c:	01135333          	srl	x6,x6,x17
8000f780:	00666633          	or	x12,x12,x6
8000f784:	00ce2023          	sw	x12,0(x28) # 10000 <_start-0x7fff0000>
8000f788:	ffc78793          	addi	x15,x15,-4
8000f78c:	f4dff06f          	jal	x0,8000f6d8 <__multf3+0xa58>
8000f790:	00279713          	slli	x14,x15,0x2
8000f794:	00e60733          	add	x14,x12,x14
8000f798:	00072023          	sw	x0,0(x14)
8000f79c:	fff78793          	addi	x15,x15,-1
8000f7a0:	fb9ff06f          	jal	x0,8000f758 <__multf3+0xad8>
8000f7a4:	00a7e7b3          	or	x15,x15,x10
8000f7a8:	00d7e7b3          	or	x15,x15,x13
8000f7ac:	00e7e7b3          	or	x15,x15,x14
8000f7b0:	00200993          	addi	x19,x0,2
8000f7b4:	da078c63          	beq	x15,x0,8000ed6c <__multf3+0xec>
8000f7b8:	00300993          	addi	x19,x0,3
8000f7bc:	db0ff06f          	jal	x0,8000ed6c <__multf3+0xec>
8000f7c0:	00000493          	addi	x9,x0,0
8000f7c4:	00100993          	addi	x19,x0,1
8000f7c8:	da4ff06f          	jal	x0,8000ed6c <__multf3+0xec>
8000f7cc:	016ae7b3          	or	x15,x21,x22
8000f7d0:	0177e7b3          	or	x15,x15,x23
8000f7d4:	00a7e7b3          	or	x15,x15,x10
8000f7d8:	00100713          	addi	x14,x0,1
8000f7dc:	e2078063          	beq	x15,x0,8000edfc <__multf3+0x17c>
8000f7e0:	04050663          	beq	x10,x0,8000f82c <__multf3+0xbac>
8000f7e4:	8e5f10ef          	jal	x1,800010c8 <__clzsi2>
8000f7e8:	ff450693          	addi	x13,x10,-12
8000f7ec:	4056d713          	srai	x14,x13,0x5
8000f7f0:	01f6f693          	andi	x13,x13,31
8000f7f4:	03c10793          	addi	x15,x2,60
8000f7f8:	06068663          	beq	x13,x0,8000f864 <__multf3+0xbe4>
8000f7fc:	02000893          	addi	x17,x0,32
8000f800:	00271813          	slli	x16,x14,0x2
8000f804:	40d888b3          	sub	x17,x17,x13
8000f808:	03010593          	addi	x11,x2,48
8000f80c:	410787b3          	sub	x15,x15,x16
8000f810:	08f59c63          	bne	x11,x15,8000f8a8 <__multf3+0xc28>
8000f814:	fff70793          	addi	x15,x14,-1
8000f818:	03012703          	lw	x14,48(x2)
8000f81c:	010585b3          	add	x11,x11,x16
8000f820:	00d71733          	sll	x14,x14,x13
8000f824:	00e5a023          	sw	x14,0(x11)
8000f828:	0640006f          	jal	x0,8000f88c <__multf3+0xc0c>
8000f82c:	000b8a63          	beq	x23,x0,8000f840 <__multf3+0xbc0>
8000f830:	000b8513          	addi	x10,x23,0
8000f834:	895f10ef          	jal	x1,800010c8 <__clzsi2>
8000f838:	02050513          	addi	x10,x10,32
8000f83c:	fadff06f          	jal	x0,8000f7e8 <__multf3+0xb68>
8000f840:	000a8a63          	beq	x21,x0,8000f854 <__multf3+0xbd4>
8000f844:	000a8513          	addi	x10,x21,0
8000f848:	881f10ef          	jal	x1,800010c8 <__clzsi2>
8000f84c:	04050513          	addi	x10,x10,64
8000f850:	f99ff06f          	jal	x0,8000f7e8 <__multf3+0xb68>
8000f854:	000b0513          	addi	x10,x22,0
8000f858:	871f10ef          	jal	x1,800010c8 <__clzsi2>
8000f85c:	06050513          	addi	x10,x10,96
8000f860:	f89ff06f          	jal	x0,8000f7e8 <__multf3+0xb68>
8000f864:	ffc00613          	addi	x12,x0,-4
8000f868:	02c70633          	mul	x12,x14,x12
8000f86c:	00300693          	addi	x13,x0,3
8000f870:	00c785b3          	add	x11,x15,x12
8000f874:	0005a583          	lw	x11,0(x11)
8000f878:	fff68693          	addi	x13,x13,-1
8000f87c:	ffc78793          	addi	x15,x15,-4
8000f880:	00b7a223          	sw	x11,4(x15)
8000f884:	fee6d6e3          	bge	x13,x14,8000f870 <__multf3+0xbf0>
8000f888:	fff70793          	addi	x15,x14,-1
8000f88c:	fff00693          	addi	x13,x0,-1
8000f890:	03010613          	addi	x12,x2,48
8000f894:	02d79c63          	bne	x15,x13,8000f8cc <__multf3+0xc4c>
8000f898:	ffffc7b7          	lui	x15,0xffffc
8000f89c:	01178793          	addi	x15,x15,17 # ffffc011 <_stack_top+0x77ffc011>
8000f8a0:	40a787b3          	sub	x15,x15,x10
8000f8a4:	d54ff06f          	jal	x0,8000edf8 <__multf3+0x178>
8000f8a8:	0007a603          	lw	x12,0(x15)
8000f8ac:	ffc7a303          	lw	x6,-4(x15)
8000f8b0:	01078e33          	add	x28,x15,x16
8000f8b4:	00d61633          	sll	x12,x12,x13
8000f8b8:	01135333          	srl	x6,x6,x17
8000f8bc:	00666633          	or	x12,x12,x6
8000f8c0:	00ce2023          	sw	x12,0(x28)
8000f8c4:	ffc78793          	addi	x15,x15,-4
8000f8c8:	f49ff06f          	jal	x0,8000f810 <__multf3+0xb90>
8000f8cc:	00279713          	slli	x14,x15,0x2
8000f8d0:	00e60733          	add	x14,x12,x14
8000f8d4:	00072023          	sw	x0,0(x14)
8000f8d8:	fff78793          	addi	x15,x15,-1
8000f8dc:	fb9ff06f          	jal	x0,8000f894 <__multf3+0xc14>
8000f8e0:	016aeab3          	or	x21,x21,x22
8000f8e4:	017aeab3          	or	x21,x21,x23
8000f8e8:	00aaeab3          	or	x21,x21,x10
8000f8ec:	00200713          	addi	x14,x0,2
8000f8f0:	d00a8663          	beq	x21,x0,8000edfc <__multf3+0x17c>
8000f8f4:	00300713          	addi	x14,x0,3
8000f8f8:	d04ff06f          	jal	x0,8000edfc <__multf3+0x17c>
8000f8fc:	00f697b3          	sll	x15,x13,x15
8000f900:	5307f693          	andi	x13,x15,1328
8000f904:	06069463          	bne	x13,x0,8000f96c <__multf3+0xcec>
8000f908:	0887f693          	andi	x13,x15,136
8000f90c:	02069e63          	bne	x13,x0,8000f948 <__multf3+0xcc8>
8000f910:	2407f793          	andi	x15,x15,576
8000f914:	d2078063          	beq	x15,x0,8000ee34 <__multf3+0x1b4>
8000f918:	000087b7          	lui	x15,0x8
8000f91c:	04f12623          	sw	x15,76(x2)
8000f920:	04012423          	sw	x0,72(x2)
8000f924:	04012223          	sw	x0,68(x2)
8000f928:	04012023          	sw	x0,64(x2)
8000f92c:	fff78793          	addi	x15,x15,-1 # 7fff <_start-0x7fff8001>
8000f930:	00000413          	addi	x8,x0,0
8000f934:	ce9ff06f          	jal	x0,8000f61c <__multf3+0x99c>
8000f938:	00f00693          	addi	x13,x0,15
8000f93c:	fcd78ee3          	beq	x15,x13,8000f918 <__multf3+0xc98>
8000f940:	00b00693          	addi	x13,x0,11
8000f944:	02d79463          	bne	x15,x13,8000f96c <__multf3+0xcec>
8000f948:	00090413          	addi	x8,x18,0
8000f94c:	03012783          	lw	x15,48(x2)
8000f950:	04f12023          	sw	x15,64(x2)
8000f954:	03412783          	lw	x15,52(x2)
8000f958:	04f12223          	sw	x15,68(x2)
8000f95c:	03812783          	lw	x15,56(x2)
8000f960:	04f12423          	sw	x15,72(x2)
8000f964:	03c12783          	lw	x15,60(x2)
8000f968:	0240006f          	jal	x0,8000f98c <__multf3+0xd0c>
8000f96c:	02012783          	lw	x15,32(x2)
8000f970:	00098713          	addi	x14,x19,0
8000f974:	04f12023          	sw	x15,64(x2)
8000f978:	02412783          	lw	x15,36(x2)
8000f97c:	04f12223          	sw	x15,68(x2)
8000f980:	02812783          	lw	x15,40(x2)
8000f984:	04f12423          	sw	x15,72(x2)
8000f988:	02c12783          	lw	x15,44(x2)
8000f98c:	04f12623          	sw	x15,76(x2)
8000f990:	00200793          	addi	x15,x0,2
8000f994:	20f70863          	beq	x14,x15,8000fba4 <__multf3+0xf24>
8000f998:	00300793          	addi	x15,x0,3
8000f99c:	f6f70ee3          	beq	x14,x15,8000f918 <__multf3+0xc98>
8000f9a0:	00100793          	addi	x15,x0,1
8000f9a4:	baf716e3          	bne	x14,x15,8000f550 <__multf3+0x8d0>
8000f9a8:	04012623          	sw	x0,76(x2)
8000f9ac:	04012423          	sw	x0,72(x2)
8000f9b0:	04012223          	sw	x0,68(x2)
8000f9b4:	04012023          	sw	x0,64(x2)
8000f9b8:	1c00006f          	jal	x0,8000fb78 <__multf3+0xef8>
8000f9bc:	01012783          	lw	x15,16(x2)
8000f9c0:	00f12623          	sw	x15,12(x2)
8000f9c4:	b8dff06f          	jal	x0,8000f550 <__multf3+0x8d0>
8000f9c8:	06078463          	beq	x15,x0,8000fa30 <__multf3+0xdb0>
8000f9cc:	f8d00713          	addi	x14,x0,-115
8000f9d0:	1ae7c863          	blt	x15,x14,8000fb80 <__multf3+0xf00>
8000f9d4:	00100713          	addi	x14,x0,1
8000f9d8:	40f70733          	sub	x14,x14,x15
8000f9dc:	04010513          	addi	x10,x2,64
8000f9e0:	40575693          	srai	x13,x14,0x5
8000f9e4:	00050593          	addi	x11,x10,0
8000f9e8:	01f77713          	andi	x14,x14,31
8000f9ec:	00000793          	addi	x15,x0,0
8000f9f0:	00000613          	addi	x12,x0,0
8000f9f4:	04d61263          	bne	x12,x13,8000fa38 <__multf3+0xdb8>
8000f9f8:	00300613          	addi	x12,x0,3
8000f9fc:	40d60633          	sub	x12,x12,x13
8000fa00:	00269e13          	slli	x28,x13,0x2
8000fa04:	04071463          	bne	x14,x0,8000fa4c <__multf3+0xdcc>
8000fa08:	00050593          	addi	x11,x10,0
8000fa0c:	01c58833          	add	x16,x11,x28
8000fa10:	00082803          	lw	x16,0(x16) # 10000 <_start-0x7fff0000>
8000fa14:	00170713          	addi	x14,x14,1
8000fa18:	00458593          	addi	x11,x11,4
8000fa1c:	ff05ae23          	sw	x16,-4(x11)
8000fa20:	fee656e3          	bge	x12,x14,8000fa0c <__multf3+0xd8c>
8000fa24:	00400713          	addi	x14,x0,4
8000fa28:	40d706b3          	sub	x13,x14,x13
8000fa2c:	05c0006f          	jal	x0,8000fa88 <__multf3+0xe08>
8000fa30:	00100713          	addi	x14,x0,1
8000fa34:	fa9ff06f          	jal	x0,8000f9dc <__multf3+0xd5c>
8000fa38:	0005a803          	lw	x16,0(x11)
8000fa3c:	00160613          	addi	x12,x12,1 # 10001 <_start-0x7ffeffff>
8000fa40:	00458593          	addi	x11,x11,4
8000fa44:	0107e7b3          	or	x15,x15,x16
8000fa48:	fadff06f          	jal	x0,8000f9f4 <__multf3+0xd74>
8000fa4c:	01c505b3          	add	x11,x10,x28
8000fa50:	0005a803          	lw	x16,0(x11)
8000fa54:	02000893          	addi	x17,x0,32
8000fa58:	40e888b3          	sub	x17,x17,x14
8000fa5c:	01181833          	sll	x16,x16,x17
8000fa60:	0107e7b3          	or	x15,x15,x16
8000fa64:	00000313          	addi	x6,x0,0
8000fa68:	02c34463          	blt	x6,x12,8000fa90 <__multf3+0xe10>
8000fa6c:	00400593          	addi	x11,x0,4
8000fa70:	40d586b3          	sub	x13,x11,x13
8000fa74:	04c12583          	lw	x11,76(x2)
8000fa78:	00261613          	slli	x12,x12,0x2
8000fa7c:	00c50633          	add	x12,x10,x12
8000fa80:	00e5d733          	srl	x14,x11,x14
8000fa84:	00e62023          	sw	x14,0(x12)
8000fa88:	00400613          	addi	x12,x0,4
8000fa8c:	03c0006f          	jal	x0,8000fac8 <__multf3+0xe48>
8000fa90:	0005a803          	lw	x16,0(x11)
8000fa94:	0045ae83          	lw	x29,4(x11)
8000fa98:	41c58f33          	sub	x30,x11,x28
8000fa9c:	00e85833          	srl	x16,x16,x14
8000faa0:	011e9eb3          	sll	x29,x29,x17
8000faa4:	01d86833          	or	x16,x16,x29
8000faa8:	010f2023          	sw	x16,0(x30) # 10000 <_start-0x7fff0000>
8000faac:	00130313          	addi	x6,x6,1 # 10001 <_start-0x7ffeffff>
8000fab0:	00458593          	addi	x11,x11,4
8000fab4:	fb5ff06f          	jal	x0,8000fa68 <__multf3+0xde8>
8000fab8:	00269713          	slli	x14,x13,0x2
8000fabc:	00e50733          	add	x14,x10,x14
8000fac0:	00072023          	sw	x0,0(x14)
8000fac4:	00168693          	addi	x13,x13,1
8000fac8:	fec698e3          	bne	x13,x12,8000fab8 <__multf3+0xe38>
8000facc:	04012703          	lw	x14,64(x2)
8000fad0:	00f037b3          	sltu	x15,x0,x15
8000fad4:	00e7e7b3          	or	x15,x15,x14
8000fad8:	04f12023          	sw	x15,64(x2)
8000fadc:	0077f713          	andi	x14,x15,7
8000fae0:	04070463          	beq	x14,x0,8000fb28 <__multf3+0xea8>
8000fae4:	00f7f713          	andi	x14,x15,15
8000fae8:	04d70063          	beq	x14,x13,8000fb28 <__multf3+0xea8>
8000faec:	00478713          	addi	x14,x15,4
8000faf0:	04e12023          	sw	x14,64(x2)
8000faf4:	04412703          	lw	x14,68(x2)
8000faf8:	ffc7b793          	sltiu	x15,x15,-4
8000fafc:	0017b793          	sltiu	x15,x15,1
8000fb00:	00f707b3          	add	x15,x14,x15
8000fb04:	04f12223          	sw	x15,68(x2)
8000fb08:	00e7b7b3          	sltu	x15,x15,x14
8000fb0c:	04812703          	lw	x14,72(x2)
8000fb10:	00f707b3          	add	x15,x14,x15
8000fb14:	04f12423          	sw	x15,72(x2)
8000fb18:	00e7b7b3          	sltu	x15,x15,x14
8000fb1c:	04c12703          	lw	x14,76(x2)
8000fb20:	00e787b3          	add	x15,x15,x14
8000fb24:	04f12623          	sw	x15,76(x2)
8000fb28:	04c12703          	lw	x14,76(x2)
8000fb2c:	00c71793          	slli	x15,x14,0xc
8000fb30:	0007de63          	bge	x15,x0,8000fb4c <__multf3+0xecc>
8000fb34:	04012623          	sw	x0,76(x2)
8000fb38:	04012423          	sw	x0,72(x2)
8000fb3c:	04012223          	sw	x0,68(x2)
8000fb40:	04012023          	sw	x0,64(x2)
8000fb44:	00100793          	addi	x15,x0,1
8000fb48:	ad5ff06f          	jal	x0,8000f61c <__multf3+0x99c>
8000fb4c:	00c50613          	addi	x12,x10,12
8000fb50:	00052783          	lw	x15,0(x10)
8000fb54:	00452683          	lw	x13,4(x10)
8000fb58:	00450513          	addi	x10,x10,4
8000fb5c:	0037d793          	srli	x15,x15,0x3
8000fb60:	01d69693          	slli	x13,x13,0x1d
8000fb64:	00d7e7b3          	or	x15,x15,x13
8000fb68:	fef52e23          	sw	x15,-4(x10)
8000fb6c:	fea612e3          	bne	x12,x10,8000fb50 <__multf3+0xed0>
8000fb70:	00375713          	srli	x14,x14,0x3
8000fb74:	04e12623          	sw	x14,76(x2)
8000fb78:	00000793          	addi	x15,x0,0
8000fb7c:	aa1ff06f          	jal	x0,8000f61c <__multf3+0x99c>
8000fb80:	04412703          	lw	x14,68(x2)
8000fb84:	04012783          	lw	x15,64(x2)
8000fb88:	00e7e7b3          	or	x15,x15,x14
8000fb8c:	04812703          	lw	x14,72(x2)
8000fb90:	00e7e7b3          	or	x15,x15,x14
8000fb94:	04c12703          	lw	x14,76(x2)
8000fb98:	00e7e7b3          	or	x15,x15,x14
8000fb9c:	fc078ee3          	beq	x15,x0,8000fb78 <__multf3+0xef8>
8000fba0:	e09ff06f          	jal	x0,8000f9a8 <__multf3+0xd28>
8000fba4:	000087b7          	lui	x15,0x8
8000fba8:	04012623          	sw	x0,76(x2)
8000fbac:	04012423          	sw	x0,72(x2)
8000fbb0:	04012223          	sw	x0,68(x2)
8000fbb4:	04012023          	sw	x0,64(x2)
8000fbb8:	fff78793          	addi	x15,x15,-1 # 7fff <_start-0x7fff8001>
8000fbbc:	a61ff06f          	jal	x0,8000f61c <__multf3+0x99c>

8000fbc0 <__subtf3>:
8000fbc0:	fa010113          	addi	x2,x2,-96
8000fbc4:	0085a783          	lw	x15,8(x11)
8000fbc8:	04812c23          	sw	x8,88(x2)
8000fbcc:	00050413          	addi	x8,x10,0
8000fbd0:	00c5a503          	lw	x10,12(x11)
8000fbd4:	0045a803          	lw	x16,4(x11)
8000fbd8:	0005a683          	lw	x13,0(x11)
8000fbdc:	02f12c23          	sw	x15,56(x2)
8000fbe0:	00f12c23          	sw	x15,24(x2)
8000fbe4:	01051793          	slli	x15,x10,0x10
8000fbe8:	0107d793          	srli	x15,x15,0x10
8000fbec:	00062703          	lw	x14,0(x12)
8000fbf0:	00462883          	lw	x17,4(x12)
8000fbf4:	00862583          	lw	x11,8(x12)
8000fbf8:	00c62f03          	lw	x30,12(x12)
8000fbfc:	02a12e23          	sw	x10,60(x2)
8000fc00:	00f12e23          	sw	x15,28(x2)
8000fc04:	00151793          	slli	x15,x10,0x1
8000fc08:	01f55513          	srli	x10,x10,0x1f
8000fc0c:	04912a23          	sw	x9,84(x2)
8000fc10:	05212823          	sw	x18,80(x2)
8000fc14:	03012a23          	sw	x16,52(x2)
8000fc18:	01012a23          	sw	x16,20(x2)
8000fc1c:	04112e23          	sw	x1,92(x2)
8000fc20:	05312623          	sw	x19,76(x2)
8000fc24:	05412423          	sw	x20,72(x2)
8000fc28:	05512223          	sw	x21,68(x2)
8000fc2c:	02d12823          	sw	x13,48(x2)
8000fc30:	00d12823          	sw	x13,16(x2)
8000fc34:	0117d913          	srli	x18,x15,0x11
8000fc38:	00050493          	addi	x9,x10,0
8000fc3c:	01010293          	addi	x5,x2,16
8000fc40:	01c10813          	addi	x16,x2,28
8000fc44:	00082783          	lw	x15,0(x16)
8000fc48:	ffc82603          	lw	x12,-4(x16)
8000fc4c:	ffc80813          	addi	x16,x16,-4
8000fc50:	00379793          	slli	x15,x15,0x3
8000fc54:	01d65613          	srli	x12,x12,0x1d
8000fc58:	00c7e7b3          	or	x15,x15,x12
8000fc5c:	00f82223          	sw	x15,4(x16)
8000fc60:	ff0292e3          	bne	x5,x16,8000fc44 <__subtf3+0x84>
8000fc64:	010f1793          	slli	x15,x30,0x10
8000fc68:	0107d793          	srli	x15,x15,0x10
8000fc6c:	00369693          	slli	x13,x13,0x3
8000fc70:	02f12623          	sw	x15,44(x2)
8000fc74:	001f1793          	slli	x15,x30,0x1
8000fc78:	03e12e23          	sw	x30,60(x2)
8000fc7c:	00d12823          	sw	x13,16(x2)
8000fc80:	02e12823          	sw	x14,48(x2)
8000fc84:	03112a23          	sw	x17,52(x2)
8000fc88:	02b12c23          	sw	x11,56(x2)
8000fc8c:	02e12023          	sw	x14,32(x2)
8000fc90:	03112223          	sw	x17,36(x2)
8000fc94:	02b12423          	sw	x11,40(x2)
8000fc98:	0117de13          	srli	x28,x15,0x11
8000fc9c:	01ff5f13          	srli	x30,x30,0x1f
8000fca0:	02010f93          	addi	x31,x2,32
8000fca4:	02c10313          	addi	x6,x2,44
8000fca8:	00032783          	lw	x15,0(x6)
8000fcac:	ffc32603          	lw	x12,-4(x6)
8000fcb0:	ffc30313          	addi	x6,x6,-4
8000fcb4:	00379793          	slli	x15,x15,0x3
8000fcb8:	01d65613          	srli	x12,x12,0x1d
8000fcbc:	00c7e7b3          	or	x15,x15,x12
8000fcc0:	00f32223          	sw	x15,4(x6)
8000fcc4:	fe6f92e3          	bne	x31,x6,8000fca8 <__subtf3+0xe8>
8000fcc8:	00371713          	slli	x14,x14,0x3
8000fccc:	000087b7          	lui	x15,0x8
8000fcd0:	02e12023          	sw	x14,32(x2)
8000fcd4:	fff78793          	addi	x15,x15,-1 # 7fff <_start-0x7fff8001>
8000fcd8:	02fe1063          	bne	x28,x15,8000fcf8 <__subtf3+0x138>
8000fcdc:	02812603          	lw	x12,40(x2)
8000fce0:	02412783          	lw	x15,36(x2)
8000fce4:	00c7e7b3          	or	x15,x15,x12
8000fce8:	02c12603          	lw	x12,44(x2)
8000fcec:	00c7e7b3          	or	x15,x15,x12
8000fcf0:	00e7e7b3          	or	x15,x15,x14
8000fcf4:	00079463          	bne	x15,x0,8000fcfc <__subtf3+0x13c>
8000fcf8:	001f4f13          	xori	x30,x30,1
8000fcfc:	41c907b3          	sub	x15,x18,x28
8000fd00:	02af18e3          	bne	x30,x10,80010530 <__subtf3+0x970>
8000fd04:	38f05863          	bge	x0,x15,80010094 <__subtf3+0x4d4>
8000fd08:	01412803          	lw	x16,20(x2)
8000fd0c:	01812e83          	lw	x29,24(x2)
8000fd10:	01c12883          	lw	x17,28(x2)
8000fd14:	0a0e1263          	bne	x28,x0,8000fdb8 <__subtf3+0x1f8>
8000fd18:	02412503          	lw	x10,36(x2)
8000fd1c:	02812583          	lw	x11,40(x2)
8000fd20:	02c12e03          	lw	x28,44(x2)
8000fd24:	00b56633          	or	x12,x10,x11
8000fd28:	01c66633          	or	x12,x12,x28
8000fd2c:	00e66633          	or	x12,x12,x14
8000fd30:	00061c63          	bne	x12,x0,8000fd48 <__subtf3+0x188>
8000fd34:	02d12823          	sw	x13,48(x2)
8000fd38:	03012a23          	sw	x16,52(x2)
8000fd3c:	03d12c23          	sw	x29,56(x2)
8000fd40:	03112e23          	sw	x17,60(x2)
8000fd44:	0940006f          	jal	x0,8000fdd8 <__subtf3+0x218>
8000fd48:	fff78613          	addi	x12,x15,-1
8000fd4c:	04061863          	bne	x12,x0,8000fd9c <__subtf3+0x1dc>
8000fd50:	00e68633          	add	x12,x13,x14
8000fd54:	01050833          	add	x16,x10,x16
8000fd58:	00d636b3          	sltu	x13,x12,x13
8000fd5c:	00d806b3          	add	x13,x16,x13
8000fd60:	02d12a23          	sw	x13,52(x2)
8000fd64:	00a83533          	sltu	x10,x16,x10
8000fd68:	0106b6b3          	sltu	x13,x13,x16
8000fd6c:	01d58eb3          	add	x29,x11,x29
8000fd70:	00d56533          	or	x10,x10,x13
8000fd74:	00ae8533          	add	x10,x29,x10
8000fd78:	02a12c23          	sw	x10,56(x2)
8000fd7c:	00beb733          	sltu	x14,x29,x11
8000fd80:	01d53533          	sltu	x10,x10,x29
8000fd84:	00a76733          	or	x14,x14,x10
8000fd88:	011e0e33          	add	x28,x28,x17
8000fd8c:	02c12823          	sw	x12,48(x2)
8000fd90:	01c70733          	add	x14,x14,x28
8000fd94:	00100793          	addi	x15,x0,1
8000fd98:	2ec0006f          	jal	x0,80010084 <__subtf3+0x4c4>
8000fd9c:	00008737          	lui	x14,0x8
8000fda0:	fff70713          	addi	x14,x14,-1 # 7fff <_start-0x7fff8001>
8000fda4:	00e78463          	beq	x15,x14,8000fdac <__subtf3+0x1ec>
8000fda8:	0dc0106f          	jal	x0,80010e84 <__subtf3+0x12c4>
8000fdac:	02d12823          	sw	x13,48(x2)
8000fdb0:	03012a23          	sw	x16,52(x2)
8000fdb4:	3840006f          	jal	x0,80010138 <__subtf3+0x578>
8000fdb8:	00008737          	lui	x14,0x8
8000fdbc:	fff70713          	addi	x14,x14,-1 # 7fff <_start-0x7fff8001>
8000fdc0:	16e91263          	bne	x18,x14,8000ff24 <__subtf3+0x364>
8000fdc4:	02d12823          	sw	x13,48(x2)
8000fdc8:	03012a23          	sw	x16,52(x2)
8000fdcc:	03d12c23          	sw	x29,56(x2)
8000fdd0:	03112e23          	sw	x17,60(x2)
8000fdd4:	00090793          	addi	x15,x18,0
8000fdd8:	03012703          	lw	x14,48(x2)
8000fddc:	00777693          	andi	x13,x14,7
8000fde0:	04068663          	beq	x13,x0,8000fe2c <__subtf3+0x26c>
8000fde4:	00f77693          	andi	x13,x14,15
8000fde8:	00400613          	addi	x12,x0,4
8000fdec:	04c68063          	beq	x13,x12,8000fe2c <__subtf3+0x26c>
8000fdf0:	00c706b3          	add	x13,x14,x12
8000fdf4:	02d12823          	sw	x13,48(x2)
8000fdf8:	03412683          	lw	x13,52(x2)
8000fdfc:	ffc73713          	sltiu	x14,x14,-4
8000fe00:	00173713          	sltiu	x14,x14,1
8000fe04:	00e68733          	add	x14,x13,x14
8000fe08:	02e12a23          	sw	x14,52(x2)
8000fe0c:	00d73733          	sltu	x14,x14,x13
8000fe10:	03812683          	lw	x13,56(x2)
8000fe14:	00e68733          	add	x14,x13,x14
8000fe18:	02e12c23          	sw	x14,56(x2)
8000fe1c:	00d73733          	sltu	x14,x14,x13
8000fe20:	03c12683          	lw	x13,60(x2)
8000fe24:	00d70733          	add	x14,x14,x13
8000fe28:	02e12e23          	sw	x14,60(x2)
8000fe2c:	03c12703          	lw	x14,60(x2)
8000fe30:	00c71693          	slli	x13,x14,0xc
8000fe34:	0206d463          	bge	x13,x0,8000fe5c <__subtf3+0x29c>
8000fe38:	000086b7          	lui	x13,0x8
8000fe3c:	00178793          	addi	x15,x15,1
8000fe40:	fff68693          	addi	x13,x13,-1 # 7fff <_start-0x7fff8001>
8000fe44:	00d79463          	bne	x15,x13,8000fe4c <__subtf3+0x28c>
8000fe48:	0240106f          	jal	x0,80010e6c <__subtf3+0x12ac>
8000fe4c:	fff806b7          	lui	x13,0xfff80
8000fe50:	fff68693          	addi	x13,x13,-1 # fff7ffff <_stack_top+0x77f7ffff>
8000fe54:	00d77733          	and	x14,x14,x13
8000fe58:	02e12e23          	sw	x14,60(x2)
8000fe5c:	03010693          	addi	x13,x2,48
8000fe60:	03c10513          	addi	x10,x2,60
8000fe64:	0006a603          	lw	x12,0(x13)
8000fe68:	0046a583          	lw	x11,4(x13)
8000fe6c:	00468693          	addi	x13,x13,4
8000fe70:	00365613          	srli	x12,x12,0x3
8000fe74:	01d59593          	slli	x11,x11,0x1d
8000fe78:	00b66633          	or	x12,x12,x11
8000fe7c:	fec6ae23          	sw	x12,-4(x13)
8000fe80:	fed512e3          	bne	x10,x13,8000fe64 <__subtf3+0x2a4>
8000fe84:	00008637          	lui	x12,0x8
8000fe88:	fff60693          	addi	x13,x12,-1 # 7fff <_start-0x7fff8001>
8000fe8c:	00375713          	srli	x14,x14,0x3
8000fe90:	02d79a63          	bne	x15,x13,8000fec4 <__subtf3+0x304>
8000fe94:	03412583          	lw	x11,52(x2)
8000fe98:	03012683          	lw	x13,48(x2)
8000fe9c:	00b6e6b3          	or	x13,x13,x11
8000fea0:	03812583          	lw	x11,56(x2)
8000fea4:	00b6e6b3          	or	x13,x13,x11
8000fea8:	00d76733          	or	x14,x14,x13
8000feac:	00070c63          	beq	x14,x0,8000fec4 <__subtf3+0x304>
8000feb0:	02012c23          	sw	x0,56(x2)
8000feb4:	02012a23          	sw	x0,52(x2)
8000feb8:	02012823          	sw	x0,48(x2)
8000febc:	00060713          	addi	x14,x12,0
8000fec0:	00000493          	addi	x9,x0,0
8000fec4:	01179793          	slli	x15,x15,0x11
8000fec8:	0117d793          	srli	x15,x15,0x11
8000fecc:	00f49493          	slli	x9,x9,0xf
8000fed0:	00f4e4b3          	or	x9,x9,x15
8000fed4:	03012783          	lw	x15,48(x2)
8000fed8:	00911723          	sh	x9,14(x2)
8000fedc:	00e11623          	sh	x14,12(x2)
8000fee0:	00f42023          	sw	x15,0(x8)
8000fee4:	03412783          	lw	x15,52(x2)
8000fee8:	05c12083          	lw	x1,92(x2)
8000feec:	00040513          	addi	x10,x8,0
8000fef0:	00f42223          	sw	x15,4(x8)
8000fef4:	03812783          	lw	x15,56(x2)
8000fef8:	05412483          	lw	x9,84(x2)
8000fefc:	05012903          	lw	x18,80(x2)
8000ff00:	00f42423          	sw	x15,8(x8)
8000ff04:	00c12783          	lw	x15,12(x2)
8000ff08:	04c12983          	lw	x19,76(x2)
8000ff0c:	04812a03          	lw	x20,72(x2)
8000ff10:	00f42623          	sw	x15,12(x8)
8000ff14:	05812403          	lw	x8,88(x2)
8000ff18:	04412a83          	lw	x21,68(x2)
8000ff1c:	06010113          	addi	x2,x2,96
8000ff20:	00008067          	jalr	x0,0(x1)
8000ff24:	02c12703          	lw	x14,44(x2)
8000ff28:	00080637          	lui	x12,0x80
8000ff2c:	00c76733          	or	x14,x14,x12
8000ff30:	02e12623          	sw	x14,44(x2)
8000ff34:	07400713          	addi	x14,x0,116
8000ff38:	74f74ae3          	blt	x14,x15,80010e8c <__subtf3+0x12cc>
8000ff3c:	00078613          	addi	x12,x15,0
8000ff40:	40565793          	srai	x15,x12,0x5
8000ff44:	01f67e13          	andi	x28,x12,31
8000ff48:	00030593          	addi	x11,x6,0
8000ff4c:	00000613          	addi	x12,x0,0
8000ff50:	00000713          	addi	x14,x0,0
8000ff54:	02f71c63          	bne	x14,x15,8000ff8c <__subtf3+0x3cc>
8000ff58:	00300713          	addi	x14,x0,3
8000ff5c:	40f70733          	sub	x14,x14,x15
8000ff60:	00279393          	slli	x7,x15,0x2
8000ff64:	020e1e63          	bne	x28,x0,8000ffa0 <__subtf3+0x3e0>
8000ff68:	007305b3          	add	x11,x6,x7
8000ff6c:	0005a583          	lw	x11,0(x11)
8000ff70:	001e0e13          	addi	x28,x28,1
8000ff74:	00430313          	addi	x6,x6,4
8000ff78:	feb32e23          	sw	x11,-4(x6)
8000ff7c:	ffc756e3          	bge	x14,x28,8000ff68 <__subtf3+0x3a8>
8000ff80:	00400713          	addi	x14,x0,4
8000ff84:	40f707b3          	sub	x15,x14,x15
8000ff88:	0580006f          	jal	x0,8000ffe0 <__subtf3+0x420>
8000ff8c:	0005a503          	lw	x10,0(x11)
8000ff90:	00170713          	addi	x14,x14,1
8000ff94:	00458593          	addi	x11,x11,4
8000ff98:	00a66633          	or	x12,x12,x10
8000ff9c:	fb9ff06f          	jal	x0,8000ff54 <__subtf3+0x394>
8000ffa0:	007f85b3          	add	x11,x31,x7
8000ffa4:	0005a583          	lw	x11,0(x11)
8000ffa8:	02000513          	addi	x10,x0,32
8000ffac:	41c50533          	sub	x10,x10,x28
8000ffb0:	00a595b3          	sll	x11,x11,x10
8000ffb4:	00b66633          	or	x12,x12,x11
8000ffb8:	00730333          	add	x6,x6,x7
8000ffbc:	00000f13          	addi	x30,x0,0
8000ffc0:	02ef4463          	blt	x30,x14,8000ffe8 <__subtf3+0x428>
8000ffc4:	00400593          	addi	x11,x0,4
8000ffc8:	40f587b3          	sub	x15,x11,x15
8000ffcc:	02c12583          	lw	x11,44(x2)
8000ffd0:	00271713          	slli	x14,x14,0x2
8000ffd4:	00ef8733          	add	x14,x31,x14
8000ffd8:	01c5d5b3          	srl	x11,x11,x28
8000ffdc:	00b72023          	sw	x11,0(x14)
8000ffe0:	00400593          	addi	x11,x0,4
8000ffe4:	03c0006f          	jal	x0,80010020 <__subtf3+0x460>
8000ffe8:	00032583          	lw	x11,0(x6)
8000ffec:	00432283          	lw	x5,4(x6)
8000fff0:	407309b3          	sub	x19,x6,x7
8000fff4:	01c5d5b3          	srl	x11,x11,x28
8000fff8:	00a292b3          	sll	x5,x5,x10
8000fffc:	0055e5b3          	or	x11,x11,x5
80010000:	00b9a023          	sw	x11,0(x19)
80010004:	001f0f13          	addi	x30,x30,1
80010008:	00430313          	addi	x6,x6,4
8001000c:	fb5ff06f          	jal	x0,8000ffc0 <__subtf3+0x400>
80010010:	00279713          	slli	x14,x15,0x2
80010014:	00ef8733          	add	x14,x31,x14
80010018:	00072023          	sw	x0,0(x14)
8001001c:	00178793          	addi	x15,x15,1
80010020:	feb798e3          	bne	x15,x11,80010010 <__subtf3+0x450>
80010024:	02012783          	lw	x15,32(x2)
80010028:	00c03633          	sltu	x12,x0,x12
8001002c:	00f66633          	or	x12,x12,x15
80010030:	02412783          	lw	x15,36(x2)
80010034:	00c68633          	add	x12,x13,x12
80010038:	02812703          	lw	x14,40(x2)
8001003c:	01078833          	add	x16,x15,x16
80010040:	00d636b3          	sltu	x13,x12,x13
80010044:	00d806b3          	add	x13,x16,x13
80010048:	02d12a23          	sw	x13,52(x2)
8001004c:	00f837b3          	sltu	x15,x16,x15
80010050:	0106b6b3          	sltu	x13,x13,x16
80010054:	01d70eb3          	add	x29,x14,x29
80010058:	00d7e7b3          	or	x15,x15,x13
8001005c:	00fe87b3          	add	x15,x29,x15
80010060:	02f12c23          	sw	x15,56(x2)
80010064:	00eeb733          	sltu	x14,x29,x14
80010068:	01d7b7b3          	sltu	x15,x15,x29
8001006c:	00f76733          	or	x14,x14,x15
80010070:	02c12783          	lw	x15,44(x2)
80010074:	02c12823          	sw	x12,48(x2)
80010078:	00f887b3          	add	x15,x17,x15
8001007c:	00f70733          	add	x14,x14,x15
80010080:	00090793          	addi	x15,x18,0
80010084:	00c71693          	slli	x13,x14,0xc
80010088:	4406c063          	blt	x13,x0,800104c8 <__subtf3+0x908>
8001008c:	02e12e23          	sw	x14,60(x2)
80010090:	d49ff06f          	jal	x0,8000fdd8 <__subtf3+0x218>
80010094:	02412583          	lw	x11,36(x2)
80010098:	02812e83          	lw	x29,40(x2)
8001009c:	02c12883          	lw	x17,44(x2)
800100a0:	22078e63          	beq	x15,x0,800102dc <__subtf3+0x71c>
800100a4:	412e07b3          	sub	x15,x28,x18
800100a8:	0a091663          	bne	x18,x0,80010154 <__subtf3+0x594>
800100ac:	01412303          	lw	x6,20(x2)
800100b0:	01812503          	lw	x10,24(x2)
800100b4:	01c12f03          	lw	x30,28(x2)
800100b8:	00a36633          	or	x12,x6,x10
800100bc:	01e66633          	or	x12,x12,x30
800100c0:	00d66633          	or	x12,x12,x13
800100c4:	00061863          	bne	x12,x0,800100d4 <__subtf3+0x514>
800100c8:	02e12823          	sw	x14,48(x2)
800100cc:	02b12a23          	sw	x11,52(x2)
800100d0:	c6dff06f          	jal	x0,8000fd3c <__subtf3+0x17c>
800100d4:	fff78913          	addi	x18,x15,-1
800100d8:	04091663          	bne	x18,x0,80010124 <__subtf3+0x564>
800100dc:	00e68633          	add	x12,x13,x14
800100e0:	00b305b3          	add	x11,x6,x11
800100e4:	00d636b3          	sltu	x13,x12,x13
800100e8:	00d586b3          	add	x13,x11,x13
800100ec:	02d12a23          	sw	x13,52(x2)
800100f0:	0065b333          	sltu	x6,x11,x6
800100f4:	00b6b6b3          	sltu	x13,x13,x11
800100f8:	01d50eb3          	add	x29,x10,x29
800100fc:	00d36333          	or	x6,x6,x13
80010100:	006e8333          	add	x6,x29,x6
80010104:	02612c23          	sw	x6,56(x2)
80010108:	00aeb733          	sltu	x14,x29,x10
8001010c:	01d33333          	sltu	x6,x6,x29
80010110:	00676733          	or	x14,x14,x6
80010114:	011f07b3          	add	x15,x30,x17
80010118:	02c12823          	sw	x12,48(x2)
8001011c:	00f70733          	add	x14,x14,x15
80010120:	c75ff06f          	jal	x0,8000fd94 <__subtf3+0x1d4>
80010124:	000086b7          	lui	x13,0x8
80010128:	fff68693          	addi	x13,x13,-1 # 7fff <_start-0x7fff8001>
8001012c:	56d79ae3          	bne	x15,x13,80010ea0 <__subtf3+0x12e0>
80010130:	02e12823          	sw	x14,48(x2)
80010134:	02b12a23          	sw	x11,52(x2)
80010138:	03d12c23          	sw	x29,56(x2)
8001013c:	03112e23          	sw	x17,60(x2)
80010140:	000087b7          	lui	x15,0x8
80010144:	fff78793          	addi	x15,x15,-1 # 7fff <_start-0x7fff8001>
80010148:	c91ff06f          	jal	x0,8000fdd8 <__subtf3+0x218>
8001014c:	00068713          	addi	x14,x13,0
80010150:	fe1ff06f          	jal	x0,80010130 <__subtf3+0x570>
80010154:	000086b7          	lui	x13,0x8
80010158:	fff68693          	addi	x13,x13,-1 # 7fff <_start-0x7fff8001>
8001015c:	fcde0ae3          	beq	x28,x13,80010130 <__subtf3+0x570>
80010160:	01c12683          	lw	x13,28(x2)
80010164:	00080637          	lui	x12,0x80
80010168:	00c6e6b3          	or	x13,x13,x12
8001016c:	00d12e23          	sw	x13,28(x2)
80010170:	07400693          	addi	x13,x0,116
80010174:	52f6cae3          	blt	x13,x15,80010ea8 <__subtf3+0x12e8>
80010178:	00078913          	addi	x18,x15,0
8001017c:	02000793          	addi	x15,x0,32
80010180:	02f947b3          	div	x15,x18,x15
80010184:	00080513          	addi	x10,x16,0
80010188:	00000613          	addi	x12,x0,0
8001018c:	00000693          	addi	x13,x0,0
80010190:	02f6ce63          	blt	x13,x15,800101cc <__subtf3+0x60c>
80010194:	00300693          	addi	x13,x0,3
80010198:	01f97f13          	andi	x30,x18,31
8001019c:	40f68333          	sub	x6,x13,x15
800101a0:	00279393          	slli	x7,x15,0x2
800101a4:	020f1e63          	bne	x30,x0,800101e0 <__subtf3+0x620>
800101a8:	007806b3          	add	x13,x16,x7
800101ac:	0006a683          	lw	x13,0(x13)
800101b0:	001f0f13          	addi	x30,x30,1
800101b4:	00480813          	addi	x16,x16,4
800101b8:	fed82e23          	sw	x13,-4(x16)
800101bc:	ffe356e3          	bge	x6,x30,800101a8 <__subtf3+0x5e8>
800101c0:	00400693          	addi	x13,x0,4
800101c4:	40f687b3          	sub	x15,x13,x15
800101c8:	06c0006f          	jal	x0,80010234 <__subtf3+0x674>
800101cc:	00052303          	lw	x6,0(x10)
800101d0:	00168693          	addi	x13,x13,1
800101d4:	00450513          	addi	x10,x10,4
800101d8:	00666633          	or	x12,x12,x6
800101dc:	fb5ff06f          	jal	x0,80010190 <__subtf3+0x5d0>
800101e0:	02000f93          	addi	x31,x0,32
800101e4:	03f96933          	rem	x18,x18,x31
800101e8:	fff7c693          	xori	x13,x15,-1
800101ec:	41f6d693          	srai	x13,x13,0x1f
800101f0:	00d7f6b3          	and	x13,x15,x13
800101f4:	00269693          	slli	x13,x13,0x2
800101f8:	00d286b3          	add	x13,x5,x13
800101fc:	0006a683          	lw	x13,0(x13)
80010200:	00780833          	add	x16,x16,x7
80010204:	412f8fb3          	sub	x31,x31,x18
80010208:	01f696b3          	sll	x13,x13,x31
8001020c:	00d66633          	or	x12,x12,x13
80010210:	00000693          	addi	x13,x0,0
80010214:	0266c463          	blt	x13,x6,8001023c <__subtf3+0x67c>
80010218:	01c12503          	lw	x10,28(x2)
8001021c:	00400693          	addi	x13,x0,4
80010220:	40f687b3          	sub	x15,x13,x15
80010224:	00231693          	slli	x13,x6,0x2
80010228:	00d286b3          	add	x13,x5,x13
8001022c:	01e55533          	srl	x10,x10,x30
80010230:	00a6a023          	sw	x10,0(x13)
80010234:	00300513          	addi	x10,x0,3
80010238:	03c0006f          	jal	x0,80010274 <__subtf3+0x6b4>
8001023c:	00082503          	lw	x10,0(x16)
80010240:	00482903          	lw	x18,4(x16)
80010244:	407809b3          	sub	x19,x16,x7
80010248:	01e55533          	srl	x10,x10,x30
8001024c:	01f91933          	sll	x18,x18,x31
80010250:	01256533          	or	x10,x10,x18
80010254:	00a9a023          	sw	x10,0(x19)
80010258:	00168693          	addi	x13,x13,1
8001025c:	00480813          	addi	x16,x16,4
80010260:	fb5ff06f          	jal	x0,80010214 <__subtf3+0x654>
80010264:	00279693          	slli	x13,x15,0x2
80010268:	00d286b3          	add	x13,x5,x13
8001026c:	0006a023          	sw	x0,0(x13)
80010270:	00178793          	addi	x15,x15,1
80010274:	fef558e3          	bge	x10,x15,80010264 <__subtf3+0x6a4>
80010278:	01012783          	lw	x15,16(x2)
8001027c:	00c03633          	sltu	x12,x0,x12
80010280:	00f66633          	or	x12,x12,x15
80010284:	01412683          	lw	x13,20(x2)
80010288:	01812783          	lw	x15,24(x2)
8001028c:	00c70633          	add	x12,x14,x12
80010290:	00b685b3          	add	x11,x13,x11
80010294:	00e63733          	sltu	x14,x12,x14
80010298:	00e58733          	add	x14,x11,x14
8001029c:	01d78eb3          	add	x29,x15,x29
800102a0:	02e12a23          	sw	x14,52(x2)
800102a4:	00d5b6b3          	sltu	x13,x11,x13
800102a8:	00b73733          	sltu	x14,x14,x11
800102ac:	00e6e6b3          	or	x13,x13,x14
800102b0:	00feb733          	sltu	x14,x29,x15
800102b4:	01c12783          	lw	x15,28(x2)
800102b8:	00de86b3          	add	x13,x29,x13
800102bc:	02d12c23          	sw	x13,56(x2)
800102c0:	01d6b6b3          	sltu	x13,x13,x29
800102c4:	00f887b3          	add	x15,x17,x15
800102c8:	00d76733          	or	x14,x14,x13
800102cc:	00f70733          	add	x14,x14,x15
800102d0:	02c12823          	sw	x12,48(x2)
800102d4:	000e0793          	addi	x15,x28,0
800102d8:	dadff06f          	jal	x0,80010084 <__subtf3+0x4c4>
800102dc:	00190793          	addi	x15,x18,1
800102e0:	01179513          	slli	x10,x15,0x11
800102e4:	01255513          	srli	x10,x10,0x12
800102e8:	01412603          	lw	x12,20(x2)
800102ec:	01812303          	lw	x6,24(x2)
800102f0:	01c12803          	lw	x16,28(x2)
800102f4:	03010e13          	addi	x28,x2,48
800102f8:	03c10f13          	addi	x30,x2,60
800102fc:	12051e63          	bne	x10,x0,80010438 <__subtf3+0x878>
80010300:	006667b3          	or	x15,x12,x6
80010304:	0107e7b3          	or	x15,x15,x16
80010308:	00d7e7b3          	or	x15,x15,x13
8001030c:	0a091463          	bne	x18,x0,800103b4 <__subtf3+0x7f4>
80010310:	00079a63          	bne	x15,x0,80010324 <__subtf3+0x764>
80010314:	02e12823          	sw	x14,48(x2)
80010318:	02b12a23          	sw	x11,52(x2)
8001031c:	03d12c23          	sw	x29,56(x2)
80010320:	0240006f          	jal	x0,80010344 <__subtf3+0x784>
80010324:	01d5e7b3          	or	x15,x11,x29
80010328:	0117e7b3          	or	x15,x15,x17
8001032c:	00e7e7b3          	or	x15,x15,x14
80010330:	02079063          	bne	x15,x0,80010350 <__subtf3+0x790>
80010334:	02d12823          	sw	x13,48(x2)
80010338:	02c12a23          	sw	x12,52(x2)
8001033c:	02612c23          	sw	x6,56(x2)
80010340:	00080893          	addi	x17,x16,0
80010344:	03112e23          	sw	x17,60(x2)
80010348:	00000793          	addi	x15,x0,0
8001034c:	a8dff06f          	jal	x0,8000fdd8 <__subtf3+0x218>
80010350:	00e687b3          	add	x15,x13,x14
80010354:	00b605b3          	add	x11,x12,x11
80010358:	02f12823          	sw	x15,48(x2)
8001035c:	00d7b7b3          	sltu	x15,x15,x13
80010360:	00f587b3          	add	x15,x11,x15
80010364:	00c5b6b3          	sltu	x13,x11,x12
80010368:	02f12a23          	sw	x15,52(x2)
8001036c:	00b7b7b3          	sltu	x15,x15,x11
80010370:	01d30eb3          	add	x29,x6,x29
80010374:	00f6e6b3          	or	x13,x13,x15
80010378:	00de86b3          	add	x13,x29,x13
8001037c:	02d12c23          	sw	x13,56(x2)
80010380:	006eb733          	sltu	x14,x29,x6
80010384:	01d6b6b3          	sltu	x13,x13,x29
80010388:	00d76733          	or	x14,x14,x13
8001038c:	01180633          	add	x12,x16,x17
80010390:	00c708b3          	add	x17,x14,x12
80010394:	00c89793          	slli	x15,x17,0xc
80010398:	fa07d6e3          	bge	x15,x0,80010344 <__subtf3+0x784>
8001039c:	fff807b7          	lui	x15,0xfff80
800103a0:	fff78793          	addi	x15,x15,-1 # fff7ffff <_stack_top+0x77f7ffff>
800103a4:	00f8f7b3          	and	x15,x17,x15
800103a8:	02f12e23          	sw	x15,60(x2)
800103ac:	00100793          	addi	x15,x0,1
800103b0:	a29ff06f          	jal	x0,8000fdd8 <__subtf3+0x218>
800103b4:	02078463          	beq	x15,x0,800103dc <__subtf3+0x81c>
800103b8:	01d5e5b3          	or	x11,x11,x29
800103bc:	0115e5b3          	or	x11,x11,x17
800103c0:	00e5e5b3          	or	x11,x11,x14
800103c4:	02059663          	bne	x11,x0,800103f0 <__subtf3+0x830>
800103c8:	02d12823          	sw	x13,48(x2)
800103cc:	02c12a23          	sw	x12,52(x2)
800103d0:	02612c23          	sw	x6,56(x2)
800103d4:	03012e23          	sw	x16,60(x2)
800103d8:	d69ff06f          	jal	x0,80010140 <__subtf3+0x580>
800103dc:	00070693          	addi	x13,x14,0
800103e0:	00058613          	addi	x12,x11,0
800103e4:	000e8313          	addi	x6,x29,0
800103e8:	00088813          	addi	x16,x17,0 # 10000 <_start-0x7fff0000>
800103ec:	fddff06f          	jal	x0,800103c8 <__subtf3+0x808>
800103f0:	000087b7          	lui	x15,0x8
800103f4:	02f12e23          	sw	x15,60(x2)
800103f8:	02012c23          	sw	x0,56(x2)
800103fc:	02012a23          	sw	x0,52(x2)
80010400:	02012823          	sw	x0,48(x2)
80010404:	000f0793          	addi	x15,x30,0
80010408:	0007a703          	lw	x14,0(x15) # 8000 <_start-0x7fff8000>
8001040c:	ffc7a683          	lw	x13,-4(x15)
80010410:	ffc78793          	addi	x15,x15,-4
80010414:	00371713          	slli	x14,x14,0x3
80010418:	01d6d693          	srli	x13,x13,0x1d
8001041c:	00d76733          	or	x14,x14,x13
80010420:	00e7a223          	sw	x14,4(x15)
80010424:	fefe12e3          	bne	x28,x15,80010408 <__subtf3+0x848>
80010428:	000087b7          	lui	x15,0x8
8001042c:	fff78793          	addi	x15,x15,-1 # 7fff <_start-0x7fff8001>
80010430:	00000493          	addi	x9,x0,0
80010434:	9a5ff06f          	jal	x0,8000fdd8 <__subtf3+0x218>
80010438:	00e68533          	add	x10,x13,x14
8001043c:	00b605b3          	add	x11,x12,x11
80010440:	02a12823          	sw	x10,48(x2)
80010444:	00d53533          	sltu	x10,x10,x13
80010448:	00a58533          	add	x10,x11,x10
8001044c:	00c5b6b3          	sltu	x13,x11,x12
80010450:	02a12a23          	sw	x10,52(x2)
80010454:	00b53533          	sltu	x10,x10,x11
80010458:	01d30eb3          	add	x29,x6,x29
8001045c:	00a6e6b3          	or	x13,x13,x10
80010460:	00de86b3          	add	x13,x29,x13
80010464:	02d12c23          	sw	x13,56(x2)
80010468:	006eb733          	sltu	x14,x29,x6
8001046c:	01d6b6b3          	sltu	x13,x13,x29
80010470:	00d76733          	or	x14,x14,x13
80010474:	01180633          	add	x12,x16,x17
80010478:	00c70733          	add	x14,x14,x12
8001047c:	02e12e23          	sw	x14,60(x2)
80010480:	000e0693          	addi	x13,x28,0
80010484:	0006a603          	lw	x12,0(x13)
80010488:	0046a583          	lw	x11,4(x13)
8001048c:	00468693          	addi	x13,x13,4
80010490:	00165613          	srli	x12,x12,0x1
80010494:	01f59593          	slli	x11,x11,0x1f
80010498:	00b66633          	or	x12,x12,x11
8001049c:	fec6ae23          	sw	x12,-4(x13)
800104a0:	fedf12e3          	bne	x30,x13,80010484 <__subtf3+0x8c4>
800104a4:	000086b7          	lui	x13,0x8
800104a8:	fff68693          	addi	x13,x13,-1 # 7fff <_start-0x7fff8001>
800104ac:	00175713          	srli	x14,x14,0x1
800104b0:	bcd79ee3          	bne	x15,x13,8001008c <__subtf3+0x4cc>
800104b4:	02012e23          	sw	x0,60(x2)
800104b8:	02012c23          	sw	x0,56(x2)
800104bc:	02012a23          	sw	x0,52(x2)
800104c0:	02012823          	sw	x0,48(x2)
800104c4:	915ff06f          	jal	x0,8000fdd8 <__subtf3+0x218>
800104c8:	fff806b7          	lui	x13,0xfff80
800104cc:	fff68693          	addi	x13,x13,-1 # fff7ffff <_stack_top+0x77f7ffff>
800104d0:	00d77733          	and	x14,x14,x13
800104d4:	02e12e23          	sw	x14,60(x2)
800104d8:	00178793          	addi	x15,x15,1
800104dc:	01f61613          	slli	x12,x12,0x1f
800104e0:	03010693          	addi	x13,x2,48
800104e4:	03c10813          	addi	x16,x2,60
800104e8:	0006a583          	lw	x11,0(x13)
800104ec:	0046a503          	lw	x10,4(x13)
800104f0:	00468693          	addi	x13,x13,4
800104f4:	0015d593          	srli	x11,x11,0x1
800104f8:	01f51513          	slli	x10,x10,0x1f
800104fc:	00a5e5b3          	or	x11,x11,x10
80010500:	feb6ae23          	sw	x11,-4(x13)
80010504:	fed812e3          	bne	x16,x13,800104e8 <__subtf3+0x928>
80010508:	00175713          	srli	x14,x14,0x1
8001050c:	02e12e23          	sw	x14,60(x2)
80010510:	03012703          	lw	x14,48(x2)
80010514:	01f65613          	srli	x12,x12,0x1f
80010518:	00c76733          	or	x14,x14,x12
8001051c:	02e12823          	sw	x14,48(x2)
80010520:	00008737          	lui	x14,0x8
80010524:	fff70713          	addi	x14,x14,-1 # 7fff <_start-0x7fff8001>
80010528:	8ae798e3          	bne	x15,x14,8000fdd8 <__subtf3+0x218>
8001052c:	f89ff06f          	jal	x0,800104b4 <__subtf3+0x8f4>
80010530:	24f05c63          	bge	x0,x15,80010788 <__subtf3+0xbc8>
80010534:	01412583          	lw	x11,20(x2)
80010538:	01812e83          	lw	x29,24(x2)
8001053c:	01c12883          	lw	x17,28(x2)
80010540:	0a0e1463          	bne	x28,x0,800105e8 <__subtf3+0xa28>
80010544:	02412e03          	lw	x28,36(x2)
80010548:	02812f03          	lw	x30,40(x2)
8001054c:	02c12503          	lw	x10,44(x2)
80010550:	01ee6633          	or	x12,x28,x30
80010554:	00a66633          	or	x12,x12,x10
80010558:	00e66633          	or	x12,x12,x14
8001055c:	00061663          	bne	x12,x0,80010568 <__subtf3+0x9a8>
80010560:	02d12823          	sw	x13,48(x2)
80010564:	b69ff06f          	jal	x0,800100cc <__subtf3+0x50c>
80010568:	fff78613          	addi	x12,x15,-1
8001056c:	04061a63          	bne	x12,x0,800105c0 <__subtf3+0xa00>
80010570:	41c587b3          	sub	x15,x11,x28
80010574:	40e68633          	sub	x12,x13,x14
80010578:	40be0e33          	sub	x28,x28,x11
8001057c:	00c6b6b3          	sltu	x13,x13,x12
80010580:	001e3e13          	sltiu	x28,x28,1
80010584:	40d78833          	sub	x16,x15,x13
80010588:	01c6f6b3          	and	x13,x13,x28
8001058c:	00f5b7b3          	sltu	x15,x11,x15
80010590:	00d7e7b3          	or	x15,x15,x13
80010594:	41df06b3          	sub	x13,x30,x29
80010598:	41ee85b3          	sub	x11,x29,x30
8001059c:	0016b693          	sltiu	x13,x13,1
800105a0:	40f58733          	sub	x14,x11,x15
800105a4:	00d7f7b3          	and	x15,x15,x13
800105a8:	00beb5b3          	sltu	x11,x29,x11
800105ac:	40a88533          	sub	x10,x17,x10
800105b0:	00f5e5b3          	or	x11,x11,x15
800105b4:	40b50533          	sub	x10,x10,x11
800105b8:	00100793          	addi	x15,x0,1
800105bc:	19c0006f          	jal	x0,80010758 <__subtf3+0xb98>
800105c0:	00008737          	lui	x14,0x8
800105c4:	fff70713          	addi	x14,x14,-1 # 7fff <_start-0x7fff8001>
800105c8:	f8e78ce3          	beq	x15,x14,80010560 <__subtf3+0x9a0>
800105cc:	07400793          	addi	x15,x0,116
800105d0:	04c7d063          	bge	x15,x12,80010610 <__subtf3+0xa50>
800105d4:	02012623          	sw	x0,44(x2)
800105d8:	02012423          	sw	x0,40(x2)
800105dc:	02012223          	sw	x0,36(x2)
800105e0:	00100613          	addi	x12,x0,1
800105e4:	11c0006f          	jal	x0,80010700 <__subtf3+0xb40>
800105e8:	00008737          	lui	x14,0x8
800105ec:	fff70713          	addi	x14,x14,-1 # 7fff <_start-0x7fff8001>
800105f0:	b4e90ee3          	beq	x18,x14,8001014c <__subtf3+0x58c>
800105f4:	02c12703          	lw	x14,44(x2)
800105f8:	00080637          	lui	x12,0x80
800105fc:	00c76733          	or	x14,x14,x12
80010600:	02e12623          	sw	x14,44(x2)
80010604:	07400713          	addi	x14,x0,116
80010608:	fcf746e3          	blt	x14,x15,800105d4 <__subtf3+0xa14>
8001060c:	00078613          	addi	x12,x15,0
80010610:	40565793          	srai	x15,x12,0x5
80010614:	01f67e13          	andi	x28,x12,31
80010618:	00030513          	addi	x10,x6,0
8001061c:	00000613          	addi	x12,x0,0
80010620:	00000713          	addi	x14,x0,0
80010624:	02f71c63          	bne	x14,x15,8001065c <__subtf3+0xa9c>
80010628:	00300713          	addi	x14,x0,3
8001062c:	40f70733          	sub	x14,x14,x15
80010630:	00279393          	slli	x7,x15,0x2
80010634:	020e1e63          	bne	x28,x0,80010670 <__subtf3+0xab0>
80010638:	00730533          	add	x10,x6,x7
8001063c:	00052503          	lw	x10,0(x10)
80010640:	001e0e13          	addi	x28,x28,1
80010644:	00430313          	addi	x6,x6,4
80010648:	fea32e23          	sw	x10,-4(x6)
8001064c:	ffc756e3          	bge	x14,x28,80010638 <__subtf3+0xa78>
80010650:	00400713          	addi	x14,x0,4
80010654:	40f707b3          	sub	x15,x14,x15
80010658:	0580006f          	jal	x0,800106b0 <__subtf3+0xaf0>
8001065c:	00052803          	lw	x16,0(x10)
80010660:	00170713          	addi	x14,x14,1
80010664:	00450513          	addi	x10,x10,4
80010668:	01066633          	or	x12,x12,x16
8001066c:	fb9ff06f          	jal	x0,80010624 <__subtf3+0xa64>
80010670:	007f8533          	add	x10,x31,x7
80010674:	00052503          	lw	x10,0(x10)
80010678:	02000813          	addi	x16,x0,32
8001067c:	41c80833          	sub	x16,x16,x28
80010680:	01051533          	sll	x10,x10,x16
80010684:	00a66633          	or	x12,x12,x10
80010688:	00730333          	add	x6,x6,x7
8001068c:	00000f13          	addi	x30,x0,0
80010690:	02ef4463          	blt	x30,x14,800106b8 <__subtf3+0xaf8>
80010694:	00400513          	addi	x10,x0,4
80010698:	40f507b3          	sub	x15,x10,x15
8001069c:	02c12503          	lw	x10,44(x2)
800106a0:	00271713          	slli	x14,x14,0x2
800106a4:	00ef8733          	add	x14,x31,x14
800106a8:	01c55533          	srl	x10,x10,x28
800106ac:	00a72023          	sw	x10,0(x14)
800106b0:	00400513          	addi	x10,x0,4
800106b4:	03c0006f          	jal	x0,800106f0 <__subtf3+0xb30>
800106b8:	00032503          	lw	x10,0(x6)
800106bc:	00432283          	lw	x5,4(x6)
800106c0:	407309b3          	sub	x19,x6,x7
800106c4:	01c55533          	srl	x10,x10,x28
800106c8:	010292b3          	sll	x5,x5,x16
800106cc:	00556533          	or	x10,x10,x5
800106d0:	00a9a023          	sw	x10,0(x19)
800106d4:	001f0f13          	addi	x30,x30,1
800106d8:	00430313          	addi	x6,x6,4
800106dc:	fb5ff06f          	jal	x0,80010690 <__subtf3+0xad0>
800106e0:	00279713          	slli	x14,x15,0x2
800106e4:	00ef8733          	add	x14,x31,x14
800106e8:	00072023          	sw	x0,0(x14)
800106ec:	00178793          	addi	x15,x15,1
800106f0:	fea798e3          	bne	x15,x10,800106e0 <__subtf3+0xb20>
800106f4:	02012783          	lw	x15,32(x2)
800106f8:	00c03633          	sltu	x12,x0,x12
800106fc:	00f66633          	or	x12,x12,x15
80010700:	02412703          	lw	x14,36(x2)
80010704:	40c68633          	sub	x12,x13,x12
80010708:	00c6b6b3          	sltu	x13,x13,x12
8001070c:	40e587b3          	sub	x15,x11,x14
80010710:	40d78833          	sub	x16,x15,x13
80010714:	40b70733          	sub	x14,x14,x11
80010718:	00f5b7b3          	sltu	x15,x11,x15
8001071c:	02812583          	lw	x11,40(x2)
80010720:	00173713          	sltiu	x14,x14,1
80010724:	00e6f6b3          	and	x13,x13,x14
80010728:	00d7e7b3          	or	x15,x15,x13
8001072c:	02c12503          	lw	x10,44(x2)
80010730:	40be86b3          	sub	x13,x29,x11
80010734:	41d585b3          	sub	x11,x11,x29
80010738:	0015b593          	sltiu	x11,x11,1
8001073c:	40f68733          	sub	x14,x13,x15
80010740:	00b7f7b3          	and	x15,x15,x11
80010744:	00deb6b3          	sltu	x13,x29,x13
80010748:	00f6e6b3          	or	x13,x13,x15
8001074c:	40a88533          	sub	x10,x17,x10
80010750:	40d50533          	sub	x10,x10,x13
80010754:	00090793          	addi	x15,x18,0
80010758:	02e12c23          	sw	x14,56(x2)
8001075c:	02a12e23          	sw	x10,60(x2)
80010760:	03012a23          	sw	x16,52(x2)
80010764:	02c12823          	sw	x12,48(x2)
80010768:	00c51713          	slli	x14,x10,0xc
8001076c:	e6075663          	bge	x14,x0,8000fdd8 <__subtf3+0x218>
80010770:	00080737          	lui	x14,0x80
80010774:	fff70713          	addi	x14,x14,-1 # 7ffff <_start-0x7ff80001>
80010778:	00e57533          	and	x10,x10,x14
8001077c:	02a12e23          	sw	x10,60(x2)
80010780:	00078913          	addi	x18,x15,0
80010784:	4c40006f          	jal	x0,80010c48 <__subtf3+0x1088>
80010788:	02412303          	lw	x6,36(x2)
8001078c:	02812583          	lw	x11,40(x2)
80010790:	02c12f83          	lw	x31,44(x2)
80010794:	24078663          	beq	x15,x0,800109e0 <__subtf3+0xe20>
80010798:	412e07b3          	sub	x15,x28,x18
8001079c:	0a091a63          	bne	x18,x0,80010850 <__subtf3+0xc90>
800107a0:	01412883          	lw	x17,20(x2)
800107a4:	01812e83          	lw	x29,24(x2)
800107a8:	01c12503          	lw	x10,28(x2)
800107ac:	01d8e633          	or	x12,x17,x29
800107b0:	00a66633          	or	x12,x12,x10
800107b4:	00d66633          	or	x12,x12,x13
800107b8:	00061e63          	bne	x12,x0,800107d4 <__subtf3+0xc14>
800107bc:	02e12823          	sw	x14,48(x2)
800107c0:	02612a23          	sw	x6,52(x2)
800107c4:	02b12c23          	sw	x11,56(x2)
800107c8:	03f12e23          	sw	x31,60(x2)
800107cc:	000f0493          	addi	x9,x30,0
800107d0:	e08ff06f          	jal	x0,8000fdd8 <__subtf3+0x218>
800107d4:	fff78913          	addi	x18,x15,-1
800107d8:	04091a63          	bne	x18,x0,8001082c <__subtf3+0xc6c>
800107dc:	411307b3          	sub	x15,x6,x17
800107e0:	40d70633          	sub	x12,x14,x13
800107e4:	406888b3          	sub	x17,x17,x6
800107e8:	00c73733          	sltu	x14,x14,x12
800107ec:	0018b893          	sltiu	x17,x17,1
800107f0:	40e78833          	sub	x16,x15,x14
800107f4:	40be86b3          	sub	x13,x29,x11
800107f8:	01177733          	and	x14,x14,x17
800107fc:	00f337b3          	sltu	x15,x6,x15
80010800:	00e7e7b3          	or	x15,x15,x14
80010804:	41d588b3          	sub	x17,x11,x29
80010808:	0016b693          	sltiu	x13,x13,1
8001080c:	40f88733          	sub	x14,x17,x15
80010810:	00d7f7b3          	and	x15,x15,x13
80010814:	0115b8b3          	sltu	x17,x11,x17
80010818:	40af8533          	sub	x10,x31,x10
8001081c:	00f8e8b3          	or	x17,x17,x15
80010820:	41150533          	sub	x10,x10,x17
80010824:	000f0493          	addi	x9,x30,0
80010828:	d91ff06f          	jal	x0,800105b8 <__subtf3+0x9f8>
8001082c:	000086b7          	lui	x13,0x8
80010830:	fff68693          	addi	x13,x13,-1 # 7fff <_start-0x7fff8001>
80010834:	68d79463          	bne	x15,x13,80010ebc <__subtf3+0x12fc>
80010838:	02e12823          	sw	x14,48(x2)
8001083c:	02612a23          	sw	x6,52(x2)
80010840:	02b12c23          	sw	x11,56(x2)
80010844:	03f12e23          	sw	x31,60(x2)
80010848:	000f0493          	addi	x9,x30,0
8001084c:	8f5ff06f          	jal	x0,80010140 <__subtf3+0x580>
80010850:	000086b7          	lui	x13,0x8
80010854:	fff68693          	addi	x13,x13,-1 # 7fff <_start-0x7fff8001>
80010858:	fede00e3          	beq	x28,x13,80010838 <__subtf3+0xc78>
8001085c:	01c12683          	lw	x13,28(x2)
80010860:	00080637          	lui	x12,0x80
80010864:	00c6e6b3          	or	x13,x13,x12
80010868:	00d12e23          	sw	x13,28(x2)
8001086c:	07400693          	addi	x13,x0,116
80010870:	64f6ca63          	blt	x13,x15,80010ec4 <__subtf3+0x1304>
80010874:	00078913          	addi	x18,x15,0
80010878:	02000793          	addi	x15,x0,32
8001087c:	02f947b3          	div	x15,x18,x15
80010880:	00080513          	addi	x10,x16,0
80010884:	00000613          	addi	x12,x0,0
80010888:	00000693          	addi	x13,x0,0
8001088c:	02f6ce63          	blt	x13,x15,800108c8 <__subtf3+0xd08>
80010890:	00300693          	addi	x13,x0,3
80010894:	01f97e93          	andi	x29,x18,31
80010898:	40f688b3          	sub	x17,x13,x15
8001089c:	00279493          	slli	x9,x15,0x2
800108a0:	020e9e63          	bne	x29,x0,800108dc <__subtf3+0xd1c>
800108a4:	009806b3          	add	x13,x16,x9
800108a8:	0006a683          	lw	x13,0(x13)
800108ac:	001e8e93          	addi	x29,x29,1
800108b0:	00480813          	addi	x16,x16,4
800108b4:	fed82e23          	sw	x13,-4(x16)
800108b8:	ffd8d6e3          	bge	x17,x29,800108a4 <__subtf3+0xce4>
800108bc:	00400693          	addi	x13,x0,4
800108c0:	40f687b3          	sub	x15,x13,x15
800108c4:	06c0006f          	jal	x0,80010930 <__subtf3+0xd70>
800108c8:	00052883          	lw	x17,0(x10)
800108cc:	00168693          	addi	x13,x13,1
800108d0:	00450513          	addi	x10,x10,4
800108d4:	01166633          	or	x12,x12,x17
800108d8:	fb5ff06f          	jal	x0,8001088c <__subtf3+0xccc>
800108dc:	02000393          	addi	x7,x0,32
800108e0:	02796933          	rem	x18,x18,x7
800108e4:	fff7c693          	xori	x13,x15,-1
800108e8:	41f6d693          	srai	x13,x13,0x1f
800108ec:	00d7f6b3          	and	x13,x15,x13
800108f0:	00269693          	slli	x13,x13,0x2
800108f4:	00d286b3          	add	x13,x5,x13
800108f8:	0006a683          	lw	x13,0(x13)
800108fc:	00980833          	add	x16,x16,x9
80010900:	412383b3          	sub	x7,x7,x18
80010904:	007696b3          	sll	x13,x13,x7
80010908:	00d66633          	or	x12,x12,x13
8001090c:	00000693          	addi	x13,x0,0
80010910:	0316c463          	blt	x13,x17,80010938 <__subtf3+0xd78>
80010914:	01c12503          	lw	x10,28(x2)
80010918:	00400693          	addi	x13,x0,4
8001091c:	40f687b3          	sub	x15,x13,x15
80010920:	00289693          	slli	x13,x17,0x2
80010924:	00d286b3          	add	x13,x5,x13
80010928:	01d55533          	srl	x10,x10,x29
8001092c:	00a6a023          	sw	x10,0(x13)
80010930:	00300513          	addi	x10,x0,3
80010934:	03c0006f          	jal	x0,80010970 <__subtf3+0xdb0>
80010938:	00082503          	lw	x10,0(x16)
8001093c:	00482903          	lw	x18,4(x16)
80010940:	409809b3          	sub	x19,x16,x9
80010944:	01d55533          	srl	x10,x10,x29
80010948:	00791933          	sll	x18,x18,x7
8001094c:	01256533          	or	x10,x10,x18
80010950:	00a9a023          	sw	x10,0(x19)
80010954:	00168693          	addi	x13,x13,1
80010958:	00480813          	addi	x16,x16,4
8001095c:	fb5ff06f          	jal	x0,80010910 <__subtf3+0xd50>
80010960:	00279693          	slli	x13,x15,0x2
80010964:	00d286b3          	add	x13,x5,x13
80010968:	0006a023          	sw	x0,0(x13)
8001096c:	00178793          	addi	x15,x15,1
80010970:	fef558e3          	bge	x10,x15,80010960 <__subtf3+0xda0>
80010974:	01012783          	lw	x15,16(x2)
80010978:	00c03633          	sltu	x12,x0,x12
8001097c:	00f66633          	or	x12,x12,x15
80010980:	01412683          	lw	x13,20(x2)
80010984:	01812883          	lw	x17,24(x2)
80010988:	40c70633          	sub	x12,x14,x12
8001098c:	40d307b3          	sub	x15,x6,x13
80010990:	406686b3          	sub	x13,x13,x6
80010994:	00c73733          	sltu	x14,x14,x12
80010998:	0016b693          	sltiu	x13,x13,1
8001099c:	40e78833          	sub	x16,x15,x14
800109a0:	01c12503          	lw	x10,28(x2)
800109a4:	00d77733          	and	x14,x14,x13
800109a8:	00f337b3          	sltu	x15,x6,x15
800109ac:	411586b3          	sub	x13,x11,x17
800109b0:	40b888b3          	sub	x17,x17,x11
800109b4:	00e7e7b3          	or	x15,x15,x14
800109b8:	0018b893          	sltiu	x17,x17,1
800109bc:	40f68733          	sub	x14,x13,x15
800109c0:	0117f7b3          	and	x15,x15,x17
800109c4:	00d5b6b3          	sltu	x13,x11,x13
800109c8:	00f6e6b3          	or	x13,x13,x15
800109cc:	40af8533          	sub	x10,x31,x10
800109d0:	40d50533          	sub	x10,x10,x13
800109d4:	000e0793          	addi	x15,x28,0
800109d8:	000f0493          	addi	x9,x30,0
800109dc:	d7dff06f          	jal	x0,80010758 <__subtf3+0xb98>
800109e0:	00190613          	addi	x12,x18,1
800109e4:	01161e13          	slli	x28,x12,0x11
800109e8:	012e5e13          	srli	x28,x28,0x12
800109ec:	01412803          	lw	x16,20(x2)
800109f0:	01812e83          	lw	x29,24(x2)
800109f4:	01c12883          	lw	x17,28(x2)
800109f8:	000082b7          	lui	x5,0x8
800109fc:	1a0e1463          	bne	x28,x0,80010ba4 <__subtf3+0xfe4>
80010a00:	00b36633          	or	x12,x6,x11
80010a04:	01d86e33          	or	x28,x16,x29
80010a08:	01f66633          	or	x12,x12,x31
80010a0c:	011e6e33          	or	x28,x28,x17
80010a10:	00e66633          	or	x12,x12,x14
80010a14:	00de6e33          	or	x28,x28,x13
80010a18:	0e091863          	bne	x18,x0,80010b08 <__subtf3+0xf48>
80010a1c:	020e1063          	bne	x28,x0,80010a3c <__subtf3+0xe7c>
80010a20:	00c03633          	sltu	x12,x0,x12
80010a24:	02e12823          	sw	x14,48(x2)
80010a28:	02612a23          	sw	x6,52(x2)
80010a2c:	02b12c23          	sw	x11,56(x2)
80010a30:	03f12e23          	sw	x31,60(x2)
80010a34:	01e674b3          	and	x9,x12,x30
80010a38:	ba0ff06f          	jal	x0,8000fdd8 <__subtf3+0x218>
80010a3c:	00061863          	bne	x12,x0,80010a4c <__subtf3+0xe8c>
80010a40:	02d12823          	sw	x13,48(x2)
80010a44:	03012a23          	sw	x16,52(x2)
80010a48:	8d5ff06f          	jal	x0,8001031c <__subtf3+0x75c>
80010a4c:	40680633          	sub	x12,x16,x6
80010a50:	40e684b3          	sub	x9,x13,x14
80010a54:	0096be33          	sltu	x28,x13,x9
80010a58:	00163913          	sltiu	x18,x12,1
80010a5c:	41c609b3          	sub	x19,x12,x28
80010a60:	40be82b3          	sub	x5,x29,x11
80010a64:	012e7e33          	and	x28,x28,x18
80010a68:	00c83633          	sltu	x12,x16,x12
80010a6c:	01c66633          	or	x12,x12,x28
80010a70:	0012b393          	sltiu	x7,x5,1
80010a74:	40c28a33          	sub	x20,x5,x12
80010a78:	00c3f633          	and	x12,x7,x12
80010a7c:	005eb2b3          	sltu	x5,x29,x5
80010a80:	00c2e2b3          	or	x5,x5,x12
80010a84:	41f88633          	sub	x12,x17,x31
80010a88:	40560633          	sub	x12,x12,x5
80010a8c:	02c12e23          	sw	x12,60(x2)
80010a90:	03412c23          	sw	x20,56(x2)
80010a94:	03312a23          	sw	x19,52(x2)
80010a98:	02912823          	sw	x9,48(x2)
80010a9c:	00c61e13          	slli	x28,x12,0xc
80010aa0:	040e5863          	bge	x28,x0,80010af0 <__subtf3+0xf30>
80010aa4:	40d706b3          	sub	x13,x14,x13
80010aa8:	00d73733          	sltu	x14,x14,x13
80010aac:	41030833          	sub	x16,x6,x16
80010ab0:	40e80633          	sub	x12,x16,x14
80010ab4:	01033833          	sltu	x16,x6,x16
80010ab8:	01277733          	and	x14,x14,x18
80010abc:	00e86833          	or	x16,x16,x14
80010ac0:	41d58eb3          	sub	x29,x11,x29
80010ac4:	01d5b5b3          	sltu	x11,x11,x29
80010ac8:	0103f3b3          	and	x7,x7,x16
80010acc:	411f8fb3          	sub	x31,x31,x17
80010ad0:	0075e5b3          	or	x11,x11,x7
80010ad4:	40bf8fb3          	sub	x31,x31,x11
80010ad8:	410e8eb3          	sub	x29,x29,x16
80010adc:	03f12e23          	sw	x31,60(x2)
80010ae0:	03d12c23          	sw	x29,56(x2)
80010ae4:	02c12a23          	sw	x12,52(x2)
80010ae8:	02d12823          	sw	x13,48(x2)
80010aec:	ce1ff06f          	jal	x0,800107cc <__subtf3+0xc0c>
80010af0:	0134e4b3          	or	x9,x9,x19
80010af4:	0144e4b3          	or	x9,x9,x20
80010af8:	00c4e4b3          	or	x9,x9,x12
80010afc:	009034b3          	sltu	x9,x0,x9
80010b00:	009574b3          	and	x9,x10,x9
80010b04:	ad4ff06f          	jal	x0,8000fdd8 <__subtf3+0x218>
80010b08:	03010513          	addi	x10,x2,48
80010b0c:	040e1e63          	bne	x28,x0,80010b68 <__subtf3+0xfa8>
80010b10:	02061e63          	bne	x12,x0,80010b4c <__subtf3+0xf8c>
80010b14:	02512e23          	sw	x5,60(x2)
80010b18:	02012c23          	sw	x0,56(x2)
80010b1c:	02012a23          	sw	x0,52(x2)
80010b20:	02012823          	sw	x0,48(x2)
80010b24:	03c10793          	addi	x15,x2,60
80010b28:	0007a703          	lw	x14,0(x15)
80010b2c:	ffc7a683          	lw	x13,-4(x15)
80010b30:	ffc78793          	addi	x15,x15,-4
80010b34:	00371713          	slli	x14,x14,0x3
80010b38:	01d6d693          	srli	x13,x13,0x1d
80010b3c:	00d76733          	or	x14,x14,x13
80010b40:	00e7a223          	sw	x14,4(x15)
80010b44:	fef512e3          	bne	x10,x15,80010b28 <__subtf3+0xf68>
80010b48:	8e1ff06f          	jal	x0,80010428 <__subtf3+0x868>
80010b4c:	02e12823          	sw	x14,48(x2)
80010b50:	02612a23          	sw	x6,52(x2)
80010b54:	02b12c23          	sw	x11,56(x2)
80010b58:	03f12e23          	sw	x31,60(x2)
80010b5c:	000f0493          	addi	x9,x30,0
80010b60:	fff28793          	addi	x15,x5,-1 # 7fff <_start-0x7fff8001>
80010b64:	a74ff06f          	jal	x0,8000fdd8 <__subtf3+0x218>
80010b68:	a4060263          	beq	x12,x0,8000fdac <__subtf3+0x1ec>
80010b6c:	02512e23          	sw	x5,60(x2)
80010b70:	02012c23          	sw	x0,56(x2)
80010b74:	02012a23          	sw	x0,52(x2)
80010b78:	02012823          	sw	x0,48(x2)
80010b7c:	03c10793          	addi	x15,x2,60
80010b80:	0007a703          	lw	x14,0(x15)
80010b84:	ffc7a683          	lw	x13,-4(x15)
80010b88:	ffc78793          	addi	x15,x15,-4
80010b8c:	00371713          	slli	x14,x14,0x3
80010b90:	01d6d693          	srli	x13,x13,0x1d
80010b94:	00d76733          	or	x14,x14,x13
80010b98:	00e7a223          	sw	x14,4(x15)
80010b9c:	fef512e3          	bne	x10,x15,80010b80 <__subtf3+0xfc0>
80010ba0:	889ff06f          	jal	x0,80010428 <__subtf3+0x868>
80010ba4:	40680633          	sub	x12,x16,x6
80010ba8:	40e682b3          	sub	x5,x13,x14
80010bac:	0056b533          	sltu	x10,x13,x5
80010bb0:	00163993          	sltiu	x19,x12,1
80010bb4:	40a60a33          	sub	x20,x12,x10
80010bb8:	40be8e33          	sub	x28,x29,x11
80010bbc:	01357533          	and	x10,x10,x19
80010bc0:	00c83633          	sltu	x12,x16,x12
80010bc4:	00a66633          	or	x12,x12,x10
80010bc8:	001e3393          	sltiu	x7,x28,1
80010bcc:	40ce0ab3          	sub	x21,x28,x12
80010bd0:	00c3f633          	and	x12,x7,x12
80010bd4:	01cebe33          	sltu	x28,x29,x28
80010bd8:	00ce6e33          	or	x28,x28,x12
80010bdc:	41f88533          	sub	x10,x17,x31
80010be0:	41c50533          	sub	x10,x10,x28
80010be4:	02a12e23          	sw	x10,60(x2)
80010be8:	03512c23          	sw	x21,56(x2)
80010bec:	03412a23          	sw	x20,52(x2)
80010bf0:	02512823          	sw	x5,48(x2)
80010bf4:	00c51613          	slli	x12,x10,0xc
80010bf8:	0a065463          	bge	x12,x0,80010ca0 <__subtf3+0x10e0>
80010bfc:	40d706b3          	sub	x13,x14,x13
80010c00:	00d73733          	sltu	x14,x14,x13
80010c04:	41030833          	sub	x16,x6,x16
80010c08:	40e807b3          	sub	x15,x16,x14
80010c0c:	01377733          	and	x14,x14,x19
80010c10:	01033833          	sltu	x16,x6,x16
80010c14:	00e86833          	or	x16,x16,x14
80010c18:	41d58eb3          	sub	x29,x11,x29
80010c1c:	01d5b5b3          	sltu	x11,x11,x29
80010c20:	007873b3          	and	x7,x16,x7
80010c24:	411f8533          	sub	x10,x31,x17
80010c28:	0075e5b3          	or	x11,x11,x7
80010c2c:	40b50533          	sub	x10,x10,x11
80010c30:	410e8eb3          	sub	x29,x29,x16
80010c34:	02a12e23          	sw	x10,60(x2)
80010c38:	03d12c23          	sw	x29,56(x2)
80010c3c:	02f12a23          	sw	x15,52(x2)
80010c40:	02d12823          	sw	x13,48(x2)
80010c44:	000f0493          	addi	x9,x30,0
80010c48:	06050663          	beq	x10,x0,80010cb4 <__subtf3+0x10f4>
80010c4c:	c7cf00ef          	jal	x1,800010c8 <__clzsi2>
80010c50:	ff450793          	addi	x15,x10,-12
80010c54:	02000613          	addi	x12,x0,32
80010c58:	01f7f813          	andi	x16,x15,31
80010c5c:	02c7c6b3          	div	x13,x15,x12
80010c60:	03c10713          	addi	x14,x2,60
80010c64:	08080463          	beq	x16,x0,80010cec <__subtf3+0x112c>
80010c68:	00269893          	slli	x17,x13,0x2
80010c6c:	03010513          	addi	x10,x2,48
80010c70:	41170733          	sub	x14,x14,x17
80010c74:	02c7e5b3          	rem	x11,x15,x12
80010c78:	40b60633          	sub	x12,x12,x11
80010c7c:	08e51e63          	bne	x10,x14,80010d18 <__subtf3+0x1158>
80010c80:	fff68713          	addi	x14,x13,-1
80010c84:	03012683          	lw	x13,48(x2)
80010c88:	01150533          	add	x10,x10,x17
80010c8c:	010696b3          	sll	x13,x13,x16
80010c90:	00d52023          	sw	x13,0(x10)
80010c94:	fff00613          	addi	x12,x0,-1
80010c98:	03010893          	addi	x17,x2,48
80010c9c:	0b00006f          	jal	x0,80010d4c <__subtf3+0x118c>
80010ca0:	0142e733          	or	x14,x5,x20
80010ca4:	01576733          	or	x14,x14,x21
80010ca8:	00a76733          	or	x14,x14,x10
80010cac:	f8070263          	beq	x14,x0,80010430 <__subtf3+0x870>
80010cb0:	f99ff06f          	jal	x0,80010c48 <__subtf3+0x1088>
80010cb4:	03812503          	lw	x10,56(x2)
80010cb8:	00050863          	beq	x10,x0,80010cc8 <__subtf3+0x1108>
80010cbc:	c0cf00ef          	jal	x1,800010c8 <__clzsi2>
80010cc0:	02050513          	addi	x10,x10,32
80010cc4:	f8dff06f          	jal	x0,80010c50 <__subtf3+0x1090>
80010cc8:	03412503          	lw	x10,52(x2)
80010ccc:	00050863          	beq	x10,x0,80010cdc <__subtf3+0x111c>
80010cd0:	bf8f00ef          	jal	x1,800010c8 <__clzsi2>
80010cd4:	04050513          	addi	x10,x10,64
80010cd8:	f79ff06f          	jal	x0,80010c50 <__subtf3+0x1090>
80010cdc:	03012503          	lw	x10,48(x2)
80010ce0:	be8f00ef          	jal	x1,800010c8 <__clzsi2>
80010ce4:	06050513          	addi	x10,x10,96
80010ce8:	f69ff06f          	jal	x0,80010c50 <__subtf3+0x1090>
80010cec:	ffc00593          	addi	x11,x0,-4
80010cf0:	02b685b3          	mul	x11,x13,x11
80010cf4:	00300613          	addi	x12,x0,3
80010cf8:	00b70533          	add	x10,x14,x11
80010cfc:	00052503          	lw	x10,0(x10)
80010d00:	fff60613          	addi	x12,x12,-1 # 7ffff <_start-0x7ff80001>
80010d04:	ffc70713          	addi	x14,x14,-4
80010d08:	00a72223          	sw	x10,4(x14)
80010d0c:	fed656e3          	bge	x12,x13,80010cf8 <__subtf3+0x1138>
80010d10:	fff68713          	addi	x14,x13,-1
80010d14:	f81ff06f          	jal	x0,80010c94 <__subtf3+0x10d4>
80010d18:	00072583          	lw	x11,0(x14)
80010d1c:	ffc72303          	lw	x6,-4(x14)
80010d20:	01170e33          	add	x28,x14,x17
80010d24:	010595b3          	sll	x11,x11,x16
80010d28:	00c35333          	srl	x6,x6,x12
80010d2c:	0065e5b3          	or	x11,x11,x6
80010d30:	00be2023          	sw	x11,0(x28)
80010d34:	ffc70713          	addi	x14,x14,-4
80010d38:	f45ff06f          	jal	x0,80010c7c <__subtf3+0x10bc>
80010d3c:	00271693          	slli	x13,x14,0x2
80010d40:	00d886b3          	add	x13,x17,x13
80010d44:	0006a023          	sw	x0,0(x13)
80010d48:	fff70713          	addi	x14,x14,-1
80010d4c:	fec718e3          	bne	x14,x12,80010d3c <__subtf3+0x117c>
80010d50:	1127c263          	blt	x15,x18,80010e54 <__subtf3+0x1294>
80010d54:	412787b3          	sub	x15,x15,x18
80010d58:	00178793          	addi	x15,x15,1
80010d5c:	4057d713          	srai	x14,x15,0x5
80010d60:	00088613          	addi	x12,x17,0
80010d64:	01f7f793          	andi	x15,x15,31
80010d68:	00088593          	addi	x11,x17,0
80010d6c:	00000813          	addi	x16,x0,0
80010d70:	00000693          	addi	x13,x0,0
80010d74:	02e69c63          	bne	x13,x14,80010dac <__subtf3+0x11ec>
80010d78:	00300693          	addi	x13,x0,3
80010d7c:	40e686b3          	sub	x13,x13,x14
80010d80:	00271e13          	slli	x28,x14,0x2
80010d84:	02079e63          	bne	x15,x0,80010dc0 <__subtf3+0x1200>
80010d88:	01c605b3          	add	x11,x12,x28
80010d8c:	0005a583          	lw	x11,0(x11)
80010d90:	00178793          	addi	x15,x15,1
80010d94:	00460613          	addi	x12,x12,4
80010d98:	feb62e23          	sw	x11,-4(x12)
80010d9c:	fef6d6e3          	bge	x13,x15,80010d88 <__subtf3+0x11c8>
80010da0:	00400793          	addi	x15,x0,4
80010da4:	40e78733          	sub	x14,x15,x14
80010da8:	0540006f          	jal	x0,80010dfc <__subtf3+0x123c>
80010dac:	0005a503          	lw	x10,0(x11)
80010db0:	00168693          	addi	x13,x13,1
80010db4:	00458593          	addi	x11,x11,4
80010db8:	00a86833          	or	x16,x16,x10
80010dbc:	fb9ff06f          	jal	x0,80010d74 <__subtf3+0x11b4>
80010dc0:	01c88633          	add	x12,x17,x28
80010dc4:	00062583          	lw	x11,0(x12)
80010dc8:	02000513          	addi	x10,x0,32
80010dcc:	40f50533          	sub	x10,x10,x15
80010dd0:	00a595b3          	sll	x11,x11,x10
80010dd4:	00b86833          	or	x16,x16,x11
80010dd8:	00000313          	addi	x6,x0,0
80010ddc:	02d34463          	blt	x6,x13,80010e04 <__subtf3+0x1244>
80010de0:	00400613          	addi	x12,x0,4
80010de4:	40e60733          	sub	x14,x12,x14
80010de8:	03c12603          	lw	x12,60(x2)
80010dec:	00269693          	slli	x13,x13,0x2
80010df0:	00d886b3          	add	x13,x17,x13
80010df4:	00f657b3          	srl	x15,x12,x15
80010df8:	00f6a023          	sw	x15,0(x13)
80010dfc:	00400693          	addi	x13,x0,4
80010e00:	03c0006f          	jal	x0,80010e3c <__subtf3+0x127c>
80010e04:	00062583          	lw	x11,0(x12)
80010e08:	00462e83          	lw	x29,4(x12)
80010e0c:	41c60f33          	sub	x30,x12,x28
80010e10:	00f5d5b3          	srl	x11,x11,x15
80010e14:	00ae9eb3          	sll	x29,x29,x10
80010e18:	01d5e5b3          	or	x11,x11,x29
80010e1c:	00bf2023          	sw	x11,0(x30)
80010e20:	00130313          	addi	x6,x6,1
80010e24:	00460613          	addi	x12,x12,4
80010e28:	fb5ff06f          	jal	x0,80010ddc <__subtf3+0x121c>
80010e2c:	00271793          	slli	x15,x14,0x2
80010e30:	00f887b3          	add	x15,x17,x15
80010e34:	0007a023          	sw	x0,0(x15)
80010e38:	00170713          	addi	x14,x14,1
80010e3c:	fed718e3          	bne	x14,x13,80010e2c <__subtf3+0x126c>
80010e40:	03012703          	lw	x14,48(x2)
80010e44:	010037b3          	sltu	x15,x0,x16
80010e48:	00f767b3          	or	x15,x14,x15
80010e4c:	02f12823          	sw	x15,48(x2)
80010e50:	cf8ff06f          	jal	x0,80010348 <__subtf3+0x788>
80010e54:	03c12703          	lw	x14,60(x2)
80010e58:	fff806b7          	lui	x13,0xfff80
80010e5c:	fff68693          	addi	x13,x13,-1 # fff7ffff <_stack_top+0x77f7ffff>
80010e60:	40f907b3          	sub	x15,x18,x15
80010e64:	00d77733          	and	x14,x14,x13
80010e68:	a24ff06f          	jal	x0,8001008c <__subtf3+0x4cc>
80010e6c:	02012e23          	sw	x0,60(x2)
80010e70:	02012c23          	sw	x0,56(x2)
80010e74:	02012a23          	sw	x0,52(x2)
80010e78:	02012823          	sw	x0,48(x2)
80010e7c:	00000713          	addi	x14,x0,0
80010e80:	fddfe06f          	jal	x0,8000fe5c <__subtf3+0x29c>
80010e84:	07400793          	addi	x15,x0,116
80010e88:	8ac7dc63          	bge	x15,x12,8000ff40 <__subtf3+0x380>
80010e8c:	02012623          	sw	x0,44(x2)
80010e90:	02012423          	sw	x0,40(x2)
80010e94:	02012223          	sw	x0,36(x2)
80010e98:	00100613          	addi	x12,x0,1
80010e9c:	994ff06f          	jal	x0,80010030 <__subtf3+0x470>
80010ea0:	07400793          	addi	x15,x0,116
80010ea4:	ad27dc63          	bge	x15,x18,8001017c <__subtf3+0x5bc>
80010ea8:	00012e23          	sw	x0,28(x2)
80010eac:	00012c23          	sw	x0,24(x2)
80010eb0:	00012a23          	sw	x0,20(x2)
80010eb4:	00100613          	addi	x12,x0,1
80010eb8:	bccff06f          	jal	x0,80010284 <__subtf3+0x6c4>
80010ebc:	07400793          	addi	x15,x0,116
80010ec0:	9b27dce3          	bge	x15,x18,80010878 <__subtf3+0xcb8>
80010ec4:	00012e23          	sw	x0,28(x2)
80010ec8:	00012c23          	sw	x0,24(x2)
80010ecc:	00012a23          	sw	x0,20(x2)
80010ed0:	00100613          	addi	x12,x0,1
80010ed4:	aadff06f          	jal	x0,80010980 <__subtf3+0xdc0>

80010ed8 <__unordtf2>:
80010ed8:	00052703          	lw	x14,0(x10)
80010edc:	00452e83          	lw	x29,4(x10)
80010ee0:	00852e03          	lw	x28,8(x10)
80010ee4:	00c52503          	lw	x10,12(x10)
80010ee8:	00c5a603          	lw	x12,12(x11)
80010eec:	000086b7          	lui	x13,0x8
80010ef0:	fff68693          	addi	x13,x13,-1 # 7fff <_start-0x7fff8001>
80010ef4:	01055813          	srli	x16,x10,0x10
80010ef8:	0005a783          	lw	x15,0(x11)
80010efc:	0045a303          	lw	x6,4(x11)
80010f00:	0085a883          	lw	x17,8(x11)
80010f04:	00d87833          	and	x16,x16,x13
80010f08:	01065593          	srli	x11,x12,0x10
80010f0c:	ff010113          	addi	x2,x2,-16
80010f10:	00d5f5b3          	and	x11,x11,x13
80010f14:	02d81063          	bne	x16,x13,80010f34 <__unordtf2+0x5c>
80010f18:	01d76733          	or	x14,x14,x29
80010f1c:	01051513          	slli	x10,x10,0x10
80010f20:	01055513          	srli	x10,x10,0x10
80010f24:	01c76733          	or	x14,x14,x28
80010f28:	00a76733          	or	x14,x14,x10
80010f2c:	00100513          	addi	x10,x0,1
80010f30:	02071663          	bne	x14,x0,80010f5c <__unordtf2+0x84>
80010f34:	00008737          	lui	x14,0x8
80010f38:	fff70713          	addi	x14,x14,-1 # 7fff <_start-0x7fff8001>
80010f3c:	00000513          	addi	x10,x0,0
80010f40:	00e59e63          	bne	x11,x14,80010f5c <__unordtf2+0x84>
80010f44:	0067e533          	or	x10,x15,x6
80010f48:	01061613          	slli	x12,x12,0x10
80010f4c:	01156533          	or	x10,x10,x17
80010f50:	01065613          	srli	x12,x12,0x10
80010f54:	00c56533          	or	x10,x10,x12
80010f58:	00a03533          	sltu	x10,x0,x10
80010f5c:	01010113          	addi	x2,x2,16
80010f60:	00008067          	jalr	x0,0(x1)

80010f64 <__fixtfsi>:
80010f64:	00052703          	lw	x14,0(x10)
80010f68:	00c52783          	lw	x15,12(x10)
80010f6c:	00452683          	lw	x13,4(x10)
80010f70:	fe010113          	addi	x2,x2,-32
80010f74:	00852583          	lw	x11,8(x10)
80010f78:	00e12023          	sw	x14,0(x2)
80010f7c:	00e12823          	sw	x14,16(x2)
80010f80:	00179713          	slli	x14,x15,0x1
80010f84:	00d12223          	sw	x13,4(x2)
80010f88:	01175693          	srli	x13,x14,0x11
80010f8c:	00004737          	lui	x14,0x4
80010f90:	00b12423          	sw	x11,8(x2)
80010f94:	00f12623          	sw	x15,12(x2)
80010f98:	00b12c23          	sw	x11,24(x2)
80010f9c:	ffe70713          	addi	x14,x14,-2 # 3ffe <_start-0x7fffc002>
80010fa0:	00000513          	addi	x10,x0,0
80010fa4:	02d75063          	bge	x14,x13,80010fc4 <__fixtfsi+0x60>
80010fa8:	00004737          	lui	x14,0x4
80010fac:	01d70713          	addi	x14,x14,29 # 401d <_start-0x7fffbfe3>
80010fb0:	01f7d813          	srli	x16,x15,0x1f
80010fb4:	00d75c63          	bge	x14,x13,80010fcc <__fixtfsi+0x68>
80010fb8:	80000537          	lui	x10,0x80000
80010fbc:	fff50513          	addi	x10,x10,-1 # 7fffffff <_start-0x1>
80010fc0:	00a80533          	add	x10,x16,x10
80010fc4:	02010113          	addi	x2,x2,32
80010fc8:	00008067          	jalr	x0,0(x1)
80010fcc:	01079793          	slli	x15,x15,0x10
80010fd0:	00010737          	lui	x14,0x10
80010fd4:	0107d793          	srli	x15,x15,0x10
80010fd8:	00e7e7b3          	or	x15,x15,x14
80010fdc:	00004737          	lui	x14,0x4
80010fe0:	06f70713          	addi	x14,x14,111 # 406f <_start-0x7fffbf91>
80010fe4:	40d70733          	sub	x14,x14,x13
80010fe8:	40575513          	srai	x10,x14,0x5
80010fec:	00f12e23          	sw	x15,28(x2)
80010ff0:	01f77713          	andi	x14,x14,31
80010ff4:	01010613          	addi	x12,x2,16
80010ff8:	02071263          	bne	x14,x0,8001101c <__fixtfsi+0xb8>
80010ffc:	00251513          	slli	x10,x10,0x2
80011000:	00a60633          	add	x12,x12,x10
80011004:	00062783          	lw	x15,0(x12)
80011008:	00f12823          	sw	x15,16(x2)
8001100c:	01012503          	lw	x10,16(x2)
80011010:	fa080ae3          	beq	x16,x0,80010fc4 <__fixtfsi+0x60>
80011014:	40a00533          	sub	x10,x0,x10
80011018:	fadff06f          	jal	x0,80010fc4 <__fixtfsi+0x60>
8001101c:	00200893          	addi	x17,x0,2
80011020:	00000693          	addi	x13,x0,0
80011024:	03151063          	bne	x10,x17,80011044 <__fixtfsi+0xe0>
80011028:	02000693          	addi	x13,x0,32
8001102c:	40e686b3          	sub	x13,x13,x14
80011030:	00d796b3          	sll	x13,x15,x13
80011034:	00e5d5b3          	srl	x11,x11,x14
80011038:	00b6e6b3          	or	x13,x13,x11
8001103c:	00d12823          	sw	x13,16(x2)
80011040:	00100693          	addi	x13,x0,1
80011044:	00269693          	slli	x13,x13,0x2
80011048:	00d60633          	add	x12,x12,x13
8001104c:	00e7d7b3          	srl	x15,x15,x14
80011050:	00f62023          	sw	x15,0(x12)
80011054:	fb9ff06f          	jal	x0,8001100c <__fixtfsi+0xa8>

80011058 <__floatsitf>:
80011058:	fd010113          	addi	x2,x2,-48
8001105c:	02912223          	sw	x9,36(x2)
80011060:	02112623          	sw	x1,44(x2)
80011064:	02812423          	sw	x8,40(x2)
80011068:	03212023          	sw	x18,32(x2)
8001106c:	00050493          	addi	x9,x10,0
80011070:	10058e63          	beq	x11,x0,8001118c <__floatsitf+0x134>
80011074:	41f5d793          	srai	x15,x11,0x1f
80011078:	00b7c433          	xor	x8,x15,x11
8001107c:	40f40433          	sub	x8,x8,x15
80011080:	00040513          	addi	x10,x8,0
80011084:	01f5d913          	srli	x18,x11,0x1f
80011088:	840f00ef          	jal	x1,800010c8 <__clzsi2>
8001108c:	000045b7          	lui	x11,0x4
80011090:	01e58593          	addi	x11,x11,30 # 401e <_start-0x7fffbfe2>
80011094:	40a585b3          	sub	x11,x11,x10
80011098:	05150513          	addi	x10,x10,81
8001109c:	40555793          	srai	x15,x10,0x5
800110a0:	00812823          	sw	x8,16(x2)
800110a4:	00012a23          	sw	x0,20(x2)
800110a8:	00012c23          	sw	x0,24(x2)
800110ac:	00012e23          	sw	x0,28(x2)
800110b0:	01f57513          	andi	x10,x10,31
800110b4:	01010693          	addi	x13,x2,16
800110b8:	02050a63          	beq	x10,x0,800110ec <__floatsitf+0x94>
800110bc:	00200713          	addi	x14,x0,2
800110c0:	0ce79263          	bne	x15,x14,80011184 <__floatsitf+0x12c>
800110c4:	02000713          	addi	x14,x0,32
800110c8:	40a70733          	sub	x14,x14,x10
800110cc:	00e45733          	srl	x14,x8,x14
800110d0:	00e12e23          	sw	x14,28(x2)
800110d4:	fff78713          	addi	x14,x15,-1
800110d8:	00279793          	slli	x15,x15,0x2
800110dc:	00f687b3          	add	x15,x13,x15
800110e0:	00a41433          	sll	x8,x8,x10
800110e4:	0087a023          	sw	x8,0(x15)
800110e8:	0300006f          	jal	x0,80011118 <__floatsitf+0xc0>
800110ec:	00300713          	addi	x14,x0,3
800110f0:	40f70733          	sub	x14,x14,x15
800110f4:	00271713          	slli	x14,x14,0x2
800110f8:	00e68733          	add	x14,x13,x14
800110fc:	00072703          	lw	x14,0(x14)
80011100:	00200613          	addi	x12,x0,2
80011104:	00e12e23          	sw	x14,28(x2)
80011108:	00060713          	addi	x14,x12,0
8001110c:	00c79663          	bne	x15,x12,80011118 <__floatsitf+0xc0>
80011110:	00812c23          	sw	x8,24(x2)
80011114:	00100713          	addi	x14,x0,1
80011118:	00271713          	slli	x14,x14,0x2
8001111c:	00012823          	sw	x0,16(x2)
80011120:	0006a223          	sw	x0,4(x13)
80011124:	ffc70713          	addi	x14,x14,-4
80011128:	00400793          	addi	x15,x0,4
8001112c:	00f76463          	bltu	x14,x15,80011134 <__floatsitf+0xdc>
80011130:	00012c23          	sw	x0,24(x2)
80011134:	01c12783          	lw	x15,28(x2)
80011138:	02c12083          	lw	x1,44(x2)
8001113c:	02812403          	lw	x8,40(x2)
80011140:	00f11623          	sh	x15,12(x2)
80011144:	00f91793          	slli	x15,x18,0xf
80011148:	00b7e7b3          	or	x15,x15,x11
8001114c:	00f11723          	sh	x15,14(x2)
80011150:	01012783          	lw	x15,16(x2)
80011154:	02012903          	lw	x18,32(x2)
80011158:	00048513          	addi	x10,x9,0
8001115c:	00f4a023          	sw	x15,0(x9)
80011160:	01412783          	lw	x15,20(x2)
80011164:	00f4a223          	sw	x15,4(x9)
80011168:	01812783          	lw	x15,24(x2)
8001116c:	00f4a423          	sw	x15,8(x9)
80011170:	00c12783          	lw	x15,12(x2)
80011174:	00f4a623          	sw	x15,12(x9)
80011178:	02412483          	lw	x9,36(x2)
8001117c:	03010113          	addi	x2,x2,48
80011180:	00008067          	jalr	x0,0(x1)
80011184:	00300793          	addi	x15,x0,3
80011188:	f4dff06f          	jal	x0,800110d4 <__floatsitf+0x7c>
8001118c:	00012e23          	sw	x0,28(x2)
80011190:	00012c23          	sw	x0,24(x2)
80011194:	00012a23          	sw	x0,20(x2)
80011198:	00012823          	sw	x0,16(x2)
8001119c:	00000913          	addi	x18,x0,0
800111a0:	f95ff06f          	jal	x0,80011134 <__floatsitf+0xdc>

800111a4 <__extenddftf2>:
800111a4:	01465713          	srli	x14,x12,0x14
800111a8:	00c61793          	slli	x15,x12,0xc
800111ac:	7ff77713          	andi	x14,x14,2047
800111b0:	fd010113          	addi	x2,x2,-48
800111b4:	00c7d793          	srli	x15,x15,0xc
800111b8:	00170693          	addi	x13,x14,1
800111bc:	02812423          	sw	x8,40(x2)
800111c0:	02912223          	sw	x9,36(x2)
800111c4:	03212023          	sw	x18,32(x2)
800111c8:	02112623          	sw	x1,44(x2)
800111cc:	00b12823          	sw	x11,16(x2)
800111d0:	00f12a23          	sw	x15,20(x2)
800111d4:	00012e23          	sw	x0,28(x2)
800111d8:	00012c23          	sw	x0,24(x2)
800111dc:	7fe6f693          	andi	x13,x13,2046
800111e0:	00050913          	addi	x18,x10,0
800111e4:	00058493          	addi	x9,x11,0
800111e8:	01f65413          	srli	x8,x12,0x1f
800111ec:	08068263          	beq	x13,x0,80011270 <__extenddftf2+0xcc>
800111f0:	000046b7          	lui	x13,0x4
800111f4:	c0068693          	addi	x13,x13,-1024 # 3c00 <_start-0x7fffc400>
800111f8:	00d70733          	add	x14,x14,x13
800111fc:	0047d693          	srli	x13,x15,0x4
80011200:	00d12e23          	sw	x13,28(x2)
80011204:	01c79793          	slli	x15,x15,0x1c
80011208:	0045d693          	srli	x13,x11,0x4
8001120c:	00d7e7b3          	or	x15,x15,x13
80011210:	01c59493          	slli	x9,x11,0x1c
80011214:	00f12c23          	sw	x15,24(x2)
80011218:	00912a23          	sw	x9,20(x2)
8001121c:	00012823          	sw	x0,16(x2)
80011220:	01c12783          	lw	x15,28(x2)
80011224:	00f41413          	slli	x8,x8,0xf
80011228:	00e46433          	or	x8,x8,x14
8001122c:	00f11623          	sh	x15,12(x2)
80011230:	01012783          	lw	x15,16(x2)
80011234:	00811723          	sh	x8,14(x2)
80011238:	02c12083          	lw	x1,44(x2)
8001123c:	00f92023          	sw	x15,0(x18)
80011240:	01412783          	lw	x15,20(x2)
80011244:	02812403          	lw	x8,40(x2)
80011248:	02412483          	lw	x9,36(x2)
8001124c:	00f92223          	sw	x15,4(x18)
80011250:	01812783          	lw	x15,24(x2)
80011254:	00090513          	addi	x10,x18,0
80011258:	00f92423          	sw	x15,8(x18)
8001125c:	00c12783          	lw	x15,12(x2)
80011260:	00f92623          	sw	x15,12(x18)
80011264:	02012903          	lw	x18,32(x2)
80011268:	03010113          	addi	x2,x2,48
8001126c:	00008067          	jalr	x0,0(x1)
80011270:	00b7e533          	or	x10,x15,x11
80011274:	0e071663          	bne	x14,x0,80011360 <__extenddftf2+0x1bc>
80011278:	fa0504e3          	beq	x10,x0,80011220 <__extenddftf2+0x7c>
8001127c:	04078663          	beq	x15,x0,800112c8 <__extenddftf2+0x124>
80011280:	00078513          	addi	x10,x15,0
80011284:	e45ef0ef          	jal	x1,800010c8 <__clzsi2>
80011288:	03150693          	addi	x13,x10,49
8001128c:	4056d713          	srai	x14,x13,0x5
80011290:	01f6f693          	andi	x13,x13,31
80011294:	01c10793          	addi	x15,x2,28
80011298:	02068e63          	beq	x13,x0,800112d4 <__extenddftf2+0x130>
8001129c:	02000813          	addi	x16,x0,32
800112a0:	00271593          	slli	x11,x14,0x2
800112a4:	40d80833          	sub	x16,x16,x13
800112a8:	01010313          	addi	x6,x2,16
800112ac:	40b787b3          	sub	x15,x15,x11
800112b0:	08679663          	bne	x15,x6,8001133c <__extenddftf2+0x198>
800112b4:	00b787b3          	add	x15,x15,x11
800112b8:	00d496b3          	sll	x13,x9,x13
800112bc:	fff70713          	addi	x14,x14,-1
800112c0:	00d7a023          	sw	x13,0(x15)
800112c4:	0380006f          	jal	x0,800112fc <__extenddftf2+0x158>
800112c8:	e01ef0ef          	jal	x1,800010c8 <__clzsi2>
800112cc:	02050513          	addi	x10,x10,32
800112d0:	fb9ff06f          	jal	x0,80011288 <__extenddftf2+0xe4>
800112d4:	ffc00613          	addi	x12,x0,-4
800112d8:	02c70633          	mul	x12,x14,x12
800112dc:	00300693          	addi	x13,x0,3
800112e0:	00c785b3          	add	x11,x15,x12
800112e4:	0005a583          	lw	x11,0(x11)
800112e8:	fff68693          	addi	x13,x13,-1
800112ec:	ffc78793          	addi	x15,x15,-4
800112f0:	00b7a223          	sw	x11,4(x15)
800112f4:	fee6d6e3          	bge	x13,x14,800112e0 <__extenddftf2+0x13c>
800112f8:	fff70713          	addi	x14,x14,-1
800112fc:	00170713          	addi	x14,x14,1
80011300:	00271713          	slli	x14,x14,0x2
80011304:	00800693          	addi	x13,x0,8
80011308:	01010793          	addi	x15,x2,16
8001130c:	00d76a63          	bltu	x14,x13,80011320 <__extenddftf2+0x17c>
80011310:	00012823          	sw	x0,16(x2)
80011314:	0007a223          	sw	x0,4(x15)
80011318:	ff870713          	addi	x14,x14,-8
8001131c:	01810793          	addi	x15,x2,24
80011320:	00400693          	addi	x13,x0,4
80011324:	00d76463          	bltu	x14,x13,8001132c <__extenddftf2+0x188>
80011328:	0007a023          	sw	x0,0(x15)
8001132c:	00004737          	lui	x14,0x4
80011330:	c0c70713          	addi	x14,x14,-1012 # 3c0c <_start-0x7fffc3f4>
80011334:	40a70733          	sub	x14,x14,x10
80011338:	ee9ff06f          	jal	x0,80011220 <__extenddftf2+0x7c>
8001133c:	0007a603          	lw	x12,0(x15)
80011340:	ffc7a883          	lw	x17,-4(x15)
80011344:	00b78e33          	add	x28,x15,x11
80011348:	00d61633          	sll	x12,x12,x13
8001134c:	0108d8b3          	srl	x17,x17,x16
80011350:	01166633          	or	x12,x12,x17
80011354:	00ce2023          	sw	x12,0(x28)
80011358:	ffc78793          	addi	x15,x15,-4
8001135c:	f55ff06f          	jal	x0,800112b0 <__extenddftf2+0x10c>
80011360:	02050863          	beq	x10,x0,80011390 <__extenddftf2+0x1ec>
80011364:	01c79713          	slli	x14,x15,0x1c
80011368:	0045d693          	srli	x13,x11,0x4
8001136c:	00d76733          	or	x14,x14,x13
80011370:	00e12c23          	sw	x14,24(x2)
80011374:	0047d793          	srli	x15,x15,0x4
80011378:	00008737          	lui	x14,0x8
8001137c:	01c59493          	slli	x9,x11,0x1c
80011380:	00e7e7b3          	or	x15,x15,x14
80011384:	00912a23          	sw	x9,20(x2)
80011388:	00012823          	sw	x0,16(x2)
8001138c:	00f12e23          	sw	x15,28(x2)
80011390:	00008737          	lui	x14,0x8
80011394:	fff70713          	addi	x14,x14,-1 # 7fff <_start-0x7fff8001>
80011398:	e89ff06f          	jal	x0,80011220 <__extenddftf2+0x7c>

8001139c <_exit>:
8001139c:	0000006f          	jal	x0,8001139c <_exit>
800113a0:	5552                	.insn	2, 0x5552
800113a2:	4e4e                	.insn	2, 0x4e4e
800113a4:	4e49                	.insn	2, 0x4e49
800113a6:	4e4f2047          	.insn	4, 0x4e4f2047
800113aa:	5220                	.insn	2, 0x5220
800113ac:	3356                	.insn	2, 0x3356
800113ae:	0a32                	.insn	2, 0x0a32
800113b0:	0000                	.insn	2, 0x0000
800113b2:	0000                	.insn	2, 0x0000
800113b4:	3a6d7573          	.insn	4, 0x3a6d7573
800113b8:	2520                	.insn	2, 0x2520
800113ba:	2c69                	.insn	2, 0x2c69
800113bc:	6420                	.insn	2, 0x6420
800113be:	6669                	.insn	2, 0x6669
800113c0:	3a66                	.insn	2, 0x3a66
800113c2:	2520                	.insn	2, 0x2520
800113c4:	2c69                	.insn	2, 0x2c69
800113c6:	6620                	.insn	2, 0x6620
800113c8:	756d                	.insn	2, 0x756d
800113ca:	3a6c                	.insn	2, 0x3a6c
800113cc:	2520                	.insn	2, 0x2520
800113ce:	0a66                	.insn	2, 0x0a66
800113d0:	0000                	.insn	2, 0x0000
800113d2:	0000                	.insn	2, 0x0000
800113d4:	7270                	.insn	2, 0x7270
800113d6:	6172676f          	jal	x14,800381ec <__BSS_END__+0x25cf4>
800113da:	206d                	.insn	2, 0x206d
800113dc:	206e6163          	bltu	x28,x6,800115de <__clz_tab+0x1b2>
800113e0:	7375                	.insn	2, 0x7375
800113e2:	2065                	.insn	2, 0x2065
800113e4:	7570                	.insn	2, 0x7570
800113e6:	7374                	.insn	2, 0x7374
800113e8:	002e                	.insn	2, 0x002e
800113ea:	0000                	.insn	2, 0x0000
800113ec:	7270                	.insn	2, 0x7270
800113ee:	6172676f          	jal	x14,80038204 <__BSS_END__+0x25d0c>
800113f2:	206d                	.insn	2, 0x206d
800113f4:	206e6163          	bltu	x28,x6,800115f6 <__clz_tab+0x1ca>
800113f8:	7375                	.insn	2, 0x7375
800113fa:	2065                	.insn	2, 0x2065
800113fc:	7766                	.insn	2, 0x7766
800113fe:	6972                	.insn	2, 0x6972
80011400:	6574                	.insn	2, 0x6574
80011402:	0000                	.insn	2, 0x0000
80011404:	7270                	.insn	2, 0x7270
80011406:	6172676f          	jal	x14,8003821c <__BSS_END__+0x25d24>
8001140a:	206d                	.insn	2, 0x206d
8001140c:	206e6163          	bltu	x28,x6,8001160e <__clz_tab+0x1e2>
80011410:	7375                	.insn	2, 0x7375
80011412:	2065                	.insn	2, 0x2065
80011414:	7766                	.insn	2, 0x7766
80011416:	6972                	.insn	2, 0x6972
80011418:	6574                	.insn	2, 0x6574
8001141a:	7720                	.insn	2, 0x7720
8001141c:	7469                	.insn	2, 0x7469
8001141e:	2068                	.insn	2, 0x2068
80011420:	65647473          	.insn	4, 0x65647473
80011424:	7272                	.insn	2, 0x7272
80011426:	0000                	.insn	2, 0x0000
80011428:	0000                	.insn	2, 0x0000
8001142a:	3f80                	.insn	2, 0x3f80

8001142c <__clz_tab>:
8001142c:	0100 0202 0303 0303 0404 0404 0404 0404     ................
8001143c:	0505 0505 0505 0505 0505 0505 0505 0505     ................
8001144c:	0606 0606 0606 0606 0606 0606 0606 0606     ................
8001145c:	0606 0606 0606 0606 0606 0606 0606 0606     ................
8001146c:	0707 0707 0707 0707 0707 0707 0707 0707     ................
8001147c:	0707 0707 0707 0707 0707 0707 0707 0707     ................
8001148c:	0707 0707 0707 0707 0707 0707 0707 0707     ................
8001149c:	0707 0707 0707 0707 0707 0707 0707 0707     ................
800114ac:	0808 0808 0808 0808 0808 0808 0808 0808     ................
800114bc:	0808 0808 0808 0808 0808 0808 0808 0808     ................
800114cc:	0808 0808 0808 0808 0808 0808 0808 0808     ................
800114dc:	0808 0808 0808 0808 0808 0808 0808 0808     ................
800114ec:	0808 0808 0808 0808 0808 0808 0808 0808     ................
800114fc:	0808 0808 0808 0808 0808 0808 0808 0808     ................
8001150c:	0808 0808 0808 0808 0808 0808 0808 0808     ................
8001151c:	0808 0808 0808 0808 0808 0808 0808 0808     ................
8001152c:	000a 0000 4e49 0046 6e69 0066 414e 004e     ....INF.inf.NAN.
8001153c:	616e 006e 3130 3332 3534 3736 3938 6261     nan.0123456789ab
8001154c:	6463 6665 0000 0000 3130 3332 3534 3736     cdef....01234567
8001155c:	3938 4241 4443 4645 0000 0000 6e28 6c75     89ABCDEF....(nul
8001156c:	296c 0000 0030 0000 6e49 6966 696e 7974     l)..0...Infinity
8001157c:	0000 0000 614e 004e 6142 6c6c 636f 7320     ....NaN.Balloc s
8001158c:	6375 6563 6465 6465 0000 0000 6d2f 746e     ucceeded..../mnt
8001159c:	632f 552f 6573 7372 702f 2f63 6967 6874     /c/Users/pc/gith
800115ac:	6275 582f 2f50 7273 2f63 6d45 6c75 7461     ub/XP/src/Emulat
800115bc:	726f 742f 6968 6472 6170 7472 2f79 6972     or/thirdparty/ri
800115cc:	6373 2d76 6e67 2d75 6f74 6c6f 6863 6961     scv-gnu-toolchai
800115dc:	2f6e 7562 6c69 3364 2f32 2e2e 6e2f 7765     n/build32/../new
800115ec:	696c 2f62 656e 6c77 6269 6c2f 6269 2f63     lib/newlib/libc/
800115fc:	7473 6c64 6269 672f 7464 616f 642d 696d     stdlib/gdtoa-dmi
8001160c:	6373 632e 0000 0000 6d2f 746e 632f 552f     sc.c..../mnt/c/U
8001161c:	6573 7372 702f 2f63 6967 6874 6275 582f     sers/pc/github/X
8001162c:	2f50 7273 2f63 6d45 6c75 7461 726f 742f     P/src/Emulator/t
8001163c:	6968 6472 6170 7472 2f79 6972 6373 2d76     hirdparty/riscv-
8001164c:	6e67 2d75 6f74 6c6f 6863 6961 2f6e 7562     gnu-toolchain/bu
8001165c:	6c69 3364 2f32 2e2e 6e2f 7765 696c 2f62     ild32/../newlib/
8001166c:	656e 6c77 6269 6c2f 6269 2f63 7473 6c64     newlib/libc/stdl
8001167c:	6269 6d2f 7270 6365 632e 0000 0043 0000     ib/mprec.c..C...
8001168c:	4f50 4953 0058 0000 002e 0000 202c 7566     POSIX......., fu
8001169c:	636e 6974 6e6f 203a 0000 0000 7361 6573     nction: ....asse
800116ac:	7472 6f69 206e 2522 2273 6620 6961 656c     rtion "%s" faile
800116bc:	3a64 6620 6c69 2065 2522 2273 202c 696c     d: file "%s", li
800116cc:	656e 2520 2564 2573 0a73 0000 3148 8000     ne %d%s%s...H1..
800116dc:	2460 8000 2460 8000 313c 8000 2460 8000     `$..`$..<1..`$..
800116ec:	2460 8000 2460 8000 30f0 8000 2460 8000     `$..`$...0..`$..
800116fc:	2460 8000 3050 8000 3084 8000 2460 8000     `$..P0...0..`$..
8001170c:	3078 8000 30a0 8000 2460 8000 3094 8000     x0...0..`$...0..
8001171c:	2420 8000 2420 8000 2420 8000 2420 8000      $.. $.. $.. $..
8001172c:	2420 8000 2420 8000 2420 8000 2420 8000      $.. $.. $.. $..
8001173c:	2420 8000 2460 8000 2460 8000 2460 8000      $..`$..`$..`$..
8001174c:	2460 8000 2460 8000 2460 8000 2460 8000     `$..`$..`$..`$..
8001175c:	263c 8000 2460 8000 2f9c 8000 2fc0 8000     <&..`$.../.../..
8001176c:	263c 8000 263c 8000 263c 8000 2460 8000     <&..<&..<&..`$..
8001177c:	2460 8000 2460 8000 2460 8000 34d0 8000     `$..`$..`$...4..
8001178c:	2460 8000 2460 8000 3160 8000 2460 8000     `$..`$..`1..`$..
8001179c:	2460 8000 2460 8000 2bf0 8000 2460 8000     `$..`$...+..`$..
800117ac:	3450 8000 2460 8000 2460 8000 3ce8 8000     P4..`$..`$...<..
800117bc:	2460 8000 2460 8000 2460 8000 2460 8000     `$..`$..`$..`$..
800117cc:	2460 8000 2460 8000 2460 8000 2460 8000     `$..`$..`$..`$..
800117dc:	263c 8000 2460 8000 2f9c 8000 2edc 8000     <&..`$.../......
800117ec:	263c 8000 263c 8000 263c 8000 31d0 8000     <&..<&..<&...1..
800117fc:	2edc 8000 25fc 8000 2460 8000 3228 8000     .....%..`$..(2..
8001180c:	2460 8000 31e4 8000 340c 8000 33ac 8000     `$...1...4...3..
8001181c:	25fc 8000 2460 8000 2bf0 8000 25f4 8000     .%..`$...+...%..
8001182c:	323c 8000 2460 8000 2460 8000 3d40 8000     <2..`$..`$..@=..
8001183c:	2460 8000 25f4 8000                         `$...%..

80011844 <zeroes.0>:
80011844:	3030 3030 3030 3030 3030 3030 3030 3030     0000000000000000

80011854 <blanks.1>:
80011854:	2020 2020 2020 2020 2020 2020 2020 2020                     
80011864:	0071 0000 bf92 ffff 3f8f 0000 0001 0000     q........?......
80011874:	0000 0000                                   ....

80011878 <p05.0>:
80011878:	0005 0000 0019 0000 007d 0000 0000 0000     ........}.......

80011888 <__mprec_tinytens>:
80011888:	89bc 97d8 d2b2 3c9c a733 d5a8 f623 3949     .......<3...#.I9
80011898:	a73d 44f4 0ffd 32a5 979d cf8c ba08 255b     =..D...2......[%
800118a8:	6f43 64ac 0628 0ac8                         Co.d(...

800118b0 <__mprec_bigtens>:
800118b0:	8000 37e0 c379 4341 6e17 b505 b8b5 4693     ...7y.AC.n.....F
800118c0:	f9f5 e93f 4f03 4d38 1d32 f930 7748 5a82     ..?..O8M2.0.Hw.Z
800118d0:	bf3c 7f73 4fdd 7515                         <.s..O.u

800118d8 <__mprec_tens>:
800118d8:	0000 0000 0000 3ff0 0000 0000 0000 4024     .......?......$@
800118e8:	0000 0000 0000 4059 0000 0000 4000 408f     ......Y@.....@.@
800118f8:	0000 0000 8800 40c3 0000 0000 6a00 40f8     .......@.....j.@
80011908:	0000 0000 8480 412e 0000 0000 12d0 4163     .......A......cA
80011918:	0000 0000 d784 4197 0000 0000 cd65 41cd     .......A....e..A
80011928:	0000 2000 a05f 4202 0000 e800 4876 4237     ... _..B....vH7B
80011938:	0000 a200 1a94 426d 0000 e540 309c 42a2     ......mB..@..0.B
80011948:	0000 1e90 bcc4 42d6 0000 2634 6bf5 430c     .......B..4&.k.C
80011958:	8000 37e0 c379 4341 a000 85d8 3457 4376     ...7y.AC....W4vC
80011968:	c800 674e c16d 43ab 3d00 6091 58e4 43e1     ..Ngm..C.=.`.X.C
80011978:	8c40 78b5 af1d 4415 ef50 d6e2 1ae4 444b     @..x...DP.....KD
80011988:	d592 064d f0cf 4480 4af6 c7e1 2d02 44b5     ..M....D.J...-.D
80011998:	9db4 79d9 7843 44ea                         ...yCx.D

800119a0 <_ctype_>:
800119a0:	2000 2020 2020 2020 2020 2828 2828 2028     .         ((((( 
800119b0:	2020 2020 2020 2020 2020 2020 2020 2020                     
800119c0:	8820 1010 1010 1010 1010 1010 1010 1010      ...............
800119d0:	0410 0404 0404 0404 0404 1004 1010 1010     ................
800119e0:	1010 4141 4141 4141 0101 0101 0101 0101     ..AAAAAA........
800119f0:	0101 0101 0101 0101 0101 0101 1010 1010     ................
80011a00:	1010 4242 4242 4242 0202 0202 0202 0202     ..BBBBBB........
80011a10:	0202 0202 0202 0202 0202 0202 1010 1010     ................
80011a20:	0020 0000 0000 0000 0000 0000 0000 0000      ...............
	...
80011aa4:	b9f8 8000 b2ac 8000 b2ac 8000 b9ec 8000     ................
80011ab4:	b2ac 8000 b2ac 8000 b2ac 8000 b93c 8000     ............<...
80011ac4:	b2ac 8000 b2ac 8000 b720 8000 b73c 8000     ........ ...<...
80011ad4:	b2ac 8000 b730 8000 b9a0 8000 b2ac 8000     ....0...........
80011ae4:	b994 8000 b278 8000 b278 8000 b278 8000     ....x...x...x...
80011af4:	b278 8000 b278 8000 b278 8000 b278 8000     x...x...x...x...
80011b04:	b278 8000 b278 8000 b2ac 8000 b2ac 8000     x...x...........
80011b14:	b2ac 8000 b2ac 8000 b2ac 8000 b2ac 8000     ................
80011b24:	b2ac 8000 b2ac 8000 b2ac 8000 b67c 8000     ............|...
80011b34:	b6a0 8000 b2ac 8000 b2ac 8000 b2ac 8000     ................
80011b44:	b2ac 8000 b2ac 8000 b2ac 8000 b2ac 8000     ................
80011b54:	b2ac 8000 b2ac 8000 b2ac 8000 b74c 8000     ............L...
80011b64:	b2ac 8000 b2ac 8000 b2ac 8000 b628 8000     ............(...
80011b74:	b2ac 8000 b7bc 8000 b2ac 8000 b2ac 8000     ................
80011b84:	bfdc 8000 b2ac 8000 b2ac 8000 b2ac 8000     ................
80011b94:	b2ac 8000 b2ac 8000 b2ac 8000 b2ac 8000     ................
80011ba4:	b2ac 8000 b2ac 8000 b2ac 8000 b67c 8000     ............|...
80011bb4:	b5a4 8000 b2ac 8000 b2ac 8000 b2ac 8000     ................
80011bc4:	b7a8 8000 b5a4 8000 b3bc 8000 b2ac 8000     ................
80011bd4:	bae8 8000 b2ac 8000 bab4 8000 ba7c 8000     ............|...
80011be4:	ba10 8000 b3bc 8000 b2ac 8000 b628 8000     ............(...
80011bf4:	b3b4 8000 b800 8000 b2ac 8000 b2ac 8000     ................
80011c04:	c050 8000 b2ac 8000 b3b4 8000               P...........

80011c10 <zeroes.0>:
80011c10:	3030 3030 3030 3030 3030 3030 3030 3030     0000000000000000

80011c20 <blanks.1>:
80011c20:	2020 2020 2020 2020 2020 2020 2020 2020                     
80011c30:	d870 8000 d788 8000 d768 8000 d788 8000     p.......h.......
80011c40:	d85c 8000 d788 8000 d768 8000 d870 8000     \.......h...p...
80011c50:	d870 8000 d85c 8000 d768 8000 d794 8000     p...\...h.......
80011c60:	d794 8000 d794 8000 d85c 8000               ........\...
